
ELEC3300_Project.elf:     file format elf32-littlearm

Sections:
Idx Name          Size      VMA       LMA       File off  Algn
  0 .isr_vector   00000188  08000000  08000000  00010000  2**0
                  CONTENTS, ALLOC, LOAD, READONLY, DATA
  1 .text         0000ad10  08000190  08000190  00010190  2**4
                  CONTENTS, ALLOC, LOAD, READONLY, CODE
  2 .rodata       00001e38  0800aea0  0800aea0  0001aea0  2**3
                  CONTENTS, ALLOC, LOAD, READONLY, DATA
  3 .ARM.extab    00000000  0800ccd8  0800ccd8  000200e0  2**0
                  CONTENTS
  4 .ARM          00000008  0800ccd8  0800ccd8  0001ccd8  2**2
                  CONTENTS, ALLOC, LOAD, READONLY, DATA
  5 .preinit_array 00000000  0800cce0  0800cce0  000200e0  2**0
                  CONTENTS, ALLOC, LOAD, DATA
  6 .init_array   00000004  0800cce0  0800cce0  0001cce0  2**2
                  CONTENTS, ALLOC, LOAD, DATA
  7 .fini_array   00000004  0800cce4  0800cce4  0001cce4  2**2
                  CONTENTS, ALLOC, LOAD, DATA
  8 .data         000000e0  20000000  0800cce8  00020000  2**2
                  CONTENTS, ALLOC, LOAD, DATA
  9 .ccmram       00000000  10000000  10000000  000200e0  2**0
                  CONTENTS
 10 .bss          00007228  200000e0  200000e0  000200e0  2**2
                  ALLOC
 11 ._user_heap_stack 00000600  20007308  20007308  000200e0  2**0
                  ALLOC
 12 .ARM.attributes 00000030  00000000  00000000  000200e0  2**0
                  CONTENTS, READONLY
 13 .comment      00000050  00000000  00000000  00020110  2**0
                  CONTENTS, READONLY
 14 .debug_frame  00000f9c  00000000  00000000  00020160  2**2
                  CONTENTS, READONLY, DEBUGGING, OCTETS

Disassembly of section .text:

08000190 <__do_global_dtors_aux>:
 8000190:	b510      	push	{r4, lr}
 8000192:	4c05      	ldr	r4, [pc, #20]	; (80001a8 <__do_global_dtors_aux+0x18>)
 8000194:	7823      	ldrb	r3, [r4, #0]
 8000196:	b933      	cbnz	r3, 80001a6 <__do_global_dtors_aux+0x16>
 8000198:	4b04      	ldr	r3, [pc, #16]	; (80001ac <__do_global_dtors_aux+0x1c>)
 800019a:	b113      	cbz	r3, 80001a2 <__do_global_dtors_aux+0x12>
 800019c:	4804      	ldr	r0, [pc, #16]	; (80001b0 <__do_global_dtors_aux+0x20>)
 800019e:	f3af 8000 	nop.w
 80001a2:	2301      	movs	r3, #1
 80001a4:	7023      	strb	r3, [r4, #0]
 80001a6:	bd10      	pop	{r4, pc}
 80001a8:	200000e0 	.word	0x200000e0
 80001ac:	00000000 	.word	0x00000000
 80001b0:	0800ae88 	.word	0x0800ae88

080001b4 <frame_dummy>:
 80001b4:	b508      	push	{r3, lr}
 80001b6:	4b03      	ldr	r3, [pc, #12]	; (80001c4 <frame_dummy+0x10>)
 80001b8:	b11b      	cbz	r3, 80001c2 <frame_dummy+0xe>
 80001ba:	4903      	ldr	r1, [pc, #12]	; (80001c8 <frame_dummy+0x14>)
 80001bc:	4803      	ldr	r0, [pc, #12]	; (80001cc <frame_dummy+0x18>)
 80001be:	f3af 8000 	nop.w
 80001c2:	bd08      	pop	{r3, pc}
 80001c4:	00000000 	.word	0x00000000
 80001c8:	200000e4 	.word	0x200000e4
 80001cc:	0800ae88 	.word	0x0800ae88

080001d0 <strlen>:
 80001d0:	4603      	mov	r3, r0
 80001d2:	f813 2b01 	ldrb.w	r2, [r3], #1
 80001d6:	2a00      	cmp	r2, #0
 80001d8:	d1fb      	bne.n	80001d2 <strlen+0x2>
 80001da:	1a18      	subs	r0, r3, r0
 80001dc:	3801      	subs	r0, #1
 80001de:	4770      	bx	lr

080001e0 <memchr>:
 80001e0:	f001 01ff 	and.w	r1, r1, #255	; 0xff
 80001e4:	2a10      	cmp	r2, #16
 80001e6:	db2b      	blt.n	8000240 <memchr+0x60>
 80001e8:	f010 0f07 	tst.w	r0, #7
 80001ec:	d008      	beq.n	8000200 <memchr+0x20>
 80001ee:	f810 3b01 	ldrb.w	r3, [r0], #1
 80001f2:	3a01      	subs	r2, #1
 80001f4:	428b      	cmp	r3, r1
 80001f6:	d02d      	beq.n	8000254 <memchr+0x74>
 80001f8:	f010 0f07 	tst.w	r0, #7
 80001fc:	b342      	cbz	r2, 8000250 <memchr+0x70>
 80001fe:	d1f6      	bne.n	80001ee <memchr+0xe>
 8000200:	b4f0      	push	{r4, r5, r6, r7}
 8000202:	ea41 2101 	orr.w	r1, r1, r1, lsl #8
 8000206:	ea41 4101 	orr.w	r1, r1, r1, lsl #16
 800020a:	f022 0407 	bic.w	r4, r2, #7
 800020e:	f07f 0700 	mvns.w	r7, #0
 8000212:	2300      	movs	r3, #0
 8000214:	e8f0 5602 	ldrd	r5, r6, [r0], #8
 8000218:	3c08      	subs	r4, #8
 800021a:	ea85 0501 	eor.w	r5, r5, r1
 800021e:	ea86 0601 	eor.w	r6, r6, r1
 8000222:	fa85 f547 	uadd8	r5, r5, r7
 8000226:	faa3 f587 	sel	r5, r3, r7
 800022a:	fa86 f647 	uadd8	r6, r6, r7
 800022e:	faa5 f687 	sel	r6, r5, r7
 8000232:	b98e      	cbnz	r6, 8000258 <memchr+0x78>
 8000234:	d1ee      	bne.n	8000214 <memchr+0x34>
 8000236:	bcf0      	pop	{r4, r5, r6, r7}
 8000238:	f001 01ff 	and.w	r1, r1, #255	; 0xff
 800023c:	f002 0207 	and.w	r2, r2, #7
 8000240:	b132      	cbz	r2, 8000250 <memchr+0x70>
 8000242:	f810 3b01 	ldrb.w	r3, [r0], #1
 8000246:	3a01      	subs	r2, #1
 8000248:	ea83 0301 	eor.w	r3, r3, r1
 800024c:	b113      	cbz	r3, 8000254 <memchr+0x74>
 800024e:	d1f8      	bne.n	8000242 <memchr+0x62>
 8000250:	2000      	movs	r0, #0
 8000252:	4770      	bx	lr
 8000254:	3801      	subs	r0, #1
 8000256:	4770      	bx	lr
 8000258:	2d00      	cmp	r5, #0
 800025a:	bf06      	itte	eq
 800025c:	4635      	moveq	r5, r6
 800025e:	3803      	subeq	r0, #3
 8000260:	3807      	subne	r0, #7
 8000262:	f015 0f01 	tst.w	r5, #1
 8000266:	d107      	bne.n	8000278 <memchr+0x98>
 8000268:	3001      	adds	r0, #1
 800026a:	f415 7f80 	tst.w	r5, #256	; 0x100
 800026e:	bf02      	ittt	eq
 8000270:	3001      	addeq	r0, #1
 8000272:	f415 3fc0 	tsteq.w	r5, #98304	; 0x18000
 8000276:	3001      	addeq	r0, #1
 8000278:	bcf0      	pop	{r4, r5, r6, r7}
 800027a:	3801      	subs	r0, #1
 800027c:	4770      	bx	lr
 800027e:	bf00      	nop

08000280 <__aeabi_drsub>:
 8000280:	f081 4100 	eor.w	r1, r1, #2147483648	; 0x80000000
 8000284:	e002      	b.n	800028c <__adddf3>
 8000286:	bf00      	nop

08000288 <__aeabi_dsub>:
 8000288:	f083 4300 	eor.w	r3, r3, #2147483648	; 0x80000000

0800028c <__adddf3>:
 800028c:	b530      	push	{r4, r5, lr}
 800028e:	ea4f 0441 	mov.w	r4, r1, lsl #1
 8000292:	ea4f 0543 	mov.w	r5, r3, lsl #1
 8000296:	ea94 0f05 	teq	r4, r5
 800029a:	bf08      	it	eq
 800029c:	ea90 0f02 	teqeq	r0, r2
 80002a0:	bf1f      	itttt	ne
 80002a2:	ea54 0c00 	orrsne.w	ip, r4, r0
 80002a6:	ea55 0c02 	orrsne.w	ip, r5, r2
 80002aa:	ea7f 5c64 	mvnsne.w	ip, r4, asr #21
 80002ae:	ea7f 5c65 	mvnsne.w	ip, r5, asr #21
 80002b2:	f000 80e2 	beq.w	800047a <__adddf3+0x1ee>
 80002b6:	ea4f 5454 	mov.w	r4, r4, lsr #21
 80002ba:	ebd4 5555 	rsbs	r5, r4, r5, lsr #21
 80002be:	bfb8      	it	lt
 80002c0:	426d      	neglt	r5, r5
 80002c2:	dd0c      	ble.n	80002de <__adddf3+0x52>
 80002c4:	442c      	add	r4, r5
 80002c6:	ea80 0202 	eor.w	r2, r0, r2
 80002ca:	ea81 0303 	eor.w	r3, r1, r3
 80002ce:	ea82 0000 	eor.w	r0, r2, r0
 80002d2:	ea83 0101 	eor.w	r1, r3, r1
 80002d6:	ea80 0202 	eor.w	r2, r0, r2
 80002da:	ea81 0303 	eor.w	r3, r1, r3
 80002de:	2d36      	cmp	r5, #54	; 0x36
 80002e0:	bf88      	it	hi
 80002e2:	bd30      	pophi	{r4, r5, pc}
 80002e4:	f011 4f00 	tst.w	r1, #2147483648	; 0x80000000
 80002e8:	ea4f 3101 	mov.w	r1, r1, lsl #12
 80002ec:	f44f 1c80 	mov.w	ip, #1048576	; 0x100000
 80002f0:	ea4c 3111 	orr.w	r1, ip, r1, lsr #12
 80002f4:	d002      	beq.n	80002fc <__adddf3+0x70>
 80002f6:	4240      	negs	r0, r0
 80002f8:	eb61 0141 	sbc.w	r1, r1, r1, lsl #1
 80002fc:	f013 4f00 	tst.w	r3, #2147483648	; 0x80000000
 8000300:	ea4f 3303 	mov.w	r3, r3, lsl #12
 8000304:	ea4c 3313 	orr.w	r3, ip, r3, lsr #12
 8000308:	d002      	beq.n	8000310 <__adddf3+0x84>
 800030a:	4252      	negs	r2, r2
 800030c:	eb63 0343 	sbc.w	r3, r3, r3, lsl #1
 8000310:	ea94 0f05 	teq	r4, r5
 8000314:	f000 80a7 	beq.w	8000466 <__adddf3+0x1da>
 8000318:	f1a4 0401 	sub.w	r4, r4, #1
 800031c:	f1d5 0e20 	rsbs	lr, r5, #32
 8000320:	db0d      	blt.n	800033e <__adddf3+0xb2>
 8000322:	fa02 fc0e 	lsl.w	ip, r2, lr
 8000326:	fa22 f205 	lsr.w	r2, r2, r5
 800032a:	1880      	adds	r0, r0, r2
 800032c:	f141 0100 	adc.w	r1, r1, #0
 8000330:	fa03 f20e 	lsl.w	r2, r3, lr
 8000334:	1880      	adds	r0, r0, r2
 8000336:	fa43 f305 	asr.w	r3, r3, r5
 800033a:	4159      	adcs	r1, r3
 800033c:	e00e      	b.n	800035c <__adddf3+0xd0>
 800033e:	f1a5 0520 	sub.w	r5, r5, #32
 8000342:	f10e 0e20 	add.w	lr, lr, #32
 8000346:	2a01      	cmp	r2, #1
 8000348:	fa03 fc0e 	lsl.w	ip, r3, lr
 800034c:	bf28      	it	cs
 800034e:	f04c 0c02 	orrcs.w	ip, ip, #2
 8000352:	fa43 f305 	asr.w	r3, r3, r5
 8000356:	18c0      	adds	r0, r0, r3
 8000358:	eb51 71e3 	adcs.w	r1, r1, r3, asr #31
 800035c:	f001 4500 	and.w	r5, r1, #2147483648	; 0x80000000
 8000360:	d507      	bpl.n	8000372 <__adddf3+0xe6>
 8000362:	f04f 0e00 	mov.w	lr, #0
 8000366:	f1dc 0c00 	rsbs	ip, ip, #0
 800036a:	eb7e 0000 	sbcs.w	r0, lr, r0
 800036e:	eb6e 0101 	sbc.w	r1, lr, r1
 8000372:	f5b1 1f80 	cmp.w	r1, #1048576	; 0x100000
 8000376:	d31b      	bcc.n	80003b0 <__adddf3+0x124>
 8000378:	f5b1 1f00 	cmp.w	r1, #2097152	; 0x200000
 800037c:	d30c      	bcc.n	8000398 <__adddf3+0x10c>
 800037e:	0849      	lsrs	r1, r1, #1
 8000380:	ea5f 0030 	movs.w	r0, r0, rrx
 8000384:	ea4f 0c3c 	mov.w	ip, ip, rrx
 8000388:	f104 0401 	add.w	r4, r4, #1
 800038c:	ea4f 5244 	mov.w	r2, r4, lsl #21
 8000390:	f512 0f80 	cmn.w	r2, #4194304	; 0x400000
 8000394:	f080 809a 	bcs.w	80004cc <__adddf3+0x240>
 8000398:	f1bc 4f00 	cmp.w	ip, #2147483648	; 0x80000000
 800039c:	bf08      	it	eq
 800039e:	ea5f 0c50 	movseq.w	ip, r0, lsr #1
 80003a2:	f150 0000 	adcs.w	r0, r0, #0
 80003a6:	eb41 5104 	adc.w	r1, r1, r4, lsl #20
 80003aa:	ea41 0105 	orr.w	r1, r1, r5
 80003ae:	bd30      	pop	{r4, r5, pc}
 80003b0:	ea5f 0c4c 	movs.w	ip, ip, lsl #1
 80003b4:	4140      	adcs	r0, r0
 80003b6:	eb41 0101 	adc.w	r1, r1, r1
 80003ba:	3c01      	subs	r4, #1
 80003bc:	bf28      	it	cs
 80003be:	f5b1 1f80 	cmpcs.w	r1, #1048576	; 0x100000
 80003c2:	d2e9      	bcs.n	8000398 <__adddf3+0x10c>
 80003c4:	f091 0f00 	teq	r1, #0
 80003c8:	bf04      	itt	eq
 80003ca:	4601      	moveq	r1, r0
 80003cc:	2000      	moveq	r0, #0
 80003ce:	fab1 f381 	clz	r3, r1
 80003d2:	bf08      	it	eq
 80003d4:	3320      	addeq	r3, #32
 80003d6:	f1a3 030b 	sub.w	r3, r3, #11
 80003da:	f1b3 0220 	subs.w	r2, r3, #32
 80003de:	da0c      	bge.n	80003fa <__adddf3+0x16e>
 80003e0:	320c      	adds	r2, #12
 80003e2:	dd08      	ble.n	80003f6 <__adddf3+0x16a>
 80003e4:	f102 0c14 	add.w	ip, r2, #20
 80003e8:	f1c2 020c 	rsb	r2, r2, #12
 80003ec:	fa01 f00c 	lsl.w	r0, r1, ip
 80003f0:	fa21 f102 	lsr.w	r1, r1, r2
 80003f4:	e00c      	b.n	8000410 <__adddf3+0x184>
 80003f6:	f102 0214 	add.w	r2, r2, #20
 80003fa:	bfd8      	it	le
 80003fc:	f1c2 0c20 	rsble	ip, r2, #32
 8000400:	fa01 f102 	lsl.w	r1, r1, r2
 8000404:	fa20 fc0c 	lsr.w	ip, r0, ip
 8000408:	bfdc      	itt	le
 800040a:	ea41 010c 	orrle.w	r1, r1, ip
 800040e:	4090      	lslle	r0, r2
 8000410:	1ae4      	subs	r4, r4, r3
 8000412:	bfa2      	ittt	ge
 8000414:	eb01 5104 	addge.w	r1, r1, r4, lsl #20
 8000418:	4329      	orrge	r1, r5
 800041a:	bd30      	popge	{r4, r5, pc}
 800041c:	ea6f 0404 	mvn.w	r4, r4
 8000420:	3c1f      	subs	r4, #31
 8000422:	da1c      	bge.n	800045e <__adddf3+0x1d2>
 8000424:	340c      	adds	r4, #12
 8000426:	dc0e      	bgt.n	8000446 <__adddf3+0x1ba>
 8000428:	f104 0414 	add.w	r4, r4, #20
 800042c:	f1c4 0220 	rsb	r2, r4, #32
 8000430:	fa20 f004 	lsr.w	r0, r0, r4
 8000434:	fa01 f302 	lsl.w	r3, r1, r2
 8000438:	ea40 0003 	orr.w	r0, r0, r3
 800043c:	fa21 f304 	lsr.w	r3, r1, r4
 8000440:	ea45 0103 	orr.w	r1, r5, r3
 8000444:	bd30      	pop	{r4, r5, pc}
 8000446:	f1c4 040c 	rsb	r4, r4, #12
 800044a:	f1c4 0220 	rsb	r2, r4, #32
 800044e:	fa20 f002 	lsr.w	r0, r0, r2
 8000452:	fa01 f304 	lsl.w	r3, r1, r4
 8000456:	ea40 0003 	orr.w	r0, r0, r3
 800045a:	4629      	mov	r1, r5
 800045c:	bd30      	pop	{r4, r5, pc}
 800045e:	fa21 f004 	lsr.w	r0, r1, r4
 8000462:	4629      	mov	r1, r5
 8000464:	bd30      	pop	{r4, r5, pc}
 8000466:	f094 0f00 	teq	r4, #0
 800046a:	f483 1380 	eor.w	r3, r3, #1048576	; 0x100000
 800046e:	bf06      	itte	eq
 8000470:	f481 1180 	eoreq.w	r1, r1, #1048576	; 0x100000
 8000474:	3401      	addeq	r4, #1
 8000476:	3d01      	subne	r5, #1
 8000478:	e74e      	b.n	8000318 <__adddf3+0x8c>
 800047a:	ea7f 5c64 	mvns.w	ip, r4, asr #21
 800047e:	bf18      	it	ne
 8000480:	ea7f 5c65 	mvnsne.w	ip, r5, asr #21
 8000484:	d029      	beq.n	80004da <__adddf3+0x24e>
 8000486:	ea94 0f05 	teq	r4, r5
 800048a:	bf08      	it	eq
 800048c:	ea90 0f02 	teqeq	r0, r2
 8000490:	d005      	beq.n	800049e <__adddf3+0x212>
 8000492:	ea54 0c00 	orrs.w	ip, r4, r0
 8000496:	bf04      	itt	eq
 8000498:	4619      	moveq	r1, r3
 800049a:	4610      	moveq	r0, r2
 800049c:	bd30      	pop	{r4, r5, pc}
 800049e:	ea91 0f03 	teq	r1, r3
 80004a2:	bf1e      	ittt	ne
 80004a4:	2100      	movne	r1, #0
 80004a6:	2000      	movne	r0, #0
 80004a8:	bd30      	popne	{r4, r5, pc}
 80004aa:	ea5f 5c54 	movs.w	ip, r4, lsr #21
 80004ae:	d105      	bne.n	80004bc <__adddf3+0x230>
 80004b0:	0040      	lsls	r0, r0, #1
 80004b2:	4149      	adcs	r1, r1
 80004b4:	bf28      	it	cs
 80004b6:	f041 4100 	orrcs.w	r1, r1, #2147483648	; 0x80000000
 80004ba:	bd30      	pop	{r4, r5, pc}
 80004bc:	f514 0480 	adds.w	r4, r4, #4194304	; 0x400000
 80004c0:	bf3c      	itt	cc
 80004c2:	f501 1180 	addcc.w	r1, r1, #1048576	; 0x100000
 80004c6:	bd30      	popcc	{r4, r5, pc}
 80004c8:	f001 4500 	and.w	r5, r1, #2147483648	; 0x80000000
 80004cc:	f045 41fe 	orr.w	r1, r5, #2130706432	; 0x7f000000
 80004d0:	f441 0170 	orr.w	r1, r1, #15728640	; 0xf00000
 80004d4:	f04f 0000 	mov.w	r0, #0
 80004d8:	bd30      	pop	{r4, r5, pc}
 80004da:	ea7f 5c64 	mvns.w	ip, r4, asr #21
 80004de:	bf1a      	itte	ne
 80004e0:	4619      	movne	r1, r3
 80004e2:	4610      	movne	r0, r2
 80004e4:	ea7f 5c65 	mvnseq.w	ip, r5, asr #21
 80004e8:	bf1c      	itt	ne
 80004ea:	460b      	movne	r3, r1
 80004ec:	4602      	movne	r2, r0
 80004ee:	ea50 3401 	orrs.w	r4, r0, r1, lsl #12
 80004f2:	bf06      	itte	eq
 80004f4:	ea52 3503 	orrseq.w	r5, r2, r3, lsl #12
 80004f8:	ea91 0f03 	teqeq	r1, r3
 80004fc:	f441 2100 	orrne.w	r1, r1, #524288	; 0x80000
 8000500:	bd30      	pop	{r4, r5, pc}
 8000502:	bf00      	nop

08000504 <__aeabi_ui2d>:
 8000504:	f090 0f00 	teq	r0, #0
 8000508:	bf04      	itt	eq
 800050a:	2100      	moveq	r1, #0
 800050c:	4770      	bxeq	lr
 800050e:	b530      	push	{r4, r5, lr}
 8000510:	f44f 6480 	mov.w	r4, #1024	; 0x400
 8000514:	f104 0432 	add.w	r4, r4, #50	; 0x32
 8000518:	f04f 0500 	mov.w	r5, #0
 800051c:	f04f 0100 	mov.w	r1, #0
 8000520:	e750      	b.n	80003c4 <__adddf3+0x138>
 8000522:	bf00      	nop

08000524 <__aeabi_i2d>:
 8000524:	f090 0f00 	teq	r0, #0
 8000528:	bf04      	itt	eq
 800052a:	2100      	moveq	r1, #0
 800052c:	4770      	bxeq	lr
 800052e:	b530      	push	{r4, r5, lr}
 8000530:	f44f 6480 	mov.w	r4, #1024	; 0x400
 8000534:	f104 0432 	add.w	r4, r4, #50	; 0x32
 8000538:	f010 4500 	ands.w	r5, r0, #2147483648	; 0x80000000
 800053c:	bf48      	it	mi
 800053e:	4240      	negmi	r0, r0
 8000540:	f04f 0100 	mov.w	r1, #0
 8000544:	e73e      	b.n	80003c4 <__adddf3+0x138>
 8000546:	bf00      	nop

08000548 <__aeabi_f2d>:
 8000548:	0042      	lsls	r2, r0, #1
 800054a:	ea4f 01e2 	mov.w	r1, r2, asr #3
 800054e:	ea4f 0131 	mov.w	r1, r1, rrx
 8000552:	ea4f 7002 	mov.w	r0, r2, lsl #28
 8000556:	bf1f      	itttt	ne
 8000558:	f012 437f 	andsne.w	r3, r2, #4278190080	; 0xff000000
 800055c:	f093 4f7f 	teqne	r3, #4278190080	; 0xff000000
 8000560:	f081 5160 	eorne.w	r1, r1, #939524096	; 0x38000000
 8000564:	4770      	bxne	lr
 8000566:	f032 427f 	bics.w	r2, r2, #4278190080	; 0xff000000
 800056a:	bf08      	it	eq
 800056c:	4770      	bxeq	lr
 800056e:	f093 4f7f 	teq	r3, #4278190080	; 0xff000000
 8000572:	bf04      	itt	eq
 8000574:	f441 2100 	orreq.w	r1, r1, #524288	; 0x80000
 8000578:	4770      	bxeq	lr
 800057a:	b530      	push	{r4, r5, lr}
 800057c:	f44f 7460 	mov.w	r4, #896	; 0x380
 8000580:	f001 4500 	and.w	r5, r1, #2147483648	; 0x80000000
 8000584:	f021 4100 	bic.w	r1, r1, #2147483648	; 0x80000000
 8000588:	e71c      	b.n	80003c4 <__adddf3+0x138>
 800058a:	bf00      	nop

0800058c <__aeabi_ul2d>:
 800058c:	ea50 0201 	orrs.w	r2, r0, r1
 8000590:	bf08      	it	eq
 8000592:	4770      	bxeq	lr
 8000594:	b530      	push	{r4, r5, lr}
 8000596:	f04f 0500 	mov.w	r5, #0
 800059a:	e00a      	b.n	80005b2 <__aeabi_l2d+0x16>

0800059c <__aeabi_l2d>:
 800059c:	ea50 0201 	orrs.w	r2, r0, r1
 80005a0:	bf08      	it	eq
 80005a2:	4770      	bxeq	lr
 80005a4:	b530      	push	{r4, r5, lr}
 80005a6:	f011 4500 	ands.w	r5, r1, #2147483648	; 0x80000000
 80005aa:	d502      	bpl.n	80005b2 <__aeabi_l2d+0x16>
 80005ac:	4240      	negs	r0, r0
 80005ae:	eb61 0141 	sbc.w	r1, r1, r1, lsl #1
 80005b2:	f44f 6480 	mov.w	r4, #1024	; 0x400
 80005b6:	f104 0432 	add.w	r4, r4, #50	; 0x32
 80005ba:	ea5f 5c91 	movs.w	ip, r1, lsr #22
 80005be:	f43f aed8 	beq.w	8000372 <__adddf3+0xe6>
 80005c2:	f04f 0203 	mov.w	r2, #3
 80005c6:	ea5f 0cdc 	movs.w	ip, ip, lsr #3
 80005ca:	bf18      	it	ne
 80005cc:	3203      	addne	r2, #3
 80005ce:	ea5f 0cdc 	movs.w	ip, ip, lsr #3
 80005d2:	bf18      	it	ne
 80005d4:	3203      	addne	r2, #3
 80005d6:	eb02 02dc 	add.w	r2, r2, ip, lsr #3
 80005da:	f1c2 0320 	rsb	r3, r2, #32
 80005de:	fa00 fc03 	lsl.w	ip, r0, r3
 80005e2:	fa20 f002 	lsr.w	r0, r0, r2
 80005e6:	fa01 fe03 	lsl.w	lr, r1, r3
 80005ea:	ea40 000e 	orr.w	r0, r0, lr
 80005ee:	fa21 f102 	lsr.w	r1, r1, r2
 80005f2:	4414      	add	r4, r2
 80005f4:	e6bd      	b.n	8000372 <__adddf3+0xe6>
 80005f6:	bf00      	nop

080005f8 <__aeabi_dmul>:
 80005f8:	b570      	push	{r4, r5, r6, lr}
 80005fa:	f04f 0cff 	mov.w	ip, #255	; 0xff
 80005fe:	f44c 6ce0 	orr.w	ip, ip, #1792	; 0x700
 8000602:	ea1c 5411 	ands.w	r4, ip, r1, lsr #20
 8000606:	bf1d      	ittte	ne
 8000608:	ea1c 5513 	andsne.w	r5, ip, r3, lsr #20
 800060c:	ea94 0f0c 	teqne	r4, ip
 8000610:	ea95 0f0c 	teqne	r5, ip
 8000614:	f000 f8de 	bleq	80007d4 <__aeabi_dmul+0x1dc>
 8000618:	442c      	add	r4, r5
 800061a:	ea81 0603 	eor.w	r6, r1, r3
 800061e:	ea21 514c 	bic.w	r1, r1, ip, lsl #21
 8000622:	ea23 534c 	bic.w	r3, r3, ip, lsl #21
 8000626:	ea50 3501 	orrs.w	r5, r0, r1, lsl #12
 800062a:	bf18      	it	ne
 800062c:	ea52 3503 	orrsne.w	r5, r2, r3, lsl #12
 8000630:	f441 1180 	orr.w	r1, r1, #1048576	; 0x100000
 8000634:	f443 1380 	orr.w	r3, r3, #1048576	; 0x100000
 8000638:	d038      	beq.n	80006ac <__aeabi_dmul+0xb4>
 800063a:	fba0 ce02 	umull	ip, lr, r0, r2
 800063e:	f04f 0500 	mov.w	r5, #0
 8000642:	fbe1 e502 	umlal	lr, r5, r1, r2
 8000646:	f006 4200 	and.w	r2, r6, #2147483648	; 0x80000000
 800064a:	fbe0 e503 	umlal	lr, r5, r0, r3
 800064e:	f04f 0600 	mov.w	r6, #0
 8000652:	fbe1 5603 	umlal	r5, r6, r1, r3
 8000656:	f09c 0f00 	teq	ip, #0
 800065a:	bf18      	it	ne
 800065c:	f04e 0e01 	orrne.w	lr, lr, #1
 8000660:	f1a4 04ff 	sub.w	r4, r4, #255	; 0xff
 8000664:	f5b6 7f00 	cmp.w	r6, #512	; 0x200
 8000668:	f564 7440 	sbc.w	r4, r4, #768	; 0x300
 800066c:	d204      	bcs.n	8000678 <__aeabi_dmul+0x80>
 800066e:	ea5f 0e4e 	movs.w	lr, lr, lsl #1
 8000672:	416d      	adcs	r5, r5
 8000674:	eb46 0606 	adc.w	r6, r6, r6
 8000678:	ea42 21c6 	orr.w	r1, r2, r6, lsl #11
 800067c:	ea41 5155 	orr.w	r1, r1, r5, lsr #21
 8000680:	ea4f 20c5 	mov.w	r0, r5, lsl #11
 8000684:	ea40 505e 	orr.w	r0, r0, lr, lsr #21
 8000688:	ea4f 2ece 	mov.w	lr, lr, lsl #11
 800068c:	f1b4 0cfd 	subs.w	ip, r4, #253	; 0xfd
 8000690:	bf88      	it	hi
 8000692:	f5bc 6fe0 	cmphi.w	ip, #1792	; 0x700
 8000696:	d81e      	bhi.n	80006d6 <__aeabi_dmul+0xde>
 8000698:	f1be 4f00 	cmp.w	lr, #2147483648	; 0x80000000
 800069c:	bf08      	it	eq
 800069e:	ea5f 0e50 	movseq.w	lr, r0, lsr #1
 80006a2:	f150 0000 	adcs.w	r0, r0, #0
 80006a6:	eb41 5104 	adc.w	r1, r1, r4, lsl #20
 80006aa:	bd70      	pop	{r4, r5, r6, pc}
 80006ac:	f006 4600 	and.w	r6, r6, #2147483648	; 0x80000000
 80006b0:	ea46 0101 	orr.w	r1, r6, r1
 80006b4:	ea40 0002 	orr.w	r0, r0, r2
 80006b8:	ea81 0103 	eor.w	r1, r1, r3
 80006bc:	ebb4 045c 	subs.w	r4, r4, ip, lsr #1
 80006c0:	bfc2      	ittt	gt
 80006c2:	ebd4 050c 	rsbsgt	r5, r4, ip
 80006c6:	ea41 5104 	orrgt.w	r1, r1, r4, lsl #20
 80006ca:	bd70      	popgt	{r4, r5, r6, pc}
 80006cc:	f441 1180 	orr.w	r1, r1, #1048576	; 0x100000
 80006d0:	f04f 0e00 	mov.w	lr, #0
 80006d4:	3c01      	subs	r4, #1
 80006d6:	f300 80ab 	bgt.w	8000830 <__aeabi_dmul+0x238>
 80006da:	f114 0f36 	cmn.w	r4, #54	; 0x36
 80006de:	bfde      	ittt	le
 80006e0:	2000      	movle	r0, #0
 80006e2:	f001 4100 	andle.w	r1, r1, #2147483648	; 0x80000000
 80006e6:	bd70      	pople	{r4, r5, r6, pc}
 80006e8:	f1c4 0400 	rsb	r4, r4, #0
 80006ec:	3c20      	subs	r4, #32
 80006ee:	da35      	bge.n	800075c <__aeabi_dmul+0x164>
 80006f0:	340c      	adds	r4, #12
 80006f2:	dc1b      	bgt.n	800072c <__aeabi_dmul+0x134>
 80006f4:	f104 0414 	add.w	r4, r4, #20
 80006f8:	f1c4 0520 	rsb	r5, r4, #32
 80006fc:	fa00 f305 	lsl.w	r3, r0, r5
 8000700:	fa20 f004 	lsr.w	r0, r0, r4
 8000704:	fa01 f205 	lsl.w	r2, r1, r5
 8000708:	ea40 0002 	orr.w	r0, r0, r2
 800070c:	f001 4200 	and.w	r2, r1, #2147483648	; 0x80000000
 8000710:	f021 4100 	bic.w	r1, r1, #2147483648	; 0x80000000
 8000714:	eb10 70d3 	adds.w	r0, r0, r3, lsr #31
 8000718:	fa21 f604 	lsr.w	r6, r1, r4
 800071c:	eb42 0106 	adc.w	r1, r2, r6
 8000720:	ea5e 0e43 	orrs.w	lr, lr, r3, lsl #1
 8000724:	bf08      	it	eq
 8000726:	ea20 70d3 	biceq.w	r0, r0, r3, lsr #31
 800072a:	bd70      	pop	{r4, r5, r6, pc}
 800072c:	f1c4 040c 	rsb	r4, r4, #12
 8000730:	f1c4 0520 	rsb	r5, r4, #32
 8000734:	fa00 f304 	lsl.w	r3, r0, r4
 8000738:	fa20 f005 	lsr.w	r0, r0, r5
 800073c:	fa01 f204 	lsl.w	r2, r1, r4
 8000740:	ea40 0002 	orr.w	r0, r0, r2
 8000744:	f001 4100 	and.w	r1, r1, #2147483648	; 0x80000000
 8000748:	eb10 70d3 	adds.w	r0, r0, r3, lsr #31
 800074c:	f141 0100 	adc.w	r1, r1, #0
 8000750:	ea5e 0e43 	orrs.w	lr, lr, r3, lsl #1
 8000754:	bf08      	it	eq
 8000756:	ea20 70d3 	biceq.w	r0, r0, r3, lsr #31
 800075a:	bd70      	pop	{r4, r5, r6, pc}
 800075c:	f1c4 0520 	rsb	r5, r4, #32
 8000760:	fa00 f205 	lsl.w	r2, r0, r5
 8000764:	ea4e 0e02 	orr.w	lr, lr, r2
 8000768:	fa20 f304 	lsr.w	r3, r0, r4
 800076c:	fa01 f205 	lsl.w	r2, r1, r5
 8000770:	ea43 0302 	orr.w	r3, r3, r2
 8000774:	fa21 f004 	lsr.w	r0, r1, r4
 8000778:	f001 4100 	and.w	r1, r1, #2147483648	; 0x80000000
 800077c:	fa21 f204 	lsr.w	r2, r1, r4
 8000780:	ea20 0002 	bic.w	r0, r0, r2
 8000784:	eb00 70d3 	add.w	r0, r0, r3, lsr #31
 8000788:	ea5e 0e43 	orrs.w	lr, lr, r3, lsl #1
 800078c:	bf08      	it	eq
 800078e:	ea20 70d3 	biceq.w	r0, r0, r3, lsr #31
 8000792:	bd70      	pop	{r4, r5, r6, pc}
 8000794:	f094 0f00 	teq	r4, #0
 8000798:	d10f      	bne.n	80007ba <__aeabi_dmul+0x1c2>
 800079a:	f001 4600 	and.w	r6, r1, #2147483648	; 0x80000000
 800079e:	0040      	lsls	r0, r0, #1
 80007a0:	eb41 0101 	adc.w	r1, r1, r1
 80007a4:	f411 1f80 	tst.w	r1, #1048576	; 0x100000
 80007a8:	bf08      	it	eq
 80007aa:	3c01      	subeq	r4, #1
 80007ac:	d0f7      	beq.n	800079e <__aeabi_dmul+0x1a6>
 80007ae:	ea41 0106 	orr.w	r1, r1, r6
 80007b2:	f095 0f00 	teq	r5, #0
 80007b6:	bf18      	it	ne
 80007b8:	4770      	bxne	lr
 80007ba:	f003 4600 	and.w	r6, r3, #2147483648	; 0x80000000
 80007be:	0052      	lsls	r2, r2, #1
 80007c0:	eb43 0303 	adc.w	r3, r3, r3
 80007c4:	f413 1f80 	tst.w	r3, #1048576	; 0x100000
 80007c8:	bf08      	it	eq
 80007ca:	3d01      	subeq	r5, #1
 80007cc:	d0f7      	beq.n	80007be <__aeabi_dmul+0x1c6>
 80007ce:	ea43 0306 	orr.w	r3, r3, r6
 80007d2:	4770      	bx	lr
 80007d4:	ea94 0f0c 	teq	r4, ip
 80007d8:	ea0c 5513 	and.w	r5, ip, r3, lsr #20
 80007dc:	bf18      	it	ne
 80007de:	ea95 0f0c 	teqne	r5, ip
 80007e2:	d00c      	beq.n	80007fe <__aeabi_dmul+0x206>
 80007e4:	ea50 0641 	orrs.w	r6, r0, r1, lsl #1
 80007e8:	bf18      	it	ne
 80007ea:	ea52 0643 	orrsne.w	r6, r2, r3, lsl #1
 80007ee:	d1d1      	bne.n	8000794 <__aeabi_dmul+0x19c>
 80007f0:	ea81 0103 	eor.w	r1, r1, r3
 80007f4:	f001 4100 	and.w	r1, r1, #2147483648	; 0x80000000
 80007f8:	f04f 0000 	mov.w	r0, #0
 80007fc:	bd70      	pop	{r4, r5, r6, pc}
 80007fe:	ea50 0641 	orrs.w	r6, r0, r1, lsl #1
 8000802:	bf06      	itte	eq
 8000804:	4610      	moveq	r0, r2
 8000806:	4619      	moveq	r1, r3
 8000808:	ea52 0643 	orrsne.w	r6, r2, r3, lsl #1
 800080c:	d019      	beq.n	8000842 <__aeabi_dmul+0x24a>
 800080e:	ea94 0f0c 	teq	r4, ip
 8000812:	d102      	bne.n	800081a <__aeabi_dmul+0x222>
 8000814:	ea50 3601 	orrs.w	r6, r0, r1, lsl #12
 8000818:	d113      	bne.n	8000842 <__aeabi_dmul+0x24a>
 800081a:	ea95 0f0c 	teq	r5, ip
 800081e:	d105      	bne.n	800082c <__aeabi_dmul+0x234>
 8000820:	ea52 3603 	orrs.w	r6, r2, r3, lsl #12
 8000824:	bf1c      	itt	ne
 8000826:	4610      	movne	r0, r2
 8000828:	4619      	movne	r1, r3
 800082a:	d10a      	bne.n	8000842 <__aeabi_dmul+0x24a>
 800082c:	ea81 0103 	eor.w	r1, r1, r3
 8000830:	f001 4100 	and.w	r1, r1, #2147483648	; 0x80000000
 8000834:	f041 41fe 	orr.w	r1, r1, #2130706432	; 0x7f000000
 8000838:	f441 0170 	orr.w	r1, r1, #15728640	; 0xf00000
 800083c:	f04f 0000 	mov.w	r0, #0
 8000840:	bd70      	pop	{r4, r5, r6, pc}
 8000842:	f041 41fe 	orr.w	r1, r1, #2130706432	; 0x7f000000
 8000846:	f441 0178 	orr.w	r1, r1, #16252928	; 0xf80000
 800084a:	bd70      	pop	{r4, r5, r6, pc}

0800084c <__aeabi_ddiv>:
 800084c:	b570      	push	{r4, r5, r6, lr}
 800084e:	f04f 0cff 	mov.w	ip, #255	; 0xff
 8000852:	f44c 6ce0 	orr.w	ip, ip, #1792	; 0x700
 8000856:	ea1c 5411 	ands.w	r4, ip, r1, lsr #20
 800085a:	bf1d      	ittte	ne
 800085c:	ea1c 5513 	andsne.w	r5, ip, r3, lsr #20
 8000860:	ea94 0f0c 	teqne	r4, ip
 8000864:	ea95 0f0c 	teqne	r5, ip
 8000868:	f000 f8a7 	bleq	80009ba <__aeabi_ddiv+0x16e>
 800086c:	eba4 0405 	sub.w	r4, r4, r5
 8000870:	ea81 0e03 	eor.w	lr, r1, r3
 8000874:	ea52 3503 	orrs.w	r5, r2, r3, lsl #12
 8000878:	ea4f 3101 	mov.w	r1, r1, lsl #12
 800087c:	f000 8088 	beq.w	8000990 <__aeabi_ddiv+0x144>
 8000880:	ea4f 3303 	mov.w	r3, r3, lsl #12
 8000884:	f04f 5580 	mov.w	r5, #268435456	; 0x10000000
 8000888:	ea45 1313 	orr.w	r3, r5, r3, lsr #4
 800088c:	ea43 6312 	orr.w	r3, r3, r2, lsr #24
 8000890:	ea4f 2202 	mov.w	r2, r2, lsl #8
 8000894:	ea45 1511 	orr.w	r5, r5, r1, lsr #4
 8000898:	ea45 6510 	orr.w	r5, r5, r0, lsr #24
 800089c:	ea4f 2600 	mov.w	r6, r0, lsl #8
 80008a0:	f00e 4100 	and.w	r1, lr, #2147483648	; 0x80000000
 80008a4:	429d      	cmp	r5, r3
 80008a6:	bf08      	it	eq
 80008a8:	4296      	cmpeq	r6, r2
 80008aa:	f144 04fd 	adc.w	r4, r4, #253	; 0xfd
 80008ae:	f504 7440 	add.w	r4, r4, #768	; 0x300
 80008b2:	d202      	bcs.n	80008ba <__aeabi_ddiv+0x6e>
 80008b4:	085b      	lsrs	r3, r3, #1
 80008b6:	ea4f 0232 	mov.w	r2, r2, rrx
 80008ba:	1ab6      	subs	r6, r6, r2
 80008bc:	eb65 0503 	sbc.w	r5, r5, r3
 80008c0:	085b      	lsrs	r3, r3, #1
 80008c2:	ea4f 0232 	mov.w	r2, r2, rrx
 80008c6:	f44f 1080 	mov.w	r0, #1048576	; 0x100000
 80008ca:	f44f 2c00 	mov.w	ip, #524288	; 0x80000
 80008ce:	ebb6 0e02 	subs.w	lr, r6, r2
 80008d2:	eb75 0e03 	sbcs.w	lr, r5, r3
 80008d6:	bf22      	ittt	cs
 80008d8:	1ab6      	subcs	r6, r6, r2
 80008da:	4675      	movcs	r5, lr
 80008dc:	ea40 000c 	orrcs.w	r0, r0, ip
 80008e0:	085b      	lsrs	r3, r3, #1
 80008e2:	ea4f 0232 	mov.w	r2, r2, rrx
 80008e6:	ebb6 0e02 	subs.w	lr, r6, r2
 80008ea:	eb75 0e03 	sbcs.w	lr, r5, r3
 80008ee:	bf22      	ittt	cs
 80008f0:	1ab6      	subcs	r6, r6, r2
 80008f2:	4675      	movcs	r5, lr
 80008f4:	ea40 005c 	orrcs.w	r0, r0, ip, lsr #1
 80008f8:	085b      	lsrs	r3, r3, #1
 80008fa:	ea4f 0232 	mov.w	r2, r2, rrx
 80008fe:	ebb6 0e02 	subs.w	lr, r6, r2
 8000902:	eb75 0e03 	sbcs.w	lr, r5, r3
 8000906:	bf22      	ittt	cs
 8000908:	1ab6      	subcs	r6, r6, r2
 800090a:	4675      	movcs	r5, lr
 800090c:	ea40 009c 	orrcs.w	r0, r0, ip, lsr #2
 8000910:	085b      	lsrs	r3, r3, #1
 8000912:	ea4f 0232 	mov.w	r2, r2, rrx
 8000916:	ebb6 0e02 	subs.w	lr, r6, r2
 800091a:	eb75 0e03 	sbcs.w	lr, r5, r3
 800091e:	bf22      	ittt	cs
 8000920:	1ab6      	subcs	r6, r6, r2
 8000922:	4675      	movcs	r5, lr
 8000924:	ea40 00dc 	orrcs.w	r0, r0, ip, lsr #3
 8000928:	ea55 0e06 	orrs.w	lr, r5, r6
 800092c:	d018      	beq.n	8000960 <__aeabi_ddiv+0x114>
 800092e:	ea4f 1505 	mov.w	r5, r5, lsl #4
 8000932:	ea45 7516 	orr.w	r5, r5, r6, lsr #28
 8000936:	ea4f 1606 	mov.w	r6, r6, lsl #4
 800093a:	ea4f 03c3 	mov.w	r3, r3, lsl #3
 800093e:	ea43 7352 	orr.w	r3, r3, r2, lsr #29
 8000942:	ea4f 02c2 	mov.w	r2, r2, lsl #3
 8000946:	ea5f 1c1c 	movs.w	ip, ip, lsr #4
 800094a:	d1c0      	bne.n	80008ce <__aeabi_ddiv+0x82>
 800094c:	f411 1f80 	tst.w	r1, #1048576	; 0x100000
 8000950:	d10b      	bne.n	800096a <__aeabi_ddiv+0x11e>
 8000952:	ea41 0100 	orr.w	r1, r1, r0
 8000956:	f04f 0000 	mov.w	r0, #0
 800095a:	f04f 4c00 	mov.w	ip, #2147483648	; 0x80000000
 800095e:	e7b6      	b.n	80008ce <__aeabi_ddiv+0x82>
 8000960:	f411 1f80 	tst.w	r1, #1048576	; 0x100000
 8000964:	bf04      	itt	eq
 8000966:	4301      	orreq	r1, r0
 8000968:	2000      	moveq	r0, #0
 800096a:	f1b4 0cfd 	subs.w	ip, r4, #253	; 0xfd
 800096e:	bf88      	it	hi
 8000970:	f5bc 6fe0 	cmphi.w	ip, #1792	; 0x700
 8000974:	f63f aeaf 	bhi.w	80006d6 <__aeabi_dmul+0xde>
 8000978:	ebb5 0c03 	subs.w	ip, r5, r3
 800097c:	bf04      	itt	eq
 800097e:	ebb6 0c02 	subseq.w	ip, r6, r2
 8000982:	ea5f 0c50 	movseq.w	ip, r0, lsr #1
 8000986:	f150 0000 	adcs.w	r0, r0, #0
 800098a:	eb41 5104 	adc.w	r1, r1, r4, lsl #20
 800098e:	bd70      	pop	{r4, r5, r6, pc}
 8000990:	f00e 4e00 	and.w	lr, lr, #2147483648	; 0x80000000
 8000994:	ea4e 3111 	orr.w	r1, lr, r1, lsr #12
 8000998:	eb14 045c 	adds.w	r4, r4, ip, lsr #1
 800099c:	bfc2      	ittt	gt
 800099e:	ebd4 050c 	rsbsgt	r5, r4, ip
 80009a2:	ea41 5104 	orrgt.w	r1, r1, r4, lsl #20
 80009a6:	bd70      	popgt	{r4, r5, r6, pc}
 80009a8:	f441 1180 	orr.w	r1, r1, #1048576	; 0x100000
 80009ac:	f04f 0e00 	mov.w	lr, #0
 80009b0:	3c01      	subs	r4, #1
 80009b2:	e690      	b.n	80006d6 <__aeabi_dmul+0xde>
 80009b4:	ea45 0e06 	orr.w	lr, r5, r6
 80009b8:	e68d      	b.n	80006d6 <__aeabi_dmul+0xde>
 80009ba:	ea0c 5513 	and.w	r5, ip, r3, lsr #20
 80009be:	ea94 0f0c 	teq	r4, ip
 80009c2:	bf08      	it	eq
 80009c4:	ea95 0f0c 	teqeq	r5, ip
 80009c8:	f43f af3b 	beq.w	8000842 <__aeabi_dmul+0x24a>
 80009cc:	ea94 0f0c 	teq	r4, ip
 80009d0:	d10a      	bne.n	80009e8 <__aeabi_ddiv+0x19c>
 80009d2:	ea50 3401 	orrs.w	r4, r0, r1, lsl #12
 80009d6:	f47f af34 	bne.w	8000842 <__aeabi_dmul+0x24a>
 80009da:	ea95 0f0c 	teq	r5, ip
 80009de:	f47f af25 	bne.w	800082c <__aeabi_dmul+0x234>
 80009e2:	4610      	mov	r0, r2
 80009e4:	4619      	mov	r1, r3
 80009e6:	e72c      	b.n	8000842 <__aeabi_dmul+0x24a>
 80009e8:	ea95 0f0c 	teq	r5, ip
 80009ec:	d106      	bne.n	80009fc <__aeabi_ddiv+0x1b0>
 80009ee:	ea52 3503 	orrs.w	r5, r2, r3, lsl #12
 80009f2:	f43f aefd 	beq.w	80007f0 <__aeabi_dmul+0x1f8>
 80009f6:	4610      	mov	r0, r2
 80009f8:	4619      	mov	r1, r3
 80009fa:	e722      	b.n	8000842 <__aeabi_dmul+0x24a>
 80009fc:	ea50 0641 	orrs.w	r6, r0, r1, lsl #1
 8000a00:	bf18      	it	ne
 8000a02:	ea52 0643 	orrsne.w	r6, r2, r3, lsl #1
 8000a06:	f47f aec5 	bne.w	8000794 <__aeabi_dmul+0x19c>
 8000a0a:	ea50 0441 	orrs.w	r4, r0, r1, lsl #1
 8000a0e:	f47f af0d 	bne.w	800082c <__aeabi_dmul+0x234>
 8000a12:	ea52 0543 	orrs.w	r5, r2, r3, lsl #1
 8000a16:	f47f aeeb 	bne.w	80007f0 <__aeabi_dmul+0x1f8>
 8000a1a:	e712      	b.n	8000842 <__aeabi_dmul+0x24a>

08000a1c <__gedf2>:
 8000a1c:	f04f 3cff 	mov.w	ip, #4294967295
 8000a20:	e006      	b.n	8000a30 <__cmpdf2+0x4>
 8000a22:	bf00      	nop

08000a24 <__ledf2>:
 8000a24:	f04f 0c01 	mov.w	ip, #1
 8000a28:	e002      	b.n	8000a30 <__cmpdf2+0x4>
 8000a2a:	bf00      	nop

08000a2c <__cmpdf2>:
 8000a2c:	f04f 0c01 	mov.w	ip, #1
 8000a30:	f84d cd04 	str.w	ip, [sp, #-4]!
 8000a34:	ea4f 0c41 	mov.w	ip, r1, lsl #1
 8000a38:	ea7f 5c6c 	mvns.w	ip, ip, asr #21
 8000a3c:	ea4f 0c43 	mov.w	ip, r3, lsl #1
 8000a40:	bf18      	it	ne
 8000a42:	ea7f 5c6c 	mvnsne.w	ip, ip, asr #21
 8000a46:	d01b      	beq.n	8000a80 <__cmpdf2+0x54>
 8000a48:	b001      	add	sp, #4
 8000a4a:	ea50 0c41 	orrs.w	ip, r0, r1, lsl #1
 8000a4e:	bf0c      	ite	eq
 8000a50:	ea52 0c43 	orrseq.w	ip, r2, r3, lsl #1
 8000a54:	ea91 0f03 	teqne	r1, r3
 8000a58:	bf02      	ittt	eq
 8000a5a:	ea90 0f02 	teqeq	r0, r2
 8000a5e:	2000      	moveq	r0, #0
 8000a60:	4770      	bxeq	lr
 8000a62:	f110 0f00 	cmn.w	r0, #0
 8000a66:	ea91 0f03 	teq	r1, r3
 8000a6a:	bf58      	it	pl
 8000a6c:	4299      	cmppl	r1, r3
 8000a6e:	bf08      	it	eq
 8000a70:	4290      	cmpeq	r0, r2
 8000a72:	bf2c      	ite	cs
 8000a74:	17d8      	asrcs	r0, r3, #31
 8000a76:	ea6f 70e3 	mvncc.w	r0, r3, asr #31
 8000a7a:	f040 0001 	orr.w	r0, r0, #1
 8000a7e:	4770      	bx	lr
 8000a80:	ea4f 0c41 	mov.w	ip, r1, lsl #1
 8000a84:	ea7f 5c6c 	mvns.w	ip, ip, asr #21
 8000a88:	d102      	bne.n	8000a90 <__cmpdf2+0x64>
 8000a8a:	ea50 3c01 	orrs.w	ip, r0, r1, lsl #12
 8000a8e:	d107      	bne.n	8000aa0 <__cmpdf2+0x74>
 8000a90:	ea4f 0c43 	mov.w	ip, r3, lsl #1
 8000a94:	ea7f 5c6c 	mvns.w	ip, ip, asr #21
 8000a98:	d1d6      	bne.n	8000a48 <__cmpdf2+0x1c>
 8000a9a:	ea52 3c03 	orrs.w	ip, r2, r3, lsl #12
 8000a9e:	d0d3      	beq.n	8000a48 <__cmpdf2+0x1c>
 8000aa0:	f85d 0b04 	ldr.w	r0, [sp], #4
 8000aa4:	4770      	bx	lr
 8000aa6:	bf00      	nop

08000aa8 <__aeabi_cdrcmple>:
 8000aa8:	4684      	mov	ip, r0
 8000aaa:	4610      	mov	r0, r2
 8000aac:	4662      	mov	r2, ip
 8000aae:	468c      	mov	ip, r1
 8000ab0:	4619      	mov	r1, r3
 8000ab2:	4663      	mov	r3, ip
 8000ab4:	e000      	b.n	8000ab8 <__aeabi_cdcmpeq>
 8000ab6:	bf00      	nop

08000ab8 <__aeabi_cdcmpeq>:
 8000ab8:	b501      	push	{r0, lr}
 8000aba:	f7ff ffb7 	bl	8000a2c <__cmpdf2>
 8000abe:	2800      	cmp	r0, #0
 8000ac0:	bf48      	it	mi
 8000ac2:	f110 0f00 	cmnmi.w	r0, #0
 8000ac6:	bd01      	pop	{r0, pc}

08000ac8 <__aeabi_dcmpeq>:
 8000ac8:	f84d ed08 	str.w	lr, [sp, #-8]!
 8000acc:	f7ff fff4 	bl	8000ab8 <__aeabi_cdcmpeq>
 8000ad0:	bf0c      	ite	eq
 8000ad2:	2001      	moveq	r0, #1
 8000ad4:	2000      	movne	r0, #0
 8000ad6:	f85d fb08 	ldr.w	pc, [sp], #8
 8000ada:	bf00      	nop

08000adc <__aeabi_dcmplt>:
 8000adc:	f84d ed08 	str.w	lr, [sp, #-8]!
 8000ae0:	f7ff ffea 	bl	8000ab8 <__aeabi_cdcmpeq>
 8000ae4:	bf34      	ite	cc
 8000ae6:	2001      	movcc	r0, #1
 8000ae8:	2000      	movcs	r0, #0
 8000aea:	f85d fb08 	ldr.w	pc, [sp], #8
 8000aee:	bf00      	nop

08000af0 <__aeabi_dcmple>:
 8000af0:	f84d ed08 	str.w	lr, [sp, #-8]!
 8000af4:	f7ff ffe0 	bl	8000ab8 <__aeabi_cdcmpeq>
 8000af8:	bf94      	ite	ls
 8000afa:	2001      	movls	r0, #1
 8000afc:	2000      	movhi	r0, #0
 8000afe:	f85d fb08 	ldr.w	pc, [sp], #8
 8000b02:	bf00      	nop

08000b04 <__aeabi_dcmpge>:
 8000b04:	f84d ed08 	str.w	lr, [sp, #-8]!
 8000b08:	f7ff ffce 	bl	8000aa8 <__aeabi_cdrcmple>
 8000b0c:	bf94      	ite	ls
 8000b0e:	2001      	movls	r0, #1
 8000b10:	2000      	movhi	r0, #0
 8000b12:	f85d fb08 	ldr.w	pc, [sp], #8
 8000b16:	bf00      	nop

08000b18 <__aeabi_dcmpgt>:
 8000b18:	f84d ed08 	str.w	lr, [sp, #-8]!
 8000b1c:	f7ff ffc4 	bl	8000aa8 <__aeabi_cdrcmple>
 8000b20:	bf34      	ite	cc
 8000b22:	2001      	movcc	r0, #1
 8000b24:	2000      	movcs	r0, #0
 8000b26:	f85d fb08 	ldr.w	pc, [sp], #8
 8000b2a:	bf00      	nop

08000b2c <__aeabi_dcmpun>:
 8000b2c:	ea4f 0c41 	mov.w	ip, r1, lsl #1
 8000b30:	ea7f 5c6c 	mvns.w	ip, ip, asr #21
 8000b34:	d102      	bne.n	8000b3c <__aeabi_dcmpun+0x10>
 8000b36:	ea50 3c01 	orrs.w	ip, r0, r1, lsl #12
 8000b3a:	d10a      	bne.n	8000b52 <__aeabi_dcmpun+0x26>
 8000b3c:	ea4f 0c43 	mov.w	ip, r3, lsl #1
 8000b40:	ea7f 5c6c 	mvns.w	ip, ip, asr #21
 8000b44:	d102      	bne.n	8000b4c <__aeabi_dcmpun+0x20>
 8000b46:	ea52 3c03 	orrs.w	ip, r2, r3, lsl #12
 8000b4a:	d102      	bne.n	8000b52 <__aeabi_dcmpun+0x26>
 8000b4c:	f04f 0000 	mov.w	r0, #0
 8000b50:	4770      	bx	lr
 8000b52:	f04f 0001 	mov.w	r0, #1
 8000b56:	4770      	bx	lr

08000b58 <__aeabi_d2iz>:
 8000b58:	ea4f 0241 	mov.w	r2, r1, lsl #1
 8000b5c:	f512 1200 	adds.w	r2, r2, #2097152	; 0x200000
 8000b60:	d215      	bcs.n	8000b8e <__aeabi_d2iz+0x36>
 8000b62:	d511      	bpl.n	8000b88 <__aeabi_d2iz+0x30>
 8000b64:	f46f 7378 	mvn.w	r3, #992	; 0x3e0
 8000b68:	ebb3 5262 	subs.w	r2, r3, r2, asr #21
 8000b6c:	d912      	bls.n	8000b94 <__aeabi_d2iz+0x3c>
 8000b6e:	ea4f 23c1 	mov.w	r3, r1, lsl #11
 8000b72:	f043 4300 	orr.w	r3, r3, #2147483648	; 0x80000000
 8000b76:	ea43 5350 	orr.w	r3, r3, r0, lsr #21
 8000b7a:	f011 4f00 	tst.w	r1, #2147483648	; 0x80000000
 8000b7e:	fa23 f002 	lsr.w	r0, r3, r2
 8000b82:	bf18      	it	ne
 8000b84:	4240      	negne	r0, r0
 8000b86:	4770      	bx	lr
 8000b88:	f04f 0000 	mov.w	r0, #0
 8000b8c:	4770      	bx	lr
 8000b8e:	ea50 3001 	orrs.w	r0, r0, r1, lsl #12
 8000b92:	d105      	bne.n	8000ba0 <__aeabi_d2iz+0x48>
 8000b94:	f011 4000 	ands.w	r0, r1, #2147483648	; 0x80000000
 8000b98:	bf08      	it	eq
 8000b9a:	f06f 4000 	mvneq.w	r0, #2147483648	; 0x80000000
 8000b9e:	4770      	bx	lr
 8000ba0:	f04f 0000 	mov.w	r0, #0
 8000ba4:	4770      	bx	lr
 8000ba6:	bf00      	nop

08000ba8 <__aeabi_d2f>:
 8000ba8:	ea4f 0241 	mov.w	r2, r1, lsl #1
 8000bac:	f1b2 43e0 	subs.w	r3, r2, #1879048192	; 0x70000000
 8000bb0:	bf24      	itt	cs
 8000bb2:	f5b3 1c00 	subscs.w	ip, r3, #2097152	; 0x200000
 8000bb6:	f1dc 5cfe 	rsbscs	ip, ip, #532676608	; 0x1fc00000
 8000bba:	d90d      	bls.n	8000bd8 <__aeabi_d2f+0x30>
 8000bbc:	f001 4c00 	and.w	ip, r1, #2147483648	; 0x80000000
 8000bc0:	ea4f 02c0 	mov.w	r2, r0, lsl #3
 8000bc4:	ea4c 7050 	orr.w	r0, ip, r0, lsr #29
 8000bc8:	f1b2 4f00 	cmp.w	r2, #2147483648	; 0x80000000
 8000bcc:	eb40 0083 	adc.w	r0, r0, r3, lsl #2
 8000bd0:	bf08      	it	eq
 8000bd2:	f020 0001 	biceq.w	r0, r0, #1
 8000bd6:	4770      	bx	lr
 8000bd8:	f011 4f80 	tst.w	r1, #1073741824	; 0x40000000
 8000bdc:	d121      	bne.n	8000c22 <__aeabi_d2f+0x7a>
 8000bde:	f113 7238 	adds.w	r2, r3, #48234496	; 0x2e00000
 8000be2:	bfbc      	itt	lt
 8000be4:	f001 4000 	andlt.w	r0, r1, #2147483648	; 0x80000000
 8000be8:	4770      	bxlt	lr
 8000bea:	f441 1180 	orr.w	r1, r1, #1048576	; 0x100000
 8000bee:	ea4f 5252 	mov.w	r2, r2, lsr #21
 8000bf2:	f1c2 0218 	rsb	r2, r2, #24
 8000bf6:	f1c2 0c20 	rsb	ip, r2, #32
 8000bfa:	fa10 f30c 	lsls.w	r3, r0, ip
 8000bfe:	fa20 f002 	lsr.w	r0, r0, r2
 8000c02:	bf18      	it	ne
 8000c04:	f040 0001 	orrne.w	r0, r0, #1
 8000c08:	ea4f 23c1 	mov.w	r3, r1, lsl #11
 8000c0c:	ea4f 23d3 	mov.w	r3, r3, lsr #11
 8000c10:	fa03 fc0c 	lsl.w	ip, r3, ip
 8000c14:	ea40 000c 	orr.w	r0, r0, ip
 8000c18:	fa23 f302 	lsr.w	r3, r3, r2
 8000c1c:	ea4f 0343 	mov.w	r3, r3, lsl #1
 8000c20:	e7cc      	b.n	8000bbc <__aeabi_d2f+0x14>
 8000c22:	ea7f 5362 	mvns.w	r3, r2, asr #21
 8000c26:	d107      	bne.n	8000c38 <__aeabi_d2f+0x90>
 8000c28:	ea50 3301 	orrs.w	r3, r0, r1, lsl #12
 8000c2c:	bf1e      	ittt	ne
 8000c2e:	f04f 40fe 	movne.w	r0, #2130706432	; 0x7f000000
 8000c32:	f440 0040 	orrne.w	r0, r0, #12582912	; 0xc00000
 8000c36:	4770      	bxne	lr
 8000c38:	f001 4000 	and.w	r0, r1, #2147483648	; 0x80000000
 8000c3c:	f040 40fe 	orr.w	r0, r0, #2130706432	; 0x7f000000
 8000c40:	f440 0000 	orr.w	r0, r0, #8388608	; 0x800000
 8000c44:	4770      	bx	lr
 8000c46:	bf00      	nop

08000c48 <__aeabi_uldivmod>:
 8000c48:	b953      	cbnz	r3, 8000c60 <__aeabi_uldivmod+0x18>
 8000c4a:	b94a      	cbnz	r2, 8000c60 <__aeabi_uldivmod+0x18>
 8000c4c:	2900      	cmp	r1, #0
 8000c4e:	bf08      	it	eq
 8000c50:	2800      	cmpeq	r0, #0
 8000c52:	bf1c      	itt	ne
 8000c54:	f04f 31ff 	movne.w	r1, #4294967295
 8000c58:	f04f 30ff 	movne.w	r0, #4294967295
 8000c5c:	f000 b974 	b.w	8000f48 <__aeabi_idiv0>
 8000c60:	f1ad 0c08 	sub.w	ip, sp, #8
 8000c64:	e96d ce04 	strd	ip, lr, [sp, #-16]!
 8000c68:	f000 f806 	bl	8000c78 <__udivmoddi4>
 8000c6c:	f8dd e004 	ldr.w	lr, [sp, #4]
 8000c70:	e9dd 2302 	ldrd	r2, r3, [sp, #8]
 8000c74:	b004      	add	sp, #16
 8000c76:	4770      	bx	lr

08000c78 <__udivmoddi4>:
 8000c78:	e92d 47f0 	stmdb	sp!, {r4, r5, r6, r7, r8, r9, sl, lr}
 8000c7c:	9d08      	ldr	r5, [sp, #32]
 8000c7e:	4604      	mov	r4, r0
 8000c80:	468e      	mov	lr, r1
 8000c82:	2b00      	cmp	r3, #0
 8000c84:	d14d      	bne.n	8000d22 <__udivmoddi4+0xaa>
 8000c86:	428a      	cmp	r2, r1
 8000c88:	4694      	mov	ip, r2
 8000c8a:	d969      	bls.n	8000d60 <__udivmoddi4+0xe8>
 8000c8c:	fab2 f282 	clz	r2, r2
 8000c90:	b152      	cbz	r2, 8000ca8 <__udivmoddi4+0x30>
 8000c92:	fa01 f302 	lsl.w	r3, r1, r2
 8000c96:	f1c2 0120 	rsb	r1, r2, #32
 8000c9a:	fa20 f101 	lsr.w	r1, r0, r1
 8000c9e:	fa0c fc02 	lsl.w	ip, ip, r2
 8000ca2:	ea41 0e03 	orr.w	lr, r1, r3
 8000ca6:	4094      	lsls	r4, r2
 8000ca8:	ea4f 481c 	mov.w	r8, ip, lsr #16
 8000cac:	0c21      	lsrs	r1, r4, #16
 8000cae:	fbbe f6f8 	udiv	r6, lr, r8
 8000cb2:	fa1f f78c 	uxth.w	r7, ip
 8000cb6:	fb08 e316 	mls	r3, r8, r6, lr
 8000cba:	ea41 4303 	orr.w	r3, r1, r3, lsl #16
 8000cbe:	fb06 f107 	mul.w	r1, r6, r7
 8000cc2:	4299      	cmp	r1, r3
 8000cc4:	d90a      	bls.n	8000cdc <__udivmoddi4+0x64>
 8000cc6:	eb1c 0303 	adds.w	r3, ip, r3
 8000cca:	f106 30ff 	add.w	r0, r6, #4294967295
 8000cce:	f080 811f 	bcs.w	8000f10 <__udivmoddi4+0x298>
 8000cd2:	4299      	cmp	r1, r3
 8000cd4:	f240 811c 	bls.w	8000f10 <__udivmoddi4+0x298>
 8000cd8:	3e02      	subs	r6, #2
 8000cda:	4463      	add	r3, ip
 8000cdc:	1a5b      	subs	r3, r3, r1
 8000cde:	b2a4      	uxth	r4, r4
 8000ce0:	fbb3 f0f8 	udiv	r0, r3, r8
 8000ce4:	fb08 3310 	mls	r3, r8, r0, r3
 8000ce8:	ea44 4403 	orr.w	r4, r4, r3, lsl #16
 8000cec:	fb00 f707 	mul.w	r7, r0, r7
 8000cf0:	42a7      	cmp	r7, r4
 8000cf2:	d90a      	bls.n	8000d0a <__udivmoddi4+0x92>
 8000cf4:	eb1c 0404 	adds.w	r4, ip, r4
 8000cf8:	f100 33ff 	add.w	r3, r0, #4294967295
 8000cfc:	f080 810a 	bcs.w	8000f14 <__udivmoddi4+0x29c>
 8000d00:	42a7      	cmp	r7, r4
 8000d02:	f240 8107 	bls.w	8000f14 <__udivmoddi4+0x29c>
 8000d06:	4464      	add	r4, ip
 8000d08:	3802      	subs	r0, #2
 8000d0a:	ea40 4006 	orr.w	r0, r0, r6, lsl #16
 8000d0e:	1be4      	subs	r4, r4, r7
 8000d10:	2600      	movs	r6, #0
 8000d12:	b11d      	cbz	r5, 8000d1c <__udivmoddi4+0xa4>
 8000d14:	40d4      	lsrs	r4, r2
 8000d16:	2300      	movs	r3, #0
 8000d18:	e9c5 4300 	strd	r4, r3, [r5]
 8000d1c:	4631      	mov	r1, r6
 8000d1e:	e8bd 87f0 	ldmia.w	sp!, {r4, r5, r6, r7, r8, r9, sl, pc}
 8000d22:	428b      	cmp	r3, r1
 8000d24:	d909      	bls.n	8000d3a <__udivmoddi4+0xc2>
 8000d26:	2d00      	cmp	r5, #0
 8000d28:	f000 80ef 	beq.w	8000f0a <__udivmoddi4+0x292>
 8000d2c:	2600      	movs	r6, #0
 8000d2e:	e9c5 0100 	strd	r0, r1, [r5]
 8000d32:	4630      	mov	r0, r6
 8000d34:	4631      	mov	r1, r6
 8000d36:	e8bd 87f0 	ldmia.w	sp!, {r4, r5, r6, r7, r8, r9, sl, pc}
 8000d3a:	fab3 f683 	clz	r6, r3
 8000d3e:	2e00      	cmp	r6, #0
 8000d40:	d14a      	bne.n	8000dd8 <__udivmoddi4+0x160>
 8000d42:	428b      	cmp	r3, r1
 8000d44:	d302      	bcc.n	8000d4c <__udivmoddi4+0xd4>
 8000d46:	4282      	cmp	r2, r0
 8000d48:	f200 80f9 	bhi.w	8000f3e <__udivmoddi4+0x2c6>
 8000d4c:	1a84      	subs	r4, r0, r2
 8000d4e:	eb61 0303 	sbc.w	r3, r1, r3
 8000d52:	2001      	movs	r0, #1
 8000d54:	469e      	mov	lr, r3
 8000d56:	2d00      	cmp	r5, #0
 8000d58:	d0e0      	beq.n	8000d1c <__udivmoddi4+0xa4>
 8000d5a:	e9c5 4e00 	strd	r4, lr, [r5]
 8000d5e:	e7dd      	b.n	8000d1c <__udivmoddi4+0xa4>
 8000d60:	b902      	cbnz	r2, 8000d64 <__udivmoddi4+0xec>
 8000d62:	deff      	udf	#255	; 0xff
 8000d64:	fab2 f282 	clz	r2, r2
 8000d68:	2a00      	cmp	r2, #0
 8000d6a:	f040 8092 	bne.w	8000e92 <__udivmoddi4+0x21a>
 8000d6e:	eba1 010c 	sub.w	r1, r1, ip
 8000d72:	ea4f 471c 	mov.w	r7, ip, lsr #16
 8000d76:	fa1f fe8c 	uxth.w	lr, ip
 8000d7a:	2601      	movs	r6, #1
 8000d7c:	0c20      	lsrs	r0, r4, #16
 8000d7e:	fbb1 f3f7 	udiv	r3, r1, r7
 8000d82:	fb07 1113 	mls	r1, r7, r3, r1
 8000d86:	ea40 4101 	orr.w	r1, r0, r1, lsl #16
 8000d8a:	fb0e f003 	mul.w	r0, lr, r3
 8000d8e:	4288      	cmp	r0, r1
 8000d90:	d908      	bls.n	8000da4 <__udivmoddi4+0x12c>
 8000d92:	eb1c 0101 	adds.w	r1, ip, r1
 8000d96:	f103 38ff 	add.w	r8, r3, #4294967295
 8000d9a:	d202      	bcs.n	8000da2 <__udivmoddi4+0x12a>
 8000d9c:	4288      	cmp	r0, r1
 8000d9e:	f200 80cb 	bhi.w	8000f38 <__udivmoddi4+0x2c0>
 8000da2:	4643      	mov	r3, r8
 8000da4:	1a09      	subs	r1, r1, r0
 8000da6:	b2a4      	uxth	r4, r4
 8000da8:	fbb1 f0f7 	udiv	r0, r1, r7
 8000dac:	fb07 1110 	mls	r1, r7, r0, r1
 8000db0:	ea44 4401 	orr.w	r4, r4, r1, lsl #16
 8000db4:	fb0e fe00 	mul.w	lr, lr, r0
 8000db8:	45a6      	cmp	lr, r4
 8000dba:	d908      	bls.n	8000dce <__udivmoddi4+0x156>
 8000dbc:	eb1c 0404 	adds.w	r4, ip, r4
 8000dc0:	f100 31ff 	add.w	r1, r0, #4294967295
 8000dc4:	d202      	bcs.n	8000dcc <__udivmoddi4+0x154>
 8000dc6:	45a6      	cmp	lr, r4
 8000dc8:	f200 80bb 	bhi.w	8000f42 <__udivmoddi4+0x2ca>
 8000dcc:	4608      	mov	r0, r1
 8000dce:	eba4 040e 	sub.w	r4, r4, lr
 8000dd2:	ea40 4003 	orr.w	r0, r0, r3, lsl #16
 8000dd6:	e79c      	b.n	8000d12 <__udivmoddi4+0x9a>
 8000dd8:	f1c6 0720 	rsb	r7, r6, #32
 8000ddc:	40b3      	lsls	r3, r6
 8000dde:	fa22 fc07 	lsr.w	ip, r2, r7
 8000de2:	ea4c 0c03 	orr.w	ip, ip, r3
 8000de6:	fa20 f407 	lsr.w	r4, r0, r7
 8000dea:	fa01 f306 	lsl.w	r3, r1, r6
 8000dee:	431c      	orrs	r4, r3
 8000df0:	40f9      	lsrs	r1, r7
 8000df2:	ea4f 491c 	mov.w	r9, ip, lsr #16
 8000df6:	fa00 f306 	lsl.w	r3, r0, r6
 8000dfa:	fbb1 f8f9 	udiv	r8, r1, r9
 8000dfe:	0c20      	lsrs	r0, r4, #16
 8000e00:	fa1f fe8c 	uxth.w	lr, ip
 8000e04:	fb09 1118 	mls	r1, r9, r8, r1
 8000e08:	ea40 4101 	orr.w	r1, r0, r1, lsl #16
 8000e0c:	fb08 f00e 	mul.w	r0, r8, lr
 8000e10:	4288      	cmp	r0, r1
 8000e12:	fa02 f206 	lsl.w	r2, r2, r6
 8000e16:	d90b      	bls.n	8000e30 <__udivmoddi4+0x1b8>
 8000e18:	eb1c 0101 	adds.w	r1, ip, r1
 8000e1c:	f108 3aff 	add.w	sl, r8, #4294967295
 8000e20:	f080 8088 	bcs.w	8000f34 <__udivmoddi4+0x2bc>
 8000e24:	4288      	cmp	r0, r1
 8000e26:	f240 8085 	bls.w	8000f34 <__udivmoddi4+0x2bc>
 8000e2a:	f1a8 0802 	sub.w	r8, r8, #2
 8000e2e:	4461      	add	r1, ip
 8000e30:	1a09      	subs	r1, r1, r0
 8000e32:	b2a4      	uxth	r4, r4
 8000e34:	fbb1 f0f9 	udiv	r0, r1, r9
 8000e38:	fb09 1110 	mls	r1, r9, r0, r1
 8000e3c:	ea44 4101 	orr.w	r1, r4, r1, lsl #16
 8000e40:	fb00 fe0e 	mul.w	lr, r0, lr
 8000e44:	458e      	cmp	lr, r1
 8000e46:	d908      	bls.n	8000e5a <__udivmoddi4+0x1e2>
 8000e48:	eb1c 0101 	adds.w	r1, ip, r1
 8000e4c:	f100 34ff 	add.w	r4, r0, #4294967295
 8000e50:	d26c      	bcs.n	8000f2c <__udivmoddi4+0x2b4>
 8000e52:	458e      	cmp	lr, r1
 8000e54:	d96a      	bls.n	8000f2c <__udivmoddi4+0x2b4>
 8000e56:	3802      	subs	r0, #2
 8000e58:	4461      	add	r1, ip
 8000e5a:	ea40 4008 	orr.w	r0, r0, r8, lsl #16
 8000e5e:	fba0 9402 	umull	r9, r4, r0, r2
 8000e62:	eba1 010e 	sub.w	r1, r1, lr
 8000e66:	42a1      	cmp	r1, r4
 8000e68:	46c8      	mov	r8, r9
 8000e6a:	46a6      	mov	lr, r4
 8000e6c:	d356      	bcc.n	8000f1c <__udivmoddi4+0x2a4>
 8000e6e:	d053      	beq.n	8000f18 <__udivmoddi4+0x2a0>
 8000e70:	b15d      	cbz	r5, 8000e8a <__udivmoddi4+0x212>
 8000e72:	ebb3 0208 	subs.w	r2, r3, r8
 8000e76:	eb61 010e 	sbc.w	r1, r1, lr
 8000e7a:	fa01 f707 	lsl.w	r7, r1, r7
 8000e7e:	fa22 f306 	lsr.w	r3, r2, r6
 8000e82:	40f1      	lsrs	r1, r6
 8000e84:	431f      	orrs	r7, r3
 8000e86:	e9c5 7100 	strd	r7, r1, [r5]
 8000e8a:	2600      	movs	r6, #0
 8000e8c:	4631      	mov	r1, r6
 8000e8e:	e8bd 87f0 	ldmia.w	sp!, {r4, r5, r6, r7, r8, r9, sl, pc}
 8000e92:	f1c2 0320 	rsb	r3, r2, #32
 8000e96:	40d8      	lsrs	r0, r3
 8000e98:	fa0c fc02 	lsl.w	ip, ip, r2
 8000e9c:	fa21 f303 	lsr.w	r3, r1, r3
 8000ea0:	4091      	lsls	r1, r2
 8000ea2:	4301      	orrs	r1, r0
 8000ea4:	ea4f 471c 	mov.w	r7, ip, lsr #16
 8000ea8:	fa1f fe8c 	uxth.w	lr, ip
 8000eac:	fbb3 f0f7 	udiv	r0, r3, r7
 8000eb0:	fb07 3610 	mls	r6, r7, r0, r3
 8000eb4:	0c0b      	lsrs	r3, r1, #16
 8000eb6:	ea43 4306 	orr.w	r3, r3, r6, lsl #16
 8000eba:	fb00 f60e 	mul.w	r6, r0, lr
 8000ebe:	429e      	cmp	r6, r3
 8000ec0:	fa04 f402 	lsl.w	r4, r4, r2
 8000ec4:	d908      	bls.n	8000ed8 <__udivmoddi4+0x260>
 8000ec6:	eb1c 0303 	adds.w	r3, ip, r3
 8000eca:	f100 38ff 	add.w	r8, r0, #4294967295
 8000ece:	d22f      	bcs.n	8000f30 <__udivmoddi4+0x2b8>
 8000ed0:	429e      	cmp	r6, r3
 8000ed2:	d92d      	bls.n	8000f30 <__udivmoddi4+0x2b8>
 8000ed4:	3802      	subs	r0, #2
 8000ed6:	4463      	add	r3, ip
 8000ed8:	1b9b      	subs	r3, r3, r6
 8000eda:	b289      	uxth	r1, r1
 8000edc:	fbb3 f6f7 	udiv	r6, r3, r7
 8000ee0:	fb07 3316 	mls	r3, r7, r6, r3
 8000ee4:	ea41 4103 	orr.w	r1, r1, r3, lsl #16
 8000ee8:	fb06 f30e 	mul.w	r3, r6, lr
 8000eec:	428b      	cmp	r3, r1
 8000eee:	d908      	bls.n	8000f02 <__udivmoddi4+0x28a>
 8000ef0:	eb1c 0101 	adds.w	r1, ip, r1
 8000ef4:	f106 38ff 	add.w	r8, r6, #4294967295
 8000ef8:	d216      	bcs.n	8000f28 <__udivmoddi4+0x2b0>
 8000efa:	428b      	cmp	r3, r1
 8000efc:	d914      	bls.n	8000f28 <__udivmoddi4+0x2b0>
 8000efe:	3e02      	subs	r6, #2
 8000f00:	4461      	add	r1, ip
 8000f02:	1ac9      	subs	r1, r1, r3
 8000f04:	ea46 4600 	orr.w	r6, r6, r0, lsl #16
 8000f08:	e738      	b.n	8000d7c <__udivmoddi4+0x104>
 8000f0a:	462e      	mov	r6, r5
 8000f0c:	4628      	mov	r0, r5
 8000f0e:	e705      	b.n	8000d1c <__udivmoddi4+0xa4>
 8000f10:	4606      	mov	r6, r0
 8000f12:	e6e3      	b.n	8000cdc <__udivmoddi4+0x64>
 8000f14:	4618      	mov	r0, r3
 8000f16:	e6f8      	b.n	8000d0a <__udivmoddi4+0x92>
 8000f18:	454b      	cmp	r3, r9
 8000f1a:	d2a9      	bcs.n	8000e70 <__udivmoddi4+0x1f8>
 8000f1c:	ebb9 0802 	subs.w	r8, r9, r2
 8000f20:	eb64 0e0c 	sbc.w	lr, r4, ip
 8000f24:	3801      	subs	r0, #1
 8000f26:	e7a3      	b.n	8000e70 <__udivmoddi4+0x1f8>
 8000f28:	4646      	mov	r6, r8
 8000f2a:	e7ea      	b.n	8000f02 <__udivmoddi4+0x28a>
 8000f2c:	4620      	mov	r0, r4
 8000f2e:	e794      	b.n	8000e5a <__udivmoddi4+0x1e2>
 8000f30:	4640      	mov	r0, r8
 8000f32:	e7d1      	b.n	8000ed8 <__udivmoddi4+0x260>
 8000f34:	46d0      	mov	r8, sl
 8000f36:	e77b      	b.n	8000e30 <__udivmoddi4+0x1b8>
 8000f38:	3b02      	subs	r3, #2
 8000f3a:	4461      	add	r1, ip
 8000f3c:	e732      	b.n	8000da4 <__udivmoddi4+0x12c>
 8000f3e:	4630      	mov	r0, r6
 8000f40:	e709      	b.n	8000d56 <__udivmoddi4+0xde>
 8000f42:	4464      	add	r4, ip
 8000f44:	3802      	subs	r0, #2
 8000f46:	e742      	b.n	8000dce <__udivmoddi4+0x156>

08000f48 <__aeabi_idiv0>:
 8000f48:	4770      	bx	lr
 8000f4a:	bf00      	nop

08000f4c <SystemClock_Config>:
 8000f4c:	b510      	push	{r4, lr}
 8000f4e:	b094      	sub	sp, #80	; 0x50
 8000f50:	2210      	movs	r2, #16
 8000f52:	2100      	movs	r1, #0
 8000f54:	a80a      	add	r0, sp, #40	; 0x28
 8000f56:	f008 ff83 	bl	8009e60 <memset>
 8000f5a:	2214      	movs	r2, #20
 8000f5c:	2100      	movs	r1, #0
 8000f5e:	a803      	add	r0, sp, #12
 8000f60:	f008 ff7e 	bl	8009e60 <memset>
 8000f64:	4b1f      	ldr	r3, [pc, #124]	; (8000fe4 <SystemClock_Config+0x98>)
 8000f66:	2100      	movs	r1, #0
 8000f68:	9101      	str	r1, [sp, #4]
 8000f6a:	6c1a      	ldr	r2, [r3, #64]	; 0x40
 8000f6c:	f042 5280 	orr.w	r2, r2, #268435456	; 0x10000000
 8000f70:	641a      	str	r2, [r3, #64]	; 0x40
 8000f72:	6c1b      	ldr	r3, [r3, #64]	; 0x40
 8000f74:	f003 5380 	and.w	r3, r3, #268435456	; 0x10000000
 8000f78:	9301      	str	r3, [sp, #4]
 8000f7a:	9b01      	ldr	r3, [sp, #4]
 8000f7c:	4b1a      	ldr	r3, [pc, #104]	; (8000fe8 <SystemClock_Config+0x9c>)
 8000f7e:	9102      	str	r1, [sp, #8]
 8000f80:	681a      	ldr	r2, [r3, #0]
 8000f82:	f442 4280 	orr.w	r2, r2, #16384	; 0x4000
 8000f86:	601a      	str	r2, [r3, #0]
 8000f88:	681b      	ldr	r3, [r3, #0]
 8000f8a:	f403 4380 	and.w	r3, r3, #16384	; 0x4000
 8000f8e:	9302      	str	r3, [sp, #8]
 8000f90:	9b02      	ldr	r3, [sp, #8]
 8000f92:	2101      	movs	r1, #1
 8000f94:	f44f 3380 	mov.w	r3, #65536	; 0x10000
 8000f98:	2402      	movs	r4, #2
 8000f9a:	e9cd 1308 	strd	r1, r3, [sp, #32]
 8000f9e:	f44f 0380 	mov.w	r3, #4194304	; 0x400000
 8000fa2:	2004      	movs	r0, #4
 8000fa4:	e9cd 430e 	strd	r4, r3, [sp, #56]	; 0x38
 8000fa8:	23a8      	movs	r3, #168	; 0xa8
 8000faa:	e9cd 0310 	strd	r0, r3, [sp, #64]	; 0x40
 8000fae:	2307      	movs	r3, #7
 8000fb0:	a808      	add	r0, sp, #32
 8000fb2:	9412      	str	r4, [sp, #72]	; 0x48
 8000fb4:	9313      	str	r3, [sp, #76]	; 0x4c
 8000fb6:	f004 f9a1 	bl	80052fc <HAL_RCC_OscConfig>
 8000fba:	b100      	cbz	r0, 8000fbe <SystemClock_Config+0x72>
 8000fbc:	e7fe      	b.n	8000fbc <SystemClock_Config+0x70>
 8000fbe:	230f      	movs	r3, #15
 8000fc0:	e9cd 3403 	strd	r3, r4, [sp, #12]
 8000fc4:	9005      	str	r0, [sp, #20]
 8000fc6:	f44f 52a0 	mov.w	r2, #5120	; 0x1400
 8000fca:	f44f 5380 	mov.w	r3, #4096	; 0x1000
 8000fce:	2105      	movs	r1, #5
 8000fd0:	a803      	add	r0, sp, #12
 8000fd2:	e9cd 2306 	strd	r2, r3, [sp, #24]
 8000fd6:	f004 fb6f 	bl	80056b8 <HAL_RCC_ClockConfig>
 8000fda:	b100      	cbz	r0, 8000fde <SystemClock_Config+0x92>
 8000fdc:	e7fe      	b.n	8000fdc <SystemClock_Config+0x90>
 8000fde:	b014      	add	sp, #80	; 0x50
 8000fe0:	bd10      	pop	{r4, pc}
 8000fe2:	bf00      	nop
 8000fe4:	40023800 	.word	0x40023800
 8000fe8:	40007000 	.word	0x40007000

08000fec <main>:
 8000fec:	e92d 4ff0 	stmdb	sp!, {r4, r5, r6, r7, r8, r9, sl, fp, lr}
 8000ff0:	4fb4      	ldr	r7, [pc, #720]	; (80012c4 <main+0x2d8>)
 8000ff2:	4db5      	ldr	r5, [pc, #724]	; (80012c8 <main+0x2dc>)
 8000ff4:	783e      	ldrb	r6, [r7, #0]
 8000ff6:	b091      	sub	sp, #68	; 0x44
 8000ff8:	2400      	movs	r4, #0
 8000ffa:	f002 f9a9 	bl	8003350 <HAL_Init>
 8000ffe:	f7ff ffa5 	bl	8000f4c <SystemClock_Config>
 8001002:	2214      	movs	r2, #20
 8001004:	2100      	movs	r1, #0
 8001006:	a809      	add	r0, sp, #36	; 0x24
 8001008:	f008 ff2a 	bl	8009e60 <memset>
 800100c:	9401      	str	r4, [sp, #4]
 800100e:	6b2b      	ldr	r3, [r5, #48]	; 0x30
 8001010:	48ae      	ldr	r0, [pc, #696]	; (80012cc <main+0x2e0>)
 8001012:	f043 0310 	orr.w	r3, r3, #16
 8001016:	632b      	str	r3, [r5, #48]	; 0x30
 8001018:	6b2b      	ldr	r3, [r5, #48]	; 0x30
 800101a:	f003 0310 	and.w	r3, r3, #16
 800101e:	9301      	str	r3, [sp, #4]
 8001020:	9b01      	ldr	r3, [sp, #4]
 8001022:	9402      	str	r4, [sp, #8]
 8001024:	6b2b      	ldr	r3, [r5, #48]	; 0x30
 8001026:	f043 0304 	orr.w	r3, r3, #4
 800102a:	632b      	str	r3, [r5, #48]	; 0x30
 800102c:	6b2b      	ldr	r3, [r5, #48]	; 0x30
 800102e:	f003 0304 	and.w	r3, r3, #4
 8001032:	9302      	str	r3, [sp, #8]
 8001034:	9b02      	ldr	r3, [sp, #8]
 8001036:	9403      	str	r4, [sp, #12]
 8001038:	6b2b      	ldr	r3, [r5, #48]	; 0x30
 800103a:	f043 0380 	orr.w	r3, r3, #128	; 0x80
 800103e:	632b      	str	r3, [r5, #48]	; 0x30
 8001040:	6b2b      	ldr	r3, [r5, #48]	; 0x30
 8001042:	f003 0380 	and.w	r3, r3, #128	; 0x80
 8001046:	9303      	str	r3, [sp, #12]
 8001048:	9b03      	ldr	r3, [sp, #12]
 800104a:	9404      	str	r4, [sp, #16]
 800104c:	6b2b      	ldr	r3, [r5, #48]	; 0x30
 800104e:	f043 0301 	orr.w	r3, r3, #1
 8001052:	632b      	str	r3, [r5, #48]	; 0x30
 8001054:	6b2b      	ldr	r3, [r5, #48]	; 0x30
 8001056:	f003 0301 	and.w	r3, r3, #1
 800105a:	9304      	str	r3, [sp, #16]
 800105c:	9b04      	ldr	r3, [sp, #16]
 800105e:	9405      	str	r4, [sp, #20]
 8001060:	6b2b      	ldr	r3, [r5, #48]	; 0x30
 8001062:	f043 0302 	orr.w	r3, r3, #2
 8001066:	632b      	str	r3, [r5, #48]	; 0x30
 8001068:	6b2b      	ldr	r3, [r5, #48]	; 0x30
 800106a:	f003 0302 	and.w	r3, r3, #2
 800106e:	9305      	str	r3, [sp, #20]
 8001070:	9b05      	ldr	r3, [sp, #20]
 8001072:	9406      	str	r4, [sp, #24]
 8001074:	6b2b      	ldr	r3, [r5, #48]	; 0x30
 8001076:	f043 0308 	orr.w	r3, r3, #8
 800107a:	632b      	str	r3, [r5, #48]	; 0x30
 800107c:	6b2b      	ldr	r3, [r5, #48]	; 0x30
 800107e:	f003 0308 	and.w	r3, r3, #8
 8001082:	9306      	str	r3, [sp, #24]
 8001084:	4622      	mov	r2, r4
 8001086:	f24c 0108 	movw	r1, #49160	; 0xc008
 800108a:	9b06      	ldr	r3, [sp, #24]
 800108c:	f002 fd7a 	bl	8003b84 <HAL_GPIO_WritePin>
 8001090:	2201      	movs	r2, #1
 8001092:	4611      	mov	r1, r2
 8001094:	488e      	ldr	r0, [pc, #568]	; (80012d0 <main+0x2e4>)
 8001096:	f002 fd75 	bl	8003b84 <HAL_GPIO_WritePin>
 800109a:	488c      	ldr	r0, [pc, #560]	; (80012cc <main+0x2e0>)
 800109c:	2201      	movs	r2, #1
 800109e:	f44f 5140 	mov.w	r1, #12288	; 0x3000
 80010a2:	f002 fd6f 	bl	8003b84 <HAL_GPIO_WritePin>
 80010a6:	488b      	ldr	r0, [pc, #556]	; (80012d4 <main+0x2e8>)
 80010a8:	4622      	mov	r2, r4
 80010aa:	f44f 4180 	mov.w	r1, #16384	; 0x4000
 80010ae:	f002 fd69 	bl	8003b84 <HAL_GPIO_WritePin>
 80010b2:	4622      	mov	r2, r4
 80010b4:	4888      	ldr	r0, [pc, #544]	; (80012d8 <main+0x2ec>)
 80010b6:	f24f 0110 	movw	r1, #61456	; 0xf010
 80010ba:	f002 fd63 	bl	8003b84 <HAL_GPIO_WritePin>
 80010be:	f04f 0901 	mov.w	r9, #1
 80010c2:	f248 0308 	movw	r3, #32776	; 0x8008
 80010c6:	4881      	ldr	r0, [pc, #516]	; (80012cc <main+0x2e0>)
 80010c8:	a909      	add	r1, sp, #36	; 0x24
 80010ca:	e9cd 3909 	strd	r3, r9, [sp, #36]	; 0x24
 80010ce:	e9cd 440b 	strd	r4, r4, [sp, #44]	; 0x2c
 80010d2:	f002 fbe1 	bl	8003898 <HAL_GPIO_Init>
 80010d6:	487e      	ldr	r0, [pc, #504]	; (80012d0 <main+0x2e4>)
 80010d8:	a909      	add	r1, sp, #36	; 0x24
 80010da:	e9cd 9909 	strd	r9, r9, [sp, #36]	; 0x24
 80010de:	e9cd 440b 	strd	r4, r4, [sp, #44]	; 0x2c
 80010e2:	f04f 0804 	mov.w	r8, #4
 80010e6:	f002 fbd7 	bl	8003898 <HAL_GPIO_Init>
 80010ea:	487a      	ldr	r0, [pc, #488]	; (80012d4 <main+0x2e8>)
 80010ec:	940b      	str	r4, [sp, #44]	; 0x2c
 80010ee:	a909      	add	r1, sp, #36	; 0x24
 80010f0:	e9cd 8409 	strd	r8, r4, [sp, #36]	; 0x24
 80010f4:	f002 fbd0 	bl	8003898 <HAL_GPIO_Init>
 80010f8:	f44f 6c00 	mov.w	ip, #2048	; 0x800
 80010fc:	f44f 1304 	mov.w	r3, #2162688	; 0x210000
 8001100:	4872      	ldr	r0, [pc, #456]	; (80012cc <main+0x2e0>)
 8001102:	f8cd 902c 	str.w	r9, [sp, #44]	; 0x2c
 8001106:	a909      	add	r1, sp, #36	; 0x24
 8001108:	e9cd c309 	strd	ip, r3, [sp, #36]	; 0x24
 800110c:	f04f 0b02 	mov.w	fp, #2
 8001110:	f002 fbc2 	bl	8003898 <HAL_GPIO_Init>
 8001114:	f44f 43e0 	mov.w	r3, #28672	; 0x7000
 8001118:	486c      	ldr	r0, [pc, #432]	; (80012cc <main+0x2e0>)
 800111a:	940b      	str	r4, [sp, #44]	; 0x2c
 800111c:	a909      	add	r1, sp, #36	; 0x24
 800111e:	e9cd 3909 	strd	r3, r9, [sp, #36]	; 0x24
 8001122:	f44f 4a80 	mov.w	sl, #16384	; 0x4000
 8001126:	f8cd b030 	str.w	fp, [sp, #48]	; 0x30
 800112a:	f002 fbb5 	bl	8003898 <HAL_GPIO_Init>
 800112e:	4869      	ldr	r0, [pc, #420]	; (80012d4 <main+0x2e8>)
 8001130:	a909      	add	r1, sp, #36	; 0x24
 8001132:	e9cd a909 	strd	sl, r9, [sp, #36]	; 0x24
 8001136:	e9cd 440b 	strd	r4, r4, [sp, #44]	; 0x2c
 800113a:	f002 fbad 	bl	8003898 <HAL_GPIO_Init>
 800113e:	f24f 0310 	movw	r3, #61456	; 0xf010
 8001142:	4865      	ldr	r0, [pc, #404]	; (80012d8 <main+0x2ec>)
 8001144:	a909      	add	r1, sp, #36	; 0x24
 8001146:	e9cd 3909 	strd	r3, r9, [sp, #36]	; 0x24
 800114a:	e9cd 440b 	strd	r4, r4, [sp, #44]	; 0x2c
 800114e:	f002 fba3 	bl	8003898 <HAL_GPIO_Init>
 8001152:	2320      	movs	r3, #32
 8001154:	4860      	ldr	r0, [pc, #384]	; (80012d8 <main+0x2ec>)
 8001156:	940b      	str	r4, [sp, #44]	; 0x2c
 8001158:	a909      	add	r1, sp, #36	; 0x24
 800115a:	e9cd 3409 	strd	r3, r4, [sp, #36]	; 0x24
 800115e:	f002 fb9b 	bl	8003898 <HAL_GPIO_Init>
 8001162:	f44f 1388 	mov.w	r3, #1114112	; 0x110000
 8001166:	4859      	ldr	r0, [pc, #356]	; (80012cc <main+0x2e0>)
 8001168:	f8cd b024 	str.w	fp, [sp, #36]	; 0x24
 800116c:	a909      	add	r1, sp, #36	; 0x24
 800116e:	e9cd 340a 	strd	r3, r4, [sp, #40]	; 0x28
 8001172:	f002 fb91 	bl	8003898 <HAL_GPIO_Init>
 8001176:	4622      	mov	r2, r4
 8001178:	4621      	mov	r1, r4
 800117a:	2028      	movs	r0, #40	; 0x28
 800117c:	f002 f93a 	bl	80033f4 <HAL_NVIC_SetPriority>
 8001180:	2028      	movs	r0, #40	; 0x28
 8001182:	f002 f969 	bl	8003458 <HAL_NVIC_EnableIRQ>
 8001186:	9400      	str	r4, [sp, #0]
 8001188:	6b2b      	ldr	r3, [r5, #48]	; 0x30
 800118a:	f443 1300 	orr.w	r3, r3, #2097152	; 0x200000
 800118e:	632b      	str	r3, [r5, #48]	; 0x30
 8001190:	6b2b      	ldr	r3, [r5, #48]	; 0x30
 8001192:	f403 1300 	and.w	r3, r3, #2097152	; 0x200000
 8001196:	4622      	mov	r2, r4
 8001198:	4621      	mov	r1, r4
 800119a:	9300      	str	r3, [sp, #0]
 800119c:	200f      	movs	r0, #15
 800119e:	9b00      	ldr	r3, [sp, #0]
 80011a0:	f002 f928 	bl	80033f4 <HAL_NVIC_SetPriority>
 80011a4:	200f      	movs	r0, #15
 80011a6:	f002 f957 	bl	8003458 <HAL_NVIC_EnableIRQ>
 80011aa:	4622      	mov	r2, r4
 80011ac:	4621      	mov	r1, r4
 80011ae:	2010      	movs	r0, #16
 80011b0:	f002 f920 	bl	80033f4 <HAL_NVIC_SetPriority>
 80011b4:	2010      	movs	r0, #16
 80011b6:	f002 f94f 	bl	8003458 <HAL_NVIC_EnableIRQ>
 80011ba:	4848      	ldr	r0, [pc, #288]	; (80012dc <main+0x2f0>)
 80011bc:	4b48      	ldr	r3, [pc, #288]	; (80012e0 <main+0x2f4>)
 80011be:	f8df e14c 	ldr.w	lr, [pc, #332]	; 800130c <main+0x320>
 80011c2:	6204      	str	r4, [r0, #32]
 80011c4:	e9c0 e300 	strd	lr, r3, [r0]
 80011c8:	e9c0 4402 	strd	r4, r4, [r0, #8]
 80011cc:	e9c0 a404 	strd	sl, r4, [r0, #16]
 80011d0:	e9c0 4406 	strd	r4, r4, [r0, #24]
 80011d4:	f003 faea 	bl	80047ac <HAL_I2C_Init>
 80011d8:	4603      	mov	r3, r0
 80011da:	b100      	cbz	r0, 80011de <main+0x1f2>
 80011dc:	e7fe      	b.n	80011dc <main+0x1f0>
 80011de:	4841      	ldr	r0, [pc, #260]	; (80012e4 <main+0x2f8>)
 80011e0:	4a41      	ldr	r2, [pc, #260]	; (80012e8 <main+0x2fc>)
 80011e2:	f44f 7500 	mov.w	r5, #512	; 0x200
 80011e6:	e9c0 2500 	strd	r2, r5, [r0]
 80011ea:	f44f 52fa 	mov.w	r2, #8000	; 0x1f40
 80011ee:	e9c0 3302 	strd	r3, r3, [r0, #8]
 80011f2:	e9c0 2305 	strd	r2, r3, [r0, #20]
 80011f6:	e9c0 3307 	strd	r3, r3, [r0, #28]
 80011fa:	6105      	str	r5, [r0, #16]
 80011fc:	f003 fd34 	bl	8004c68 <HAL_I2S_Init>
 8001200:	4603      	mov	r3, r0
 8001202:	b100      	cbz	r0, 8001206 <main+0x21a>
 8001204:	e7fe      	b.n	8001204 <main+0x218>
 8001206:	4839      	ldr	r0, [pc, #228]	; (80012ec <main+0x300>)
 8001208:	4c39      	ldr	r4, [pc, #228]	; (80012f0 <main+0x304>)
 800120a:	6103      	str	r3, [r0, #16]
 800120c:	f44f 32e1 	mov.w	r2, #115200	; 0x1c200
 8001210:	e9c0 4200 	strd	r4, r2, [r0]
 8001214:	220c      	movs	r2, #12
 8001216:	e9c0 3302 	strd	r3, r3, [r0, #8]
 800121a:	e9c0 2305 	strd	r2, r3, [r0, #20]
 800121e:	61c3      	str	r3, [r0, #28]
 8001220:	f005 fab4 	bl	800678c <HAL_UART_Init>
 8001224:	4604      	mov	r4, r0
 8001226:	b100      	cbz	r0, 800122a <main+0x23e>
 8001228:	e7fe      	b.n	8001228 <main+0x23c>
 800122a:	f006 fdc1 	bl	8007db0 <MX_USB_HOST_Init>
 800122e:	4831      	ldr	r0, [pc, #196]	; (80012f4 <main+0x308>)
 8001230:	4931      	ldr	r1, [pc, #196]	; (80012f8 <main+0x30c>)
 8001232:	6284      	str	r4, [r0, #40]	; 0x28
 8001234:	f44f 7382 	mov.w	r3, #260	; 0x104
 8001238:	e9c0 1300 	strd	r1, r3, [r0]
 800123c:	230a      	movs	r3, #10
 800123e:	e9c0 4402 	strd	r4, r4, [r0, #8]
 8001242:	e9c0 4404 	strd	r4, r4, [r0, #16]
 8001246:	e9c0 5406 	strd	r5, r4, [r0, #24]
 800124a:	e9c0 4408 	strd	r4, r4, [r0, #32]
 800124e:	62c3      	str	r3, [r0, #44]	; 0x2c
 8001250:	f004 fc6e 	bl	8005b30 <HAL_SPI_Init>
 8001254:	b100      	cbz	r0, 8001258 <main+0x26c>
 8001256:	e7fe      	b.n	8001256 <main+0x26a>
 8001258:	4828      	ldr	r0, [pc, #160]	; (80012fc <main+0x310>)
 800125a:	4b29      	ldr	r3, [pc, #164]	; (8001300 <main+0x314>)
 800125c:	6003      	str	r3, [r0, #0]
 800125e:	f002 f941 	bl	80034e4 <HAL_CRC_Init>
 8001262:	4605      	mov	r5, r0
 8001264:	b100      	cbz	r0, 8001268 <main+0x27c>
 8001266:	e7fe      	b.n	8001266 <main+0x27a>
 8001268:	e9cd 0007 	strd	r0, r0, [sp, #28]
 800126c:	221c      	movs	r2, #28
 800126e:	4601      	mov	r1, r0
 8001270:	a809      	add	r0, sp, #36	; 0x24
 8001272:	f008 fdf5 	bl	8009e60 <memset>
 8001276:	4c23      	ldr	r4, [pc, #140]	; (8001304 <main+0x318>)
 8001278:	4a23      	ldr	r2, [pc, #140]	; (8001308 <main+0x31c>)
 800127a:	60a5      	str	r5, [r4, #8]
 800127c:	f242 7310 	movw	r3, #10000	; 0x2710
 8001280:	e9c4 2300 	strd	r2, r3, [r4]
 8001284:	4620      	mov	r0, r4
 8001286:	f64f 73ff 	movw	r3, #65535	; 0xffff
 800128a:	e9c4 3503 	strd	r3, r5, [r4, #12]
 800128e:	61a5      	str	r5, [r4, #24]
 8001290:	f005 f922 	bl	80064d8 <HAL_TIM_PWM_Init>
 8001294:	b100      	cbz	r0, 8001298 <main+0x2ac>
 8001296:	e7fe      	b.n	8001296 <main+0x2aa>
 8001298:	e9cd 0007 	strd	r0, r0, [sp, #28]
 800129c:	a907      	add	r1, sp, #28
 800129e:	4620      	mov	r0, r4
 80012a0:	f005 f9d8 	bl	8006654 <HAL_TIMEx_MasterConfigSynchronization>
 80012a4:	b100      	cbz	r0, 80012a8 <main+0x2bc>
 80012a6:	e7fe      	b.n	80012a6 <main+0x2ba>
 80012a8:	2360      	movs	r3, #96	; 0x60
 80012aa:	e9cd 3009 	strd	r3, r0, [sp, #36]	; 0x24
 80012ae:	900b      	str	r0, [sp, #44]	; 0x2c
 80012b0:	900d      	str	r0, [sp, #52]	; 0x34
 80012b2:	4642      	mov	r2, r8
 80012b4:	a909      	add	r1, sp, #36	; 0x24
 80012b6:	4620      	mov	r0, r4
 80012b8:	f005 f970 	bl	800659c <HAL_TIM_PWM_ConfigChannel>
 80012bc:	4605      	mov	r5, r0
 80012be:	b338      	cbz	r0, 8001310 <main+0x324>
 80012c0:	e7fe      	b.n	80012c0 <main+0x2d4>
 80012c2:	bf00      	nop
 80012c4:	200059c8 	.word	0x200059c8
 80012c8:	40023800 	.word	0x40023800
 80012cc:	40021000 	.word	0x40021000
 80012d0:	40020800 	.word	0x40020800
 80012d4:	40020400 	.word	0x40020400
 80012d8:	40020c00 	.word	0x40020c00
 80012dc:	20005e34 	.word	0x20005e34
 80012e0:	000186a0 	.word	0x000186a0
 80012e4:	200063dc 	.word	0x200063dc
 80012e8:	40003c00 	.word	0x40003c00
 80012ec:	20006338 	.word	0x20006338
 80012f0:	40004400 	.word	0x40004400
 80012f4:	200059dc 	.word	0x200059dc
 80012f8:	40003800 	.word	0x40003800
 80012fc:	20005e88 	.word	0x20005e88
 8001300:	40023000 	.word	0x40023000
 8001304:	20006290 	.word	0x20006290
 8001308:	40000400 	.word	0x40000400
 800130c:	40005400 	.word	0x40005400
 8001310:	4620      	mov	r0, r4
 8001312:	f000 f9f1 	bl	80016f8 <HAL_TIM_MspPostInit>
 8001316:	f000 fb61 	bl	80019dc <synth_init>
 800131a:	4628      	mov	r0, r5
 800131c:	f000 feac 	bl	8002078 <Displ_Init>
 8001320:	4628      	mov	r0, r5
 8001322:	f000 ff3f 	bl	80021a4 <Displ_CLS>
 8001326:	2049      	movs	r0, #73	; 0x49
 8001328:	f001 f918 	bl	800255c <Displ_BackLight>
 800132c:	f001 fa8e 	bl	800284c <InitMenu>
 8001330:	f006 fd5e 	bl	8007df0 <MX_USB_HOST_Process>
 8001334:	783c      	ldrb	r4, [r7, #0]
 8001336:	42b4      	cmp	r4, r6
 8001338:	d003      	beq.n	8001342 <main+0x356>
 800133a:	2c02      	cmp	r4, #2
 800133c:	d101      	bne.n	8001342 <main+0x356>
 800133e:	f000 f807 	bl	8001350 <start_midi>
 8001342:	f001 fbd7 	bl	8002af4 <RunMenu1>
 8001346:	4626      	mov	r6, r4
 8001348:	e7f2      	b.n	8001330 <main+0x344>
 800134a:	bf00      	nop

0800134c <Error_Handler>:
 800134c:	e7fe      	b.n	800134c <Error_Handler>
	...

08001350 <start_midi>:
 8001350:	4902      	ldr	r1, [pc, #8]	; (800135c <start_midi+0xc>)
 8001352:	4803      	ldr	r0, [pc, #12]	; (8001360 <start_midi+0x10>)
 8001354:	2240      	movs	r2, #64	; 0x40
 8001356:	f005 bed8 	b.w	800710a <USBH_MIDI_Receive>
 800135a:	bf00      	nop
 800135c:	20006424 	.word	0x20006424
 8001360:	20006b5c 	.word	0x20006b5c

08001364 <decode_midi>:
 8001364:	f000 03f0 	and.w	r3, r0, #240	; 0xf0
 8001368:	2b80      	cmp	r3, #128	; 0x80
 800136a:	d002      	beq.n	8001372 <decode_midi+0xe>
 800136c:	2b90      	cmp	r3, #144	; 0x90
 800136e:	d002      	beq.n	8001376 <decode_midi+0x12>
 8001370:	4770      	bx	lr
 8001372:	f000 ba61 	b.w	8001838 <note_off>
 8001376:	f000 ba45 	b.w	8001804 <note_on>
	...

0800137c <USBH_MIDI_ReceiveCallback>:
 800137c:	b570      	push	{r4, r5, r6, lr}
 800137e:	480f      	ldr	r0, [pc, #60]	; (80013bc <USBH_MIDI_ReceiveCallback+0x40>)
 8001380:	4c0f      	ldr	r4, [pc, #60]	; (80013c0 <USBH_MIDI_ReceiveCallback+0x44>)
 8001382:	f005 feb4 	bl	80070ee <USBH_MIDI_GetLastReceivedDataSize>
 8001386:	f3c0 058f 	ubfx	r5, r0, #2, #16
 800138a:	4629      	mov	r1, r5
 800138c:	480d      	ldr	r0, [pc, #52]	; (80013c4 <USBH_MIDI_ReceiveCallback+0x48>)
 800138e:	f008 fe4f 	bl	800a030 <iprintf>
 8001392:	2600      	movs	r6, #0
 8001394:	b2b3      	uxth	r3, r6
 8001396:	429d      	cmp	r5, r3
 8001398:	d806      	bhi.n	80013a8 <USBH_MIDI_ReceiveCallback+0x2c>
 800139a:	e8bd 4070 	ldmia.w	sp!, {r4, r5, r6, lr}
 800139e:	4908      	ldr	r1, [pc, #32]	; (80013c0 <USBH_MIDI_ReceiveCallback+0x44>)
 80013a0:	4806      	ldr	r0, [pc, #24]	; (80013bc <USBH_MIDI_ReceiveCallback+0x40>)
 80013a2:	2240      	movs	r2, #64	; 0x40
 80013a4:	f005 beb1 	b.w	800710a <USBH_MIDI_Receive>
 80013a8:	7823      	ldrb	r3, [r4, #0]
 80013aa:	b123      	cbz	r3, 80013b6 <USBH_MIDI_ReceiveCallback+0x3a>
 80013ac:	78e2      	ldrb	r2, [r4, #3]
 80013ae:	78a1      	ldrb	r1, [r4, #2]
 80013b0:	7860      	ldrb	r0, [r4, #1]
 80013b2:	f7ff ffd7 	bl	8001364 <decode_midi>
 80013b6:	3601      	adds	r6, #1
 80013b8:	3404      	adds	r4, #4
 80013ba:	e7eb      	b.n	8001394 <USBH_MIDI_ReceiveCallback+0x18>
 80013bc:	20006b5c 	.word	0x20006b5c
 80013c0:	20006424 	.word	0x20006424
 80013c4:	0800c958 	.word	0x0800c958

080013c8 <HAL_MspInit>:
 80013c8:	b082      	sub	sp, #8
 80013ca:	4b0d      	ldr	r3, [pc, #52]	; (8001400 <HAL_MspInit+0x38>)
 80013cc:	2100      	movs	r1, #0
 80013ce:	9100      	str	r1, [sp, #0]
 80013d0:	6c5a      	ldr	r2, [r3, #68]	; 0x44
 80013d2:	f442 4280 	orr.w	r2, r2, #16384	; 0x4000
 80013d6:	645a      	str	r2, [r3, #68]	; 0x44
 80013d8:	6c5a      	ldr	r2, [r3, #68]	; 0x44
 80013da:	f402 4280 	and.w	r2, r2, #16384	; 0x4000
 80013de:	9200      	str	r2, [sp, #0]
 80013e0:	9a00      	ldr	r2, [sp, #0]
 80013e2:	9101      	str	r1, [sp, #4]
 80013e4:	6c1a      	ldr	r2, [r3, #64]	; 0x40
 80013e6:	f042 5280 	orr.w	r2, r2, #268435456	; 0x10000000
 80013ea:	641a      	str	r2, [r3, #64]	; 0x40
 80013ec:	6c1b      	ldr	r3, [r3, #64]	; 0x40
 80013ee:	f003 5380 	and.w	r3, r3, #268435456	; 0x10000000
 80013f2:	9301      	str	r3, [sp, #4]
 80013f4:	9b01      	ldr	r3, [sp, #4]
 80013f6:	2007      	movs	r0, #7
 80013f8:	b002      	add	sp, #8
 80013fa:	f001 bfe9 	b.w	80033d0 <HAL_NVIC_SetPriorityGrouping>
 80013fe:	bf00      	nop
 8001400:	40023800 	.word	0x40023800

08001404 <HAL_CRC_MspInit>:
 8001404:	6802      	ldr	r2, [r0, #0]
 8001406:	4b09      	ldr	r3, [pc, #36]	; (800142c <HAL_CRC_MspInit+0x28>)
 8001408:	429a      	cmp	r2, r3
 800140a:	b082      	sub	sp, #8
 800140c:	d10b      	bne.n	8001426 <HAL_CRC_MspInit+0x22>
 800140e:	2300      	movs	r3, #0
 8001410:	9301      	str	r3, [sp, #4]
 8001412:	4b07      	ldr	r3, [pc, #28]	; (8001430 <HAL_CRC_MspInit+0x2c>)
 8001414:	6b1a      	ldr	r2, [r3, #48]	; 0x30
 8001416:	f442 5280 	orr.w	r2, r2, #4096	; 0x1000
 800141a:	631a      	str	r2, [r3, #48]	; 0x30
 800141c:	6b1b      	ldr	r3, [r3, #48]	; 0x30
 800141e:	f403 5380 	and.w	r3, r3, #4096	; 0x1000
 8001422:	9301      	str	r3, [sp, #4]
 8001424:	9b01      	ldr	r3, [sp, #4]
 8001426:	b002      	add	sp, #8
 8001428:	4770      	bx	lr
 800142a:	bf00      	nop
 800142c:	40023000 	.word	0x40023000
 8001430:	40023800 	.word	0x40023800

08001434 <HAL_I2C_MspInit>:
 8001434:	b530      	push	{r4, r5, lr}
 8001436:	4604      	mov	r4, r0
 8001438:	b089      	sub	sp, #36	; 0x24
 800143a:	2214      	movs	r2, #20
 800143c:	2100      	movs	r1, #0
 800143e:	a803      	add	r0, sp, #12
 8001440:	f008 fd0e 	bl	8009e60 <memset>
 8001444:	6822      	ldr	r2, [r4, #0]
 8001446:	4b14      	ldr	r3, [pc, #80]	; (8001498 <HAL_I2C_MspInit+0x64>)
 8001448:	429a      	cmp	r2, r3
 800144a:	d122      	bne.n	8001492 <HAL_I2C_MspInit+0x5e>
 800144c:	4c13      	ldr	r4, [pc, #76]	; (800149c <HAL_I2C_MspInit+0x68>)
 800144e:	4814      	ldr	r0, [pc, #80]	; (80014a0 <HAL_I2C_MspInit+0x6c>)
 8001450:	2500      	movs	r5, #0
 8001452:	9501      	str	r5, [sp, #4]
 8001454:	6b23      	ldr	r3, [r4, #48]	; 0x30
 8001456:	f043 0302 	orr.w	r3, r3, #2
 800145a:	6323      	str	r3, [r4, #48]	; 0x30
 800145c:	6b23      	ldr	r3, [r4, #48]	; 0x30
 800145e:	f003 0302 	and.w	r3, r3, #2
 8001462:	9301      	str	r3, [sp, #4]
 8001464:	9b01      	ldr	r3, [sp, #4]
 8001466:	f44f 7210 	mov.w	r2, #576	; 0x240
 800146a:	2312      	movs	r3, #18
 800146c:	e9cd 2303 	strd	r2, r3, [sp, #12]
 8001470:	2103      	movs	r1, #3
 8001472:	2304      	movs	r3, #4
 8001474:	e9cd 1306 	strd	r1, r3, [sp, #24]
 8001478:	a903      	add	r1, sp, #12
 800147a:	f002 fa0d 	bl	8003898 <HAL_GPIO_Init>
 800147e:	9502      	str	r5, [sp, #8]
 8001480:	6c23      	ldr	r3, [r4, #64]	; 0x40
 8001482:	f443 1300 	orr.w	r3, r3, #2097152	; 0x200000
 8001486:	6423      	str	r3, [r4, #64]	; 0x40
 8001488:	6c23      	ldr	r3, [r4, #64]	; 0x40
 800148a:	f403 1300 	and.w	r3, r3, #2097152	; 0x200000
 800148e:	9302      	str	r3, [sp, #8]
 8001490:	9b02      	ldr	r3, [sp, #8]
 8001492:	b009      	add	sp, #36	; 0x24
 8001494:	bd30      	pop	{r4, r5, pc}
 8001496:	bf00      	nop
 8001498:	40005400 	.word	0x40005400
 800149c:	40023800 	.word	0x40023800
 80014a0:	40020400 	.word	0x40020400

080014a4 <HAL_I2C_MspDeInit>:
 80014a4:	b508      	push	{r3, lr}
 80014a6:	6802      	ldr	r2, [r0, #0]
 80014a8:	4b09      	ldr	r3, [pc, #36]	; (80014d0 <HAL_I2C_MspDeInit+0x2c>)
 80014aa:	429a      	cmp	r2, r3
 80014ac:	d10f      	bne.n	80014ce <HAL_I2C_MspDeInit+0x2a>
 80014ae:	4a09      	ldr	r2, [pc, #36]	; (80014d4 <HAL_I2C_MspDeInit+0x30>)
 80014b0:	4809      	ldr	r0, [pc, #36]	; (80014d8 <HAL_I2C_MspDeInit+0x34>)
 80014b2:	6c13      	ldr	r3, [r2, #64]	; 0x40
 80014b4:	f423 1300 	bic.w	r3, r3, #2097152	; 0x200000
 80014b8:	6413      	str	r3, [r2, #64]	; 0x40
 80014ba:	2140      	movs	r1, #64	; 0x40
 80014bc:	f002 fac6 	bl	8003a4c <HAL_GPIO_DeInit>
 80014c0:	e8bd 4008 	ldmia.w	sp!, {r3, lr}
 80014c4:	4804      	ldr	r0, [pc, #16]	; (80014d8 <HAL_I2C_MspDeInit+0x34>)
 80014c6:	f44f 7100 	mov.w	r1, #512	; 0x200
 80014ca:	f002 babf 	b.w	8003a4c <HAL_GPIO_DeInit>
 80014ce:	bd08      	pop	{r3, pc}
 80014d0:	40005400 	.word	0x40005400
 80014d4:	40023800 	.word	0x40023800
 80014d8:	40020400 	.word	0x40020400

080014dc <HAL_I2S_MspInit>:
 80014dc:	b5f0      	push	{r4, r5, r6, r7, lr}
 80014de:	b08d      	sub	sp, #52	; 0x34
 80014e0:	4606      	mov	r6, r0
 80014e2:	2214      	movs	r2, #20
 80014e4:	2100      	movs	r1, #0
 80014e6:	a807      	add	r0, sp, #28
 80014e8:	f008 fcba 	bl	8009e60 <memset>
 80014ec:	2210      	movs	r2, #16
 80014ee:	2100      	movs	r1, #0
 80014f0:	a803      	add	r0, sp, #12
 80014f2:	f008 fcb5 	bl	8009e60 <memset>
 80014f6:	6832      	ldr	r2, [r6, #0]
 80014f8:	4b34      	ldr	r3, [pc, #208]	; (80015cc <HAL_I2S_MspInit+0xf0>)
 80014fa:	429a      	cmp	r2, r3
 80014fc:	d164      	bne.n	80015c8 <HAL_I2S_MspInit+0xec>
 80014fe:	2332      	movs	r3, #50	; 0x32
 8001500:	2401      	movs	r4, #1
 8001502:	e9cd 4303 	strd	r4, r3, [sp, #12]
 8001506:	a803      	add	r0, sp, #12
 8001508:	2302      	movs	r3, #2
 800150a:	9305      	str	r3, [sp, #20]
 800150c:	f004 f990 	bl	8005830 <HAL_RCCEx_PeriphCLKConfig>
 8001510:	b108      	cbz	r0, 8001516 <HAL_I2S_MspInit+0x3a>
 8001512:	f7ff ff1b 	bl	800134c <Error_Handler>
 8001516:	4b2e      	ldr	r3, [pc, #184]	; (80015d0 <HAL_I2S_MspInit+0xf4>)
 8001518:	482e      	ldr	r0, [pc, #184]	; (80015d4 <HAL_I2S_MspInit+0xf8>)
 800151a:	2500      	movs	r5, #0
 800151c:	9500      	str	r5, [sp, #0]
 800151e:	6c1a      	ldr	r2, [r3, #64]	; 0x40
 8001520:	f442 4200 	orr.w	r2, r2, #32768	; 0x8000
 8001524:	641a      	str	r2, [r3, #64]	; 0x40
 8001526:	6c1a      	ldr	r2, [r3, #64]	; 0x40
 8001528:	f402 4200 	and.w	r2, r2, #32768	; 0x8000
 800152c:	9200      	str	r2, [sp, #0]
 800152e:	9a00      	ldr	r2, [sp, #0]
 8001530:	9501      	str	r5, [sp, #4]
 8001532:	6b1a      	ldr	r2, [r3, #48]	; 0x30
 8001534:	f042 0201 	orr.w	r2, r2, #1
 8001538:	631a      	str	r2, [r3, #48]	; 0x30
 800153a:	6b1a      	ldr	r2, [r3, #48]	; 0x30
 800153c:	f002 0201 	and.w	r2, r2, #1
 8001540:	9201      	str	r2, [sp, #4]
 8001542:	9a01      	ldr	r2, [sp, #4]
 8001544:	9502      	str	r5, [sp, #8]
 8001546:	6b1a      	ldr	r2, [r3, #48]	; 0x30
 8001548:	f042 0204 	orr.w	r2, r2, #4
 800154c:	631a      	str	r2, [r3, #48]	; 0x30
 800154e:	6b1b      	ldr	r3, [r3, #48]	; 0x30
 8001550:	f003 0304 	and.w	r3, r3, #4
 8001554:	9302      	str	r3, [sp, #8]
 8001556:	2406      	movs	r4, #6
 8001558:	9b02      	ldr	r3, [sp, #8]
 800155a:	940b      	str	r4, [sp, #44]	; 0x2c
 800155c:	2310      	movs	r3, #16
 800155e:	2702      	movs	r7, #2
 8001560:	a907      	add	r1, sp, #28
 8001562:	e9cd 3707 	strd	r3, r7, [sp, #28]
 8001566:	e9cd 5509 	strd	r5, r5, [sp, #36]	; 0x24
 800156a:	f002 f995 	bl	8003898 <HAL_GPIO_Init>
 800156e:	f44f 53a4 	mov.w	r3, #5248	; 0x1480
 8001572:	4819      	ldr	r0, [pc, #100]	; (80015d8 <HAL_I2S_MspInit+0xfc>)
 8001574:	940b      	str	r4, [sp, #44]	; 0x2c
 8001576:	a907      	add	r1, sp, #28
 8001578:	4c18      	ldr	r4, [pc, #96]	; (80015dc <HAL_I2S_MspInit+0x100>)
 800157a:	e9cd 3707 	strd	r3, r7, [sp, #28]
 800157e:	e9cd 5509 	strd	r5, r5, [sp, #36]	; 0x24
 8001582:	f002 f989 	bl	8003898 <HAL_GPIO_Init>
 8001586:	4b16      	ldr	r3, [pc, #88]	; (80015e0 <HAL_I2S_MspInit+0x104>)
 8001588:	6225      	str	r5, [r4, #32]
 800158a:	e9c4 3500 	strd	r3, r5, [r4]
 800158e:	2340      	movs	r3, #64	; 0x40
 8001590:	e9c4 3502 	strd	r3, r5, [r4, #8]
 8001594:	f44f 6280 	mov.w	r2, #1024	; 0x400
 8001598:	f44f 6300 	mov.w	r3, #2048	; 0x800
 800159c:	e9c4 2304 	strd	r2, r3, [r4, #16]
 80015a0:	f44f 5100 	mov.w	r1, #8192	; 0x2000
 80015a4:	f44f 7380 	mov.w	r3, #256	; 0x100
 80015a8:	2004      	movs	r0, #4
 80015aa:	e9c4 1306 	strd	r1, r3, [r4, #24]
 80015ae:	2301      	movs	r3, #1
 80015b0:	e9c4 0309 	strd	r0, r3, [r4, #36]	; 0x24
 80015b4:	4620      	mov	r0, r4
 80015b6:	e9c4 550b 	strd	r5, r5, [r4, #44]	; 0x2c
 80015ba:	f001 ffb9 	bl	8003530 <HAL_DMA_Init>
 80015be:	b108      	cbz	r0, 80015c4 <HAL_I2S_MspInit+0xe8>
 80015c0:	f7ff fec4 	bl	800134c <Error_Handler>
 80015c4:	63b4      	str	r4, [r6, #56]	; 0x38
 80015c6:	63a6      	str	r6, [r4, #56]	; 0x38
 80015c8:	b00d      	add	sp, #52	; 0x34
 80015ca:	bdf0      	pop	{r4, r5, r6, r7, pc}
 80015cc:	40003c00 	.word	0x40003c00
 80015d0:	40023800 	.word	0x40023800
 80015d4:	40020000 	.word	0x40020000
 80015d8:	40020800 	.word	0x40020800
 80015dc:	200062d8 	.word	0x200062d8
 80015e0:	40026088 	.word	0x40026088

080015e4 <HAL_SPI_MspInit>:
 80015e4:	e92d 41f0 	stmdb	sp!, {r4, r5, r6, r7, r8, lr}
 80015e8:	4606      	mov	r6, r0
 80015ea:	b088      	sub	sp, #32
 80015ec:	2214      	movs	r2, #20
 80015ee:	2100      	movs	r1, #0
 80015f0:	a803      	add	r0, sp, #12
 80015f2:	f008 fc35 	bl	8009e60 <memset>
 80015f6:	6832      	ldr	r2, [r6, #0]
 80015f8:	4b2e      	ldr	r3, [pc, #184]	; (80016b4 <HAL_SPI_MspInit+0xd0>)
 80015fa:	429a      	cmp	r2, r3
 80015fc:	d157      	bne.n	80016ae <HAL_SPI_MspInit+0xca>
 80015fe:	2500      	movs	r5, #0
 8001600:	f503 3300 	add.w	r3, r3, #131072	; 0x20000
 8001604:	9500      	str	r5, [sp, #0]
 8001606:	6c1a      	ldr	r2, [r3, #64]	; 0x40
 8001608:	482b      	ldr	r0, [pc, #172]	; (80016b8 <HAL_SPI_MspInit+0xd4>)
 800160a:	f442 4280 	orr.w	r2, r2, #16384	; 0x4000
 800160e:	641a      	str	r2, [r3, #64]	; 0x40
 8001610:	6c1a      	ldr	r2, [r3, #64]	; 0x40
 8001612:	f402 4280 	and.w	r2, r2, #16384	; 0x4000
 8001616:	9200      	str	r2, [sp, #0]
 8001618:	9a00      	ldr	r2, [sp, #0]
 800161a:	9501      	str	r5, [sp, #4]
 800161c:	6b1a      	ldr	r2, [r3, #48]	; 0x30
 800161e:	f042 0204 	orr.w	r2, r2, #4
 8001622:	631a      	str	r2, [r3, #48]	; 0x30
 8001624:	6b1a      	ldr	r2, [r3, #48]	; 0x30
 8001626:	f002 0204 	and.w	r2, r2, #4
 800162a:	9201      	str	r2, [sp, #4]
 800162c:	9a01      	ldr	r2, [sp, #4]
 800162e:	9502      	str	r5, [sp, #8]
 8001630:	6b1a      	ldr	r2, [r3, #48]	; 0x30
 8001632:	f042 0202 	orr.w	r2, r2, #2
 8001636:	631a      	str	r2, [r3, #48]	; 0x30
 8001638:	6b1b      	ldr	r3, [r3, #48]	; 0x30
 800163a:	f003 0302 	and.w	r3, r3, #2
 800163e:	9302      	str	r3, [sp, #8]
 8001640:	2405      	movs	r4, #5
 8001642:	9b02      	ldr	r3, [sp, #8]
 8001644:	f04f 0802 	mov.w	r8, #2
 8001648:	2304      	movs	r3, #4
 800164a:	2703      	movs	r7, #3
 800164c:	a903      	add	r1, sp, #12
 800164e:	e9cd 3803 	strd	r3, r8, [sp, #12]
 8001652:	e9cd 7406 	strd	r7, r4, [sp, #24]
 8001656:	f002 f91f 	bl	8003898 <HAL_GPIO_Init>
 800165a:	f44f 4320 	mov.w	r3, #40960	; 0xa000
 800165e:	4817      	ldr	r0, [pc, #92]	; (80016bc <HAL_SPI_MspInit+0xd8>)
 8001660:	9407      	str	r4, [sp, #28]
 8001662:	a903      	add	r1, sp, #12
 8001664:	4c16      	ldr	r4, [pc, #88]	; (80016c0 <HAL_SPI_MspInit+0xdc>)
 8001666:	e9cd 3803 	strd	r3, r8, [sp, #12]
 800166a:	e9cd 5705 	strd	r5, r7, [sp, #20]
 800166e:	f002 f913 	bl	8003898 <HAL_GPIO_Init>
 8001672:	4b14      	ldr	r3, [pc, #80]	; (80016c4 <HAL_SPI_MspInit+0xe0>)
 8001674:	e9c4 3500 	strd	r3, r5, [r4]
 8001678:	2340      	movs	r3, #64	; 0x40
 800167a:	e9c4 3502 	strd	r3, r5, [r4, #8]
 800167e:	4620      	mov	r0, r4
 8001680:	f44f 6380 	mov.w	r3, #1024	; 0x400
 8001684:	e9c4 3504 	strd	r3, r5, [r4, #16]
 8001688:	e9c4 5506 	strd	r5, r5, [r4, #24]
 800168c:	e9c4 5508 	strd	r5, r5, [r4, #32]
 8001690:	f001 ff4e 	bl	8003530 <HAL_DMA_Init>
 8001694:	b108      	cbz	r0, 800169a <HAL_SPI_MspInit+0xb6>
 8001696:	f7ff fe59 	bl	800134c <Error_Handler>
 800169a:	2200      	movs	r2, #0
 800169c:	2024      	movs	r0, #36	; 0x24
 800169e:	64b4      	str	r4, [r6, #72]	; 0x48
 80016a0:	4611      	mov	r1, r2
 80016a2:	63a6      	str	r6, [r4, #56]	; 0x38
 80016a4:	f001 fea6 	bl	80033f4 <HAL_NVIC_SetPriority>
 80016a8:	2024      	movs	r0, #36	; 0x24
 80016aa:	f001 fed5 	bl	8003458 <HAL_NVIC_EnableIRQ>
 80016ae:	b008      	add	sp, #32
 80016b0:	e8bd 81f0 	ldmia.w	sp!, {r4, r5, r6, r7, r8, pc}
 80016b4:	40003800 	.word	0x40003800
 80016b8:	40020800 	.word	0x40020800
 80016bc:	40020400 	.word	0x40020400
 80016c0:	2000637c 	.word	0x2000637c
 80016c4:	40026070 	.word	0x40026070

080016c8 <HAL_TIM_PWM_MspInit>:
 80016c8:	6802      	ldr	r2, [r0, #0]
 80016ca:	4b09      	ldr	r3, [pc, #36]	; (80016f0 <HAL_TIM_PWM_MspInit+0x28>)
 80016cc:	429a      	cmp	r2, r3
 80016ce:	b082      	sub	sp, #8
 80016d0:	d10b      	bne.n	80016ea <HAL_TIM_PWM_MspInit+0x22>
 80016d2:	2300      	movs	r3, #0
 80016d4:	9301      	str	r3, [sp, #4]
 80016d6:	4b07      	ldr	r3, [pc, #28]	; (80016f4 <HAL_TIM_PWM_MspInit+0x2c>)
 80016d8:	6c1a      	ldr	r2, [r3, #64]	; 0x40
 80016da:	f042 0202 	orr.w	r2, r2, #2
 80016de:	641a      	str	r2, [r3, #64]	; 0x40
 80016e0:	6c1b      	ldr	r3, [r3, #64]	; 0x40
 80016e2:	f003 0302 	and.w	r3, r3, #2
 80016e6:	9301      	str	r3, [sp, #4]
 80016e8:	9b01      	ldr	r3, [sp, #4]
 80016ea:	b002      	add	sp, #8
 80016ec:	4770      	bx	lr
 80016ee:	bf00      	nop
 80016f0:	40000400 	.word	0x40000400
 80016f4:	40023800 	.word	0x40023800

080016f8 <HAL_TIM_MspPostInit>:
 80016f8:	b510      	push	{r4, lr}
 80016fa:	4604      	mov	r4, r0
 80016fc:	b086      	sub	sp, #24
 80016fe:	2214      	movs	r2, #20
 8001700:	2100      	movs	r1, #0
 8001702:	a801      	add	r0, sp, #4
 8001704:	f008 fbac 	bl	8009e60 <memset>
 8001708:	6822      	ldr	r2, [r4, #0]
 800170a:	4b0d      	ldr	r3, [pc, #52]	; (8001740 <HAL_TIM_MspPostInit+0x48>)
 800170c:	429a      	cmp	r2, r3
 800170e:	d114      	bne.n	800173a <HAL_TIM_MspPostInit+0x42>
 8001710:	2300      	movs	r3, #0
 8001712:	9300      	str	r3, [sp, #0]
 8001714:	4b0b      	ldr	r3, [pc, #44]	; (8001744 <HAL_TIM_MspPostInit+0x4c>)
 8001716:	480c      	ldr	r0, [pc, #48]	; (8001748 <HAL_TIM_MspPostInit+0x50>)
 8001718:	6b1a      	ldr	r2, [r3, #48]	; 0x30
 800171a:	f042 0201 	orr.w	r2, r2, #1
 800171e:	631a      	str	r2, [r3, #48]	; 0x30
 8001720:	6b1b      	ldr	r3, [r3, #48]	; 0x30
 8001722:	f003 0301 	and.w	r3, r3, #1
 8001726:	9300      	str	r3, [sp, #0]
 8001728:	9b00      	ldr	r3, [sp, #0]
 800172a:	2280      	movs	r2, #128	; 0x80
 800172c:	2302      	movs	r3, #2
 800172e:	a901      	add	r1, sp, #4
 8001730:	e9cd 2301 	strd	r2, r3, [sp, #4]
 8001734:	9305      	str	r3, [sp, #20]
 8001736:	f002 f8af 	bl	8003898 <HAL_GPIO_Init>
 800173a:	b006      	add	sp, #24
 800173c:	bd10      	pop	{r4, pc}
 800173e:	bf00      	nop
 8001740:	40000400 	.word	0x40000400
 8001744:	40023800 	.word	0x40023800
 8001748:	40020000 	.word	0x40020000

0800174c <HAL_UART_MspInit>:
 800174c:	b510      	push	{r4, lr}
 800174e:	4604      	mov	r4, r0
 8001750:	b088      	sub	sp, #32
 8001752:	2214      	movs	r2, #20
 8001754:	2100      	movs	r1, #0
 8001756:	a803      	add	r0, sp, #12
 8001758:	f008 fb82 	bl	8009e60 <memset>
 800175c:	6822      	ldr	r2, [r4, #0]
 800175e:	4b14      	ldr	r3, [pc, #80]	; (80017b0 <HAL_UART_MspInit+0x64>)
 8001760:	429a      	cmp	r2, r3
 8001762:	d122      	bne.n	80017aa <HAL_UART_MspInit+0x5e>
 8001764:	f503 33fa 	add.w	r3, r3, #128000	; 0x1f400
 8001768:	2100      	movs	r1, #0
 800176a:	9101      	str	r1, [sp, #4]
 800176c:	6c1a      	ldr	r2, [r3, #64]	; 0x40
 800176e:	4811      	ldr	r0, [pc, #68]	; (80017b4 <HAL_UART_MspInit+0x68>)
 8001770:	f442 3200 	orr.w	r2, r2, #131072	; 0x20000
 8001774:	641a      	str	r2, [r3, #64]	; 0x40
 8001776:	6c1a      	ldr	r2, [r3, #64]	; 0x40
 8001778:	f402 3200 	and.w	r2, r2, #131072	; 0x20000
 800177c:	9201      	str	r2, [sp, #4]
 800177e:	9a01      	ldr	r2, [sp, #4]
 8001780:	9102      	str	r1, [sp, #8]
 8001782:	6b1a      	ldr	r2, [r3, #48]	; 0x30
 8001784:	f042 0201 	orr.w	r2, r2, #1
 8001788:	631a      	str	r2, [r3, #48]	; 0x30
 800178a:	6b1b      	ldr	r3, [r3, #48]	; 0x30
 800178c:	f003 0301 	and.w	r3, r3, #1
 8001790:	9302      	str	r3, [sp, #8]
 8001792:	9b02      	ldr	r3, [sp, #8]
 8001794:	220c      	movs	r2, #12
 8001796:	2302      	movs	r3, #2
 8001798:	2103      	movs	r1, #3
 800179a:	e9cd 2303 	strd	r2, r3, [sp, #12]
 800179e:	2307      	movs	r3, #7
 80017a0:	e9cd 1306 	strd	r1, r3, [sp, #24]
 80017a4:	a903      	add	r1, sp, #12
 80017a6:	f002 f877 	bl	8003898 <HAL_GPIO_Init>
 80017aa:	b008      	add	sp, #32
 80017ac:	bd10      	pop	{r4, pc}
 80017ae:	bf00      	nop
 80017b0:	40004400 	.word	0x40004400
 80017b4:	40020000 	.word	0x40020000

080017b8 <NMI_Handler>:
 80017b8:	e7fe      	b.n	80017b8 <NMI_Handler>

080017ba <HardFault_Handler>:
 80017ba:	e7fe      	b.n	80017ba <HardFault_Handler>

080017bc <MemManage_Handler>:
 80017bc:	e7fe      	b.n	80017bc <MemManage_Handler>

080017be <BusFault_Handler>:
 80017be:	e7fe      	b.n	80017be <BusFault_Handler>

080017c0 <UsageFault_Handler>:
 80017c0:	e7fe      	b.n	80017c0 <UsageFault_Handler>

080017c2 <SVC_Handler>:
 80017c2:	4770      	bx	lr

080017c4 <DebugMon_Handler>:
 80017c4:	4770      	bx	lr

080017c6 <PendSV_Handler>:
 80017c6:	4770      	bx	lr

080017c8 <SysTick_Handler>:
 80017c8:	f001 bddc 	b.w	8003384 <HAL_IncTick>

080017cc <DMA1_Stream4_IRQHandler>:
 80017cc:	4801      	ldr	r0, [pc, #4]	; (80017d4 <DMA1_Stream4_IRQHandler+0x8>)
 80017ce:	f001 bfa5 	b.w	800371c <HAL_DMA_IRQHandler>
 80017d2:	bf00      	nop
 80017d4:	2000637c 	.word	0x2000637c

080017d8 <DMA1_Stream5_IRQHandler>:
 80017d8:	4801      	ldr	r0, [pc, #4]	; (80017e0 <DMA1_Stream5_IRQHandler+0x8>)
 80017da:	f001 bf9f 	b.w	800371c <HAL_DMA_IRQHandler>
 80017de:	bf00      	nop
 80017e0:	200062d8 	.word	0x200062d8

080017e4 <SPI2_IRQHandler>:
 80017e4:	4801      	ldr	r0, [pc, #4]	; (80017ec <SPI2_IRQHandler+0x8>)
 80017e6:	f004 bcf5 	b.w	80061d4 <HAL_SPI_IRQHandler>
 80017ea:	bf00      	nop
 80017ec:	200059dc 	.word	0x200059dc

080017f0 <EXTI15_10_IRQHandler>:
 80017f0:	f44f 6000 	mov.w	r0, #2048	; 0x800
 80017f4:	f002 b9cc 	b.w	8003b90 <HAL_GPIO_EXTI_IRQHandler>

080017f8 <OTG_FS_IRQHandler>:
 80017f8:	4801      	ldr	r0, [pc, #4]	; (8001800 <OTG_FS_IRQHandler+0x8>)
 80017fa:	f002 bacd 	b.w	8003d98 <HAL_HCD_IRQHandler>
 80017fe:	bf00      	nop
 8001800:	20007004 	.word	0x20007004

08001804 <note_on>:
 8001804:	b538      	push	{r3, r4, r5, lr}
 8001806:	460c      	mov	r4, r1
 8001808:	4615      	mov	r5, r2
 800180a:	f001 fc43 	bl	8003094 <BSP_AUDIO_OUT_Resume>
 800180e:	4809      	ldr	r0, [pc, #36]	; (8001834 <note_on+0x30>)
 8001810:	f990 3010 	ldrsb.w	r3, [r0, #16]
 8001814:	b11b      	cbz	r3, 800181e <note_on+0x1a>
 8001816:	f990 3024 	ldrsb.w	r3, [r0, #36]	; 0x24
 800181a:	b953      	cbnz	r3, 8001832 <note_on+0x2e>
 800181c:	2301      	movs	r3, #1
 800181e:	2214      	movs	r2, #20
 8001820:	fb02 0003 	mla	r0, r2, r3, r0
 8001824:	b261      	sxtb	r1, r4
 8001826:	b26a      	sxtb	r2, r5
 8001828:	3004      	adds	r0, #4
 800182a:	e8bd 4038 	ldmia.w	sp!, {r3, r4, r5, lr}
 800182e:	f000 ba81 	b.w	8001d34 <wavetable_note_on>
 8001832:	bd38      	pop	{r3, r4, r5, pc}
 8001834:	20006464 	.word	0x20006464

08001838 <note_off>:
 8001838:	b510      	push	{r4, lr}
 800183a:	460c      	mov	r4, r1
 800183c:	f001 fc16 	bl	800306c <BSP_AUDIO_OUT_Pause>
 8001840:	480a      	ldr	r0, [pc, #40]	; (800186c <note_off+0x34>)
 8001842:	f990 3010 	ldrsb.w	r3, [r0, #16]
 8001846:	42a3      	cmp	r3, r4
 8001848:	d00c      	beq.n	8001864 <note_off+0x2c>
 800184a:	f990 3024 	ldrsb.w	r3, [r0, #36]	; 0x24
 800184e:	429c      	cmp	r4, r3
 8001850:	d10a      	bne.n	8001868 <note_off+0x30>
 8001852:	2301      	movs	r3, #1
 8001854:	2214      	movs	r2, #20
 8001856:	fb02 0003 	mla	r0, r2, r3, r0
 800185a:	e8bd 4010 	ldmia.w	sp!, {r4, lr}
 800185e:	3004      	adds	r0, #4
 8001860:	f000 ba82 	b.w	8001d68 <wavetable_note_off>
 8001864:	2300      	movs	r3, #0
 8001866:	e7f5      	b.n	8001854 <note_off+0x1c>
 8001868:	bd10      	pop	{r4, pc}
 800186a:	bf00      	nop
 800186c:	20006464 	.word	0x20006464

08001870 <update_audio_buffer>:
 8001870:	e92d 41f0 	stmdb	sp!, {r4, r5, r6, r7, r8, lr}
 8001874:	4c48      	ldr	r4, [pc, #288]	; (8001998 <update_audio_buffer+0x128>)
 8001876:	ed2d 8b02 	vpush	{d8}
 800187a:	460e      	mov	r6, r1
 800187c:	f44f 6200 	mov.w	r2, #2048	; 0x800
 8001880:	2100      	movs	r1, #0
 8001882:	4605      	mov	r5, r0
 8001884:	4845      	ldr	r0, [pc, #276]	; (800199c <update_audio_buffer+0x12c>)
 8001886:	f008 faeb 	bl	8009e60 <memset>
 800188a:	f44f 6200 	mov.w	r2, #2048	; 0x800
 800188e:	2100      	movs	r1, #0
 8001890:	4620      	mov	r0, r4
 8001892:	f008 fae5 	bl	8009e60 <memset>
 8001896:	f5a4 6800 	sub.w	r8, r4, #2048	; 0x800
 800189a:	4632      	mov	r2, r6
 800189c:	f5a4 6100 	sub.w	r1, r4, #2048	; 0x800
 80018a0:	483f      	ldr	r0, [pc, #252]	; (80019a0 <update_audio_buffer+0x130>)
 80018a2:	f000 fa7b 	bl	8001d9c <wavetable_get_samples>
 80018a6:	4627      	mov	r7, r4
 80018a8:	4623      	mov	r3, r4
 80018aa:	4642      	mov	r2, r8
 80018ac:	2100      	movs	r1, #0
 80018ae:	428e      	cmp	r6, r1
 80018b0:	f102 0208 	add.w	r2, r2, #8
 80018b4:	f103 0308 	add.w	r3, r3, #8
 80018b8:	d011      	beq.n	80018de <update_audio_buffer+0x6e>
 80018ba:	ed12 7a02 	vldr	s14, [r2, #-8]
 80018be:	ed53 7a02 	vldr	s15, [r3, #-8]
 80018c2:	ee77 7a87 	vadd.f32	s15, s15, s14
 80018c6:	3101      	adds	r1, #1
 80018c8:	ed43 7a02 	vstr	s15, [r3, #-8]
 80018cc:	ed12 7a01 	vldr	s14, [r2, #-4]
 80018d0:	ed53 7a01 	vldr	s15, [r3, #-4]
 80018d4:	ee77 7a87 	vadd.f32	s15, s15, s14
 80018d8:	ed43 7a01 	vstr	s15, [r3, #-4]
 80018dc:	e7e7      	b.n	80018ae <update_audio_buffer+0x3e>
 80018de:	492f      	ldr	r1, [pc, #188]	; (800199c <update_audio_buffer+0x12c>)
 80018e0:	4830      	ldr	r0, [pc, #192]	; (80019a4 <update_audio_buffer+0x134>)
 80018e2:	4632      	mov	r2, r6
 80018e4:	f000 fa5a 	bl	8001d9c <wavetable_get_samples>
 80018e8:	2300      	movs	r3, #0
 80018ea:	42b3      	cmp	r3, r6
 80018ec:	f108 0808 	add.w	r8, r8, #8
 80018f0:	f104 0408 	add.w	r4, r4, #8
 80018f4:	d10c      	bne.n	8001910 <update_audio_buffer+0xa0>
 80018f6:	4e2c      	ldr	r6, [pc, #176]	; (80019a8 <update_audio_buffer+0x138>)
 80018f8:	462c      	mov	r4, r5
 80018fa:	eb06 0685 	add.w	r6, r6, r5, lsl #2
 80018fe:	eef7 8a00 	vmov.f32	s17, #112	; 0x3f800000  1.0
 8001902:	441d      	add	r5, r3
 8001904:	42a5      	cmp	r5, r4
 8001906:	d815      	bhi.n	8001934 <update_audio_buffer+0xc4>
 8001908:	ecbd 8b02 	vpop	{d8}
 800190c:	e8bd 81f0 	ldmia.w	sp!, {r4, r5, r6, r7, r8, pc}
 8001910:	ed18 7a02 	vldr	s14, [r8, #-8]
 8001914:	ed54 7a02 	vldr	s15, [r4, #-8]
 8001918:	ee77 7a87 	vadd.f32	s15, s15, s14
 800191c:	3301      	adds	r3, #1
 800191e:	ed44 7a02 	vstr	s15, [r4, #-8]
 8001922:	ed18 7a01 	vldr	s14, [r8, #-4]
 8001926:	ed54 7a01 	vldr	s15, [r4, #-4]
 800192a:	ee77 7a87 	vadd.f32	s15, s15, s14
 800192e:	ed44 7a01 	vstr	s15, [r4, #-4]
 8001932:	e7da      	b.n	80018ea <update_audio_buffer+0x7a>
 8001934:	ed97 0a00 	vldr	s0, [r7]
 8001938:	ed97 8a01 	vldr	s16, [r7, #4]
 800193c:	eeb4 0ae8 	vcmpe.f32	s0, s17
 8001940:	eef1 fa10 	vmrs	APSR_nzcv, fpscr
 8001944:	dc22      	bgt.n	800198c <update_audio_buffer+0x11c>
 8001946:	eeff 7a00 	vmov.f32	s15, #240	; 0xbf800000 -1.0
 800194a:	eeb4 0a67 	vcmp.f32	s0, s15
 800194e:	eef1 fa10 	vmrs	APSR_nzcv, fpscr
 8001952:	bf48      	it	mi
 8001954:	eeb0 0a67 	vmovmi.f32	s0, s15
 8001958:	eeb4 8ae8 	vcmpe.f32	s16, s17
 800195c:	eef1 fa10 	vmrs	APSR_nzcv, fpscr
 8001960:	dc17      	bgt.n	8001992 <update_audio_buffer+0x122>
 8001962:	eeff 7a00 	vmov.f32	s15, #240	; 0xbf800000 -1.0
 8001966:	eeb4 8a67 	vcmp.f32	s16, s15
 800196a:	eef1 fa10 	vmrs	APSR_nzcv, fpscr
 800196e:	bf48      	it	mi
 8001970:	eeb0 8a67 	vmovmi.f32	s16, s15
 8001974:	f000 f8a8 	bl	8001ac8 <float2uint16>
 8001978:	eeb0 0a48 	vmov.f32	s0, s16
 800197c:	8030      	strh	r0, [r6, #0]
 800197e:	f000 f8a3 	bl	8001ac8 <float2uint16>
 8001982:	3401      	adds	r4, #1
 8001984:	8070      	strh	r0, [r6, #2]
 8001986:	3708      	adds	r7, #8
 8001988:	3604      	adds	r6, #4
 800198a:	e7bb      	b.n	8001904 <update_audio_buffer+0x94>
 800198c:	eeb7 0a00 	vmov.f32	s0, #112	; 0x3f800000  1.0
 8001990:	e7e2      	b.n	8001958 <update_audio_buffer+0xe8>
 8001992:	eeb7 8a00 	vmov.f32	s16, #112	; 0x3f800000  1.0
 8001996:	e7ed      	b.n	8001974 <update_audio_buffer+0x104>
 8001998:	200008fc 	.word	0x200008fc
 800199c:	200000fc 	.word	0x200000fc
 80019a0:	20006468 	.word	0x20006468
 80019a4:	2000647c 	.word	0x2000647c
 80019a8:	20006494 	.word	0x20006494

080019ac <audio_init>:
 80019ac:	b508      	push	{r3, lr}
 80019ae:	f44f 7180 	mov.w	r1, #256	; 0x100
 80019b2:	2000      	movs	r0, #0
 80019b4:	f7ff ff5c 	bl	8001870 <update_audio_buffer>
 80019b8:	f64b 3280 	movw	r2, #48000	; 0xbb80
 80019bc:	2156      	movs	r1, #86	; 0x56
 80019be:	2002      	movs	r0, #2
 80019c0:	f001 fc38 	bl	8003234 <BSP_AUDIO_OUT_Init>
 80019c4:	b108      	cbz	r0, 80019ca <audio_init+0x1e>
 80019c6:	f7ff fcc1 	bl	800134c <Error_Handler>
 80019ca:	e8bd 4008 	ldmia.w	sp!, {r3, lr}
 80019ce:	4802      	ldr	r0, [pc, #8]	; (80019d8 <audio_init+0x2c>)
 80019d0:	f44f 6180 	mov.w	r1, #1024	; 0x400
 80019d4:	f001 bb2c 	b.w	8003030 <BSP_AUDIO_OUT_Play>
 80019d8:	20006494 	.word	0x20006494

080019dc <synth_init>:
 80019dc:	b510      	push	{r4, lr}
 80019de:	4c0a      	ldr	r4, [pc, #40]	; (8001a08 <synth_init+0x2c>)
 80019e0:	4620      	mov	r0, r4
 80019e2:	f240 2301 	movw	r3, #513	; 0x201
 80019e6:	f820 3b04 	strh.w	r3, [r0], #4
 80019ea:	2101      	movs	r1, #1
 80019ec:	f000 f97a 	bl	8001ce4 <wavetable_init>
 80019f0:	4620      	mov	r0, r4
 80019f2:	f810 1b18 	ldrb.w	r1, [r0], #24
 80019f6:	f000 f975 	bl	8001ce4 <wavetable_init>
 80019fa:	2300      	movs	r3, #0
 80019fc:	62e3      	str	r3, [r4, #44]	; 0x2c
 80019fe:	e8bd 4010 	ldmia.w	sp!, {r4, lr}
 8001a02:	f7ff bfd3 	b.w	80019ac <audio_init>
 8001a06:	bf00      	nop
 8001a08:	20006464 	.word	0x20006464

08001a0c <BSP_AUDIO_OUT_HalfTransfer_CallBack>:
 8001a0c:	b508      	push	{r3, lr}
 8001a0e:	2180      	movs	r1, #128	; 0x80
 8001a10:	2000      	movs	r0, #0
 8001a12:	f7ff ff2d 	bl	8001870 <update_audio_buffer>
 8001a16:	4b05      	ldr	r3, [pc, #20]	; (8001a2c <BSP_AUDIO_OUT_HalfTransfer_CallBack+0x20>)
 8001a18:	ed9f 7a05 	vldr	s14, [pc, #20]	; 8001a30 <BSP_AUDIO_OUT_HalfTransfer_CallBack+0x24>
 8001a1c:	edd3 7a0b 	vldr	s15, [r3, #44]	; 0x2c
 8001a20:	ee77 7a87 	vadd.f32	s15, s15, s14
 8001a24:	edc3 7a0b 	vstr	s15, [r3, #44]	; 0x2c
 8001a28:	bd08      	pop	{r3, pc}
 8001a2a:	bf00      	nop
 8001a2c:	20006464 	.word	0x20006464
 8001a30:	3b2ec33e 	.word	0x3b2ec33e

08001a34 <BSP_AUDIO_OUT_TransferComplete_CallBack>:
 8001a34:	2180      	movs	r1, #128	; 0x80
 8001a36:	b508      	push	{r3, lr}
 8001a38:	4608      	mov	r0, r1
 8001a3a:	f7ff ff19 	bl	8001870 <update_audio_buffer>
 8001a3e:	4b05      	ldr	r3, [pc, #20]	; (8001a54 <BSP_AUDIO_OUT_TransferComplete_CallBack+0x20>)
 8001a40:	ed9f 7a05 	vldr	s14, [pc, #20]	; 8001a58 <BSP_AUDIO_OUT_TransferComplete_CallBack+0x24>
 8001a44:	edd3 7a0b 	vldr	s15, [r3, #44]	; 0x2c
 8001a48:	ee77 7a87 	vadd.f32	s15, s15, s14
 8001a4c:	edc3 7a0b 	vstr	s15, [r3, #44]	; 0x2c
 8001a50:	bd08      	pop	{r3, pc}
 8001a52:	bf00      	nop
 8001a54:	20006464 	.word	0x20006464
 8001a58:	3b2ec33e 	.word	0x3b2ec33e

08001a5c <BSP_AUDIO_OUT_Error_CallBack>:
 8001a5c:	4801      	ldr	r0, [pc, #4]	; (8001a64 <BSP_AUDIO_OUT_Error_CallBack+0x8>)
 8001a5e:	f008 bb6d 	b.w	800a13c <puts>
 8001a62:	bf00      	nop
 8001a64:	0800c974 	.word	0x0800c974

08001a68 <pitch_to_freq>:
 8001a68:	ee07 0a90 	vmov	s15, r0
 8001a6c:	b508      	push	{r3, lr}
 8001a6e:	ed9f 7a13 	vldr	s14, [pc, #76]	; 8001abc <pitch_to_freq+0x54>
 8001a72:	eef8 7a67 	vcvt.f32.u32	s15, s15
 8001a76:	ed2d 8b02 	vpush	{d8}
 8001a7a:	ee77 7ac7 	vsub.f32	s15, s15, s14
 8001a7e:	ee17 0a90 	vmov	r0, s15
 8001a82:	f7fe fd61 	bl	8000548 <__aeabi_f2d>
 8001a86:	4b0e      	ldr	r3, [pc, #56]	; (8001ac0 <pitch_to_freq+0x58>)
 8001a88:	ec41 0b18 	vmov	d8, r0, r1
 8001a8c:	6818      	ldr	r0, [r3, #0]
 8001a8e:	f7fe fd5b 	bl	8000548 <__aeabi_f2d>
 8001a92:	eeb0 1a48 	vmov.f32	s2, s16
 8001a96:	eef0 1a68 	vmov.f32	s3, s17
 8001a9a:	ec41 0b10 	vmov	d0, r0, r1
 8001a9e:	f006 fb23 	bl	80080e8 <pow>
 8001aa2:	4b08      	ldr	r3, [pc, #32]	; (8001ac4 <pitch_to_freq+0x5c>)
 8001aa4:	ec51 0b10 	vmov	r0, r1, d0
 8001aa8:	2200      	movs	r2, #0
 8001aaa:	f7fe fda5 	bl	80005f8 <__aeabi_dmul>
 8001aae:	f7ff f87b 	bl	8000ba8 <__aeabi_d2f>
 8001ab2:	ecbd 8b02 	vpop	{d8}
 8001ab6:	ee00 0a10 	vmov	s0, r0
 8001aba:	bd08      	pop	{r3, pc}
 8001abc:	428a0000 	.word	0x428a0000
 8001ac0:	2000000c 	.word	0x2000000c
 8001ac4:	407b8000 	.word	0x407b8000

08001ac8 <float2uint16>:
 8001ac8:	eddf 7a0b 	vldr	s15, [pc, #44]	; 8001af8 <float2uint16+0x30>
 8001acc:	ee60 7a27 	vmul.f32	s15, s0, s15
 8001ad0:	b508      	push	{r3, lr}
 8001ad2:	ee17 0a90 	vmov	r0, s15
 8001ad6:	f7fe fd37 	bl	8000548 <__aeabi_f2d>
 8001ada:	a305      	add	r3, pc, #20	; (adr r3, 8001af0 <float2uint16+0x28>)
 8001adc:	e9d3 2300 	ldrd	r2, r3, [r3]
 8001ae0:	f7fe fbd4 	bl	800028c <__adddf3>
 8001ae4:	f7ff f838 	bl	8000b58 <__aeabi_d2iz>
 8001ae8:	f5a0 4000 	sub.w	r0, r0, #32768	; 0x8000
 8001aec:	b280      	uxth	r0, r0
 8001aee:	bd08      	pop	{r3, pc}
 8001af0:	00000000 	.word	0x00000000
 8001af4:	40e00010 	.word	0x40e00010
 8001af8:	46fffe00 	.word	0x46fffe00

08001afc <_read>:
 8001afc:	b570      	push	{r4, r5, r6, lr}
 8001afe:	460d      	mov	r5, r1
 8001b00:	4614      	mov	r4, r2
 8001b02:	460e      	mov	r6, r1
 8001b04:	1b73      	subs	r3, r6, r5
 8001b06:	429c      	cmp	r4, r3
 8001b08:	dc01      	bgt.n	8001b0e <_read+0x12>
 8001b0a:	4620      	mov	r0, r4
 8001b0c:	bd70      	pop	{r4, r5, r6, pc}
 8001b0e:	f3af 8000 	nop.w
 8001b12:	f806 0b01 	strb.w	r0, [r6], #1
 8001b16:	e7f5      	b.n	8001b04 <_read+0x8>

08001b18 <_write>:
 8001b18:	b570      	push	{r4, r5, r6, lr}
 8001b1a:	460d      	mov	r5, r1
 8001b1c:	4614      	mov	r4, r2
 8001b1e:	460e      	mov	r6, r1
 8001b20:	1b73      	subs	r3, r6, r5
 8001b22:	429c      	cmp	r4, r3
 8001b24:	dc01      	bgt.n	8001b2a <_write+0x12>
 8001b26:	4620      	mov	r0, r4
 8001b28:	bd70      	pop	{r4, r5, r6, pc}
 8001b2a:	f816 0b01 	ldrb.w	r0, [r6], #1
 8001b2e:	f3af 8000 	nop.w
 8001b32:	e7f5      	b.n	8001b20 <_write+0x8>

08001b34 <_close>:
 8001b34:	f04f 30ff 	mov.w	r0, #4294967295
 8001b38:	4770      	bx	lr

08001b3a <_fstat>:
 8001b3a:	f44f 5300 	mov.w	r3, #8192	; 0x2000
 8001b3e:	604b      	str	r3, [r1, #4]
 8001b40:	2000      	movs	r0, #0
 8001b42:	4770      	bx	lr

08001b44 <_isatty>:
 8001b44:	2001      	movs	r0, #1
 8001b46:	4770      	bx	lr

08001b48 <_lseek>:
 8001b48:	2000      	movs	r0, #0
 8001b4a:	4770      	bx	lr

08001b4c <_sbrk>:
 8001b4c:	4a0b      	ldr	r2, [pc, #44]	; (8001b7c <_sbrk+0x30>)
 8001b4e:	6811      	ldr	r1, [r2, #0]
 8001b50:	b510      	push	{r4, lr}
 8001b52:	4603      	mov	r3, r0
 8001b54:	b909      	cbnz	r1, 8001b5a <_sbrk+0xe>
 8001b56:	490a      	ldr	r1, [pc, #40]	; (8001b80 <_sbrk+0x34>)
 8001b58:	6011      	str	r1, [r2, #0]
 8001b5a:	6810      	ldr	r0, [r2, #0]
 8001b5c:	4909      	ldr	r1, [pc, #36]	; (8001b84 <_sbrk+0x38>)
 8001b5e:	4c0a      	ldr	r4, [pc, #40]	; (8001b88 <_sbrk+0x3c>)
 8001b60:	4403      	add	r3, r0
 8001b62:	1b09      	subs	r1, r1, r4
 8001b64:	428b      	cmp	r3, r1
 8001b66:	d906      	bls.n	8001b76 <_sbrk+0x2a>
 8001b68:	f008 f940 	bl	8009dec <__errno>
 8001b6c:	230c      	movs	r3, #12
 8001b6e:	6003      	str	r3, [r0, #0]
 8001b70:	f04f 30ff 	mov.w	r0, #4294967295
 8001b74:	bd10      	pop	{r4, pc}
 8001b76:	6013      	str	r3, [r2, #0]
 8001b78:	e7fc      	b.n	8001b74 <_sbrk+0x28>
 8001b7a:	bf00      	nop
 8001b7c:	200018fc 	.word	0x200018fc
 8001b80:	20007308 	.word	0x20007308
 8001b84:	20020000 	.word	0x20020000
 8001b88:	00000400 	.word	0x00000400

08001b8c <SystemInit>:
 8001b8c:	4a03      	ldr	r2, [pc, #12]	; (8001b9c <SystemInit+0x10>)
 8001b8e:	f8d2 3088 	ldr.w	r3, [r2, #136]	; 0x88
 8001b92:	f443 0370 	orr.w	r3, r3, #15728640	; 0xf00000
 8001b96:	f8c2 3088 	str.w	r3, [r2, #136]	; 0x88
 8001b9a:	4770      	bx	lr
 8001b9c:	e000ed00 	.word	0xe000ed00

08001ba0 <wavetable_sine_init>:
 8001ba0:	b538      	push	{r3, r4, r5, lr}
 8001ba2:	4d0f      	ldr	r5, [pc, #60]	; (8001be0 <wavetable_sine_init+0x40>)
 8001ba4:	ed2d 8b02 	vpush	{d8}
 8001ba8:	ed9f 8a0e 	vldr	s16, [pc, #56]	; 8001be4 <wavetable_sine_init+0x44>
 8001bac:	eddf 8a0e 	vldr	s17, [pc, #56]	; 8001be8 <wavetable_sine_init+0x48>
 8001bb0:	f44f 7480 	mov.w	r4, #256	; 0x100
 8001bb4:	ee18 0a10 	vmov	r0, s16
 8001bb8:	f7fe fcc6 	bl	8000548 <__aeabi_f2d>
 8001bbc:	ec41 0b10 	vmov	d0, r0, r1
 8001bc0:	f006 fa3a 	bl	8008038 <sin>
 8001bc4:	ec51 0b10 	vmov	r0, r1, d0
 8001bc8:	f7fe ffee 	bl	8000ba8 <__aeabi_d2f>
 8001bcc:	3c01      	subs	r4, #1
 8001bce:	f845 0b04 	str.w	r0, [r5], #4
 8001bd2:	ee38 8a28 	vadd.f32	s16, s16, s17
 8001bd6:	d1ed      	bne.n	8001bb4 <wavetable_sine_init+0x14>
 8001bd8:	ecbd 8b02 	vpop	{d8}
 8001bdc:	bd38      	pop	{r3, r4, r5, pc}
 8001bde:	bf00      	nop
 8001be0:	20005e90 	.word	0x20005e90
 8001be4:	00000000 	.word	0x00000000
 8001be8:	3cc90fdb 	.word	0x3cc90fdb
 8001bec:	00000000 	.word	0x00000000

08001bf0 <wavetable_saw_init>:
 8001bf0:	e92d 4ff8 	stmdb	sp!, {r3, r4, r5, r6, r7, r8, r9, sl, fp, lr}
 8001bf4:	4838      	ldr	r0, [pc, #224]	; (8001cd8 <wavetable_saw_init+0xe8>)
 8001bf6:	ed2d 8b06 	vpush	{d8-d10}
 8001bfa:	f44f 6280 	mov.w	r2, #1024	; 0x400
 8001bfe:	2100      	movs	r1, #0
 8001c00:	f008 f92e 	bl	8009e60 <memset>
 8001c04:	2401      	movs	r4, #1
 8001c06:	eebf 9a00 	vmov.f32	s18, #240	; 0xbf800000 -1.0
 8001c0a:	eef7 9a00 	vmov.f32	s19, #112	; 0x3f800000  1.0
 8001c0e:	4620      	mov	r0, r4
 8001c10:	f7fe fc88 	bl	8000524 <__aeabi_i2d>
 8001c14:	4602      	mov	r2, r0
 8001c16:	460b      	mov	r3, r1
 8001c18:	4682      	mov	sl, r0
 8001c1a:	468b      	mov	fp, r1
 8001c1c:	f7fe fb36 	bl	800028c <__adddf3>
 8001c20:	a329      	add	r3, pc, #164	; (adr r3, 8001cc8 <wavetable_saw_init+0xd8>)
 8001c22:	e9d3 2300 	ldrd	r2, r3, [r3]
 8001c26:	f7fe fce7 	bl	80005f8 <__aeabi_dmul>
 8001c2a:	4b2c      	ldr	r3, [pc, #176]	; (8001cdc <wavetable_saw_init+0xec>)
 8001c2c:	4e2a      	ldr	r6, [pc, #168]	; (8001cd8 <wavetable_saw_init+0xe8>)
 8001c2e:	ed9f 8a2c 	vldr	s16, [pc, #176]	; 8001ce0 <wavetable_saw_init+0xf0>
 8001c32:	2200      	movs	r2, #0
 8001c34:	f7fe fce0 	bl	80005f8 <__aeabi_dmul>
 8001c38:	f7fe ffb6 	bl	8000ba8 <__aeabi_d2f>
 8001c3c:	f014 0f01 	tst.w	r4, #1
 8001c40:	bf0c      	ite	eq
 8001c42:	eef0 7a69 	vmoveq.f32	s15, s19
 8001c46:	eef0 7a49 	vmovne.f32	s15, s18
 8001c4a:	ee08 0a90 	vmov	s17, r0
 8001c4e:	eeb0 aa67 	vmov.f32	s20, s15
 8001c52:	2500      	movs	r5, #0
 8001c54:	ee18 0a10 	vmov	r0, s16
 8001c58:	f7fe fc76 	bl	8000548 <__aeabi_f2d>
 8001c5c:	ec41 0b10 	vmov	d0, r0, r1
 8001c60:	f006 f9ea 	bl	8008038 <sin>
 8001c64:	ec59 8b10 	vmov	r8, r9, d0
 8001c68:	ee1a 0a10 	vmov	r0, s20
 8001c6c:	f7fe fc6c 	bl	8000548 <__aeabi_f2d>
 8001c70:	4642      	mov	r2, r8
 8001c72:	464b      	mov	r3, r9
 8001c74:	f7fe fcc0 	bl	80005f8 <__aeabi_dmul>
 8001c78:	4652      	mov	r2, sl
 8001c7a:	465b      	mov	r3, fp
 8001c7c:	f7fe fde6 	bl	800084c <__aeabi_ddiv>
 8001c80:	a313      	add	r3, pc, #76	; (adr r3, 8001cd0 <wavetable_saw_init+0xe0>)
 8001c82:	e9d3 2300 	ldrd	r2, r3, [r3]
 8001c86:	f7fe fcb7 	bl	80005f8 <__aeabi_dmul>
 8001c8a:	6837      	ldr	r7, [r6, #0]
 8001c8c:	4680      	mov	r8, r0
 8001c8e:	4638      	mov	r0, r7
 8001c90:	4689      	mov	r9, r1
 8001c92:	f7fe fc59 	bl	8000548 <__aeabi_f2d>
 8001c96:	4602      	mov	r2, r0
 8001c98:	460b      	mov	r3, r1
 8001c9a:	4640      	mov	r0, r8
 8001c9c:	4649      	mov	r1, r9
 8001c9e:	f7fe faf5 	bl	800028c <__adddf3>
 8001ca2:	f7fe ff81 	bl	8000ba8 <__aeabi_d2f>
 8001ca6:	3501      	adds	r5, #1
 8001ca8:	f5b5 7f80 	cmp.w	r5, #256	; 0x100
 8001cac:	f846 0b04 	str.w	r0, [r6], #4
 8001cb0:	ee38 8a28 	vadd.f32	s16, s16, s17
 8001cb4:	d1ce      	bne.n	8001c54 <wavetable_saw_init+0x64>
 8001cb6:	3401      	adds	r4, #1
 8001cb8:	2c36      	cmp	r4, #54	; 0x36
 8001cba:	d1a8      	bne.n	8001c0e <wavetable_saw_init+0x1e>
 8001cbc:	ecbd 8b06 	vpop	{d8-d10}
 8001cc0:	e8bd 8ff8 	ldmia.w	sp!, {r3, r4, r5, r6, r7, r8, r9, sl, fp, pc}
 8001cc4:	f3af 8000 	nop.w
 8001cc8:	60000000 	.word	0x60000000
 8001ccc:	400921fb 	.word	0x400921fb
 8001cd0:	60000000 	.word	0x60000000
 8001cd4:	3fe45f30 	.word	0x3fe45f30
 8001cd8:	20005a34 	.word	0x20005a34
 8001cdc:	3f700000 	.word	0x3f700000
 8001ce0:	00000000 	.word	0x00000000

08001ce4 <wavetable_init>:
 8001ce4:	b570      	push	{r4, r5, r6, lr}
 8001ce6:	4e10      	ldr	r6, [pc, #64]	; (8001d28 <wavetable_init+0x44>)
 8001ce8:	7833      	ldrb	r3, [r6, #0]
 8001cea:	4604      	mov	r4, r0
 8001cec:	460d      	mov	r5, r1
 8001cee:	b92b      	cbnz	r3, 8001cfc <wavetable_init+0x18>
 8001cf0:	f7ff ff56 	bl	8001ba0 <wavetable_sine_init>
 8001cf4:	f7ff ff7c 	bl	8001bf0 <wavetable_saw_init>
 8001cf8:	2301      	movs	r3, #1
 8001cfa:	7033      	strb	r3, [r6, #0]
 8001cfc:	2300      	movs	r3, #0
 8001cfe:	6063      	str	r3, [r4, #4]
 8001d00:	2300      	movs	r3, #0
 8001d02:	7025      	strb	r5, [r4, #0]
 8001d04:	7323      	strb	r3, [r4, #12]
 8001d06:	2020      	movs	r0, #32
 8001d08:	f7ff feae 	bl	8001a68 <pitch_to_freq>
 8001d0c:	ed9f 7a07 	vldr	s14, [pc, #28]	; 8001d2c <wavetable_init+0x48>
 8001d10:	ed84 0a04 	vstr	s0, [r4, #16]
 8001d14:	eec0 7a07 	vdiv.f32	s15, s0, s14
 8001d18:	ed9f 7a05 	vldr	s14, [pc, #20]	; 8001d30 <wavetable_init+0x4c>
 8001d1c:	ee67 7a87 	vmul.f32	s15, s15, s14
 8001d20:	edc4 7a02 	vstr	s15, [r4, #8]
 8001d24:	bd70      	pop	{r4, r5, r6, pc}
 8001d26:	bf00      	nop
 8001d28:	20001900 	.word	0x20001900
 8001d2c:	473b8000 	.word	0x473b8000
 8001d30:	43800000 	.word	0x43800000

08001d34 <wavetable_note_on>:
 8001d34:	2300      	movs	r3, #0
 8001d36:	b510      	push	{r4, lr}
 8001d38:	4604      	mov	r4, r0
 8001d3a:	6043      	str	r3, [r0, #4]
 8001d3c:	7301      	strb	r1, [r0, #12]
 8001d3e:	b2c8      	uxtb	r0, r1
 8001d40:	f7ff fe92 	bl	8001a68 <pitch_to_freq>
 8001d44:	ed9f 7a06 	vldr	s14, [pc, #24]	; 8001d60 <wavetable_note_on+0x2c>
 8001d48:	ed84 0a04 	vstr	s0, [r4, #16]
 8001d4c:	eec0 7a07 	vdiv.f32	s15, s0, s14
 8001d50:	ed9f 7a04 	vldr	s14, [pc, #16]	; 8001d64 <wavetable_note_on+0x30>
 8001d54:	ee67 7a87 	vmul.f32	s15, s15, s14
 8001d58:	edc4 7a02 	vstr	s15, [r4, #8]
 8001d5c:	bd10      	pop	{r4, pc}
 8001d5e:	bf00      	nop
 8001d60:	473b8000 	.word	0x473b8000
 8001d64:	43800000 	.word	0x43800000

08001d68 <wavetable_note_off>:
 8001d68:	2300      	movs	r3, #0
 8001d6a:	b510      	push	{r4, lr}
 8001d6c:	6043      	str	r3, [r0, #4]
 8001d6e:	2300      	movs	r3, #0
 8001d70:	4604      	mov	r4, r0
 8001d72:	7303      	strb	r3, [r0, #12]
 8001d74:	2020      	movs	r0, #32
 8001d76:	f7ff fe77 	bl	8001a68 <pitch_to_freq>
 8001d7a:	ed9f 7a06 	vldr	s14, [pc, #24]	; 8001d94 <wavetable_note_off+0x2c>
 8001d7e:	ed84 0a04 	vstr	s0, [r4, #16]
 8001d82:	eec0 7a07 	vdiv.f32	s15, s0, s14
 8001d86:	ed9f 7a04 	vldr	s14, [pc, #16]	; 8001d98 <wavetable_note_off+0x30>
 8001d8a:	ee67 7a87 	vmul.f32	s15, s15, s14
 8001d8e:	edc4 7a02 	vstr	s15, [r4, #8]
 8001d92:	bd10      	pop	{r4, pc}
 8001d94:	473b8000 	.word	0x473b8000
 8001d98:	43800000 	.word	0x43800000

08001d9c <wavetable_get_samples>:
 8001d9c:	b5f0      	push	{r4, r5, r6, r7, lr}
 8001d9e:	ed9f 7a14 	vldr	s14, [pc, #80]	; 8001df0 <wavetable_get_samples+0x54>
 8001da2:	4d14      	ldr	r5, [pc, #80]	; (8001df4 <wavetable_get_samples+0x58>)
 8001da4:	4e14      	ldr	r6, [pc, #80]	; (8001df8 <wavetable_get_samples+0x5c>)
 8001da6:	2400      	movs	r4, #0
 8001da8:	4294      	cmp	r4, r2
 8001daa:	db00      	blt.n	8001dae <wavetable_get_samples+0x12>
 8001dac:	bdf0      	pop	{r4, r5, r6, r7, pc}
 8001dae:	edd0 7a01 	vldr	s15, [r0, #4]
 8001db2:	7807      	ldrb	r7, [r0, #0]
 8001db4:	eefc 7ae7 	vcvt.u32.f32	s15, s15
 8001db8:	ee17 3a90 	vmov	r3, s15
 8001dbc:	009b      	lsls	r3, r3, #2
 8001dbe:	b9af      	cbnz	r7, 8001dec <wavetable_get_samples+0x50>
 8001dc0:	4433      	add	r3, r6
 8001dc2:	681b      	ldr	r3, [r3, #0]
 8001dc4:	600b      	str	r3, [r1, #0]
 8001dc6:	604b      	str	r3, [r1, #4]
 8001dc8:	edd0 7a01 	vldr	s15, [r0, #4]
 8001dcc:	edd0 6a02 	vldr	s13, [r0, #8]
 8001dd0:	ee77 7aa6 	vadd.f32	s15, s15, s13
 8001dd4:	3401      	adds	r4, #1
 8001dd6:	eef4 7ac7 	vcmpe.f32	s15, s14
 8001dda:	eef1 fa10 	vmrs	APSR_nzcv, fpscr
 8001dde:	bfc8      	it	gt
 8001de0:	ee77 7ac7 	vsubgt.f32	s15, s15, s14
 8001de4:	3108      	adds	r1, #8
 8001de6:	edc0 7a01 	vstr	s15, [r0, #4]
 8001dea:	e7dd      	b.n	8001da8 <wavetable_get_samples+0xc>
 8001dec:	442b      	add	r3, r5
 8001dee:	e7e8      	b.n	8001dc2 <wavetable_get_samples+0x26>
 8001df0:	43800000 	.word	0x43800000
 8001df4:	20005a34 	.word	0x20005a34
 8001df8:	20005e90 	.word	0x20005e90

08001dfc <Displ_Select>:
 8001dfc:	b508      	push	{r3, lr}
 8001dfe:	4810      	ldr	r0, [pc, #64]	; (8001e40 <Displ_Select+0x44>)
 8001e00:	f44f 5180 	mov.w	r1, #4096	; 0x1000
 8001e04:	f001 feb8 	bl	8003b78 <HAL_GPIO_ReadPin>
 8001e08:	b1c0      	cbz	r0, 8001e3c <Displ_Select+0x40>
 8001e0a:	480d      	ldr	r0, [pc, #52]	; (8001e40 <Displ_Select+0x44>)
 8001e0c:	2201      	movs	r2, #1
 8001e0e:	f44f 5100 	mov.w	r1, #8192	; 0x2000
 8001e12:	f001 feb7 	bl	8003b84 <HAL_GPIO_WritePin>
 8001e16:	4b0b      	ldr	r3, [pc, #44]	; (8001e44 <Displ_Select+0x48>)
 8001e18:	4809      	ldr	r0, [pc, #36]	; (8001e40 <Displ_Select+0x44>)
 8001e1a:	681a      	ldr	r2, [r3, #0]
 8001e1c:	f022 0238 	bic.w	r2, r2, #56	; 0x38
 8001e20:	0412      	lsls	r2, r2, #16
 8001e22:	0c12      	lsrs	r2, r2, #16
 8001e24:	601a      	str	r2, [r3, #0]
 8001e26:	681a      	ldr	r2, [r3, #0]
 8001e28:	f042 0208 	orr.w	r2, r2, #8
 8001e2c:	601a      	str	r2, [r3, #0]
 8001e2e:	f44f 5180 	mov.w	r1, #4096	; 0x1000
 8001e32:	e8bd 4008 	ldmia.w	sp!, {r3, lr}
 8001e36:	2200      	movs	r2, #0
 8001e38:	f001 bea4 	b.w	8003b84 <HAL_GPIO_WritePin>
 8001e3c:	bd08      	pop	{r3, pc}
 8001e3e:	bf00      	nop
 8001e40:	40021000 	.word	0x40021000
 8001e44:	40003800 	.word	0x40003800

08001e48 <Displ_Transmit>:
 8001e48:	e92d 41f0 	stmdb	sp!, {r4, r5, r6, r7, r8, lr}
 8001e4c:	4e24      	ldr	r6, [pc, #144]	; (8001ee0 <Displ_Transmit+0x98>)
 8001e4e:	4680      	mov	r8, r0
 8001e50:	460d      	mov	r5, r1
 8001e52:	4614      	mov	r4, r2
 8001e54:	461f      	mov	r7, r3
 8001e56:	7833      	ldrb	r3, [r6, #0]
 8001e58:	2b00      	cmp	r3, #0
 8001e5a:	d0fc      	beq.n	8001e56 <Displ_Transmit+0xe>
 8001e5c:	f7ff ffce 	bl	8001dfc <Displ_Select>
 8001e60:	4820      	ldr	r0, [pc, #128]	; (8001ee4 <Displ_Transmit+0x9c>)
 8001e62:	4642      	mov	r2, r8
 8001e64:	f44f 4180 	mov.w	r1, #16384	; 0x4000
 8001e68:	f001 fe8c 	bl	8003b84 <HAL_GPIO_WritePin>
 8001e6c:	b17f      	cbz	r7, 8001e8e <Displ_Transmit+0x46>
 8001e6e:	4b1e      	ldr	r3, [pc, #120]	; (8001ee8 <Displ_Transmit+0xa0>)
 8001e70:	192a      	adds	r2, r5, r4
 8001e72:	461f      	mov	r7, r3
 8001e74:	f641 70fc 	movw	r0, #8188	; 0x1ffc
 8001e78:	42aa      	cmp	r2, r5
 8001e7a:	eba3 0407 	sub.w	r4, r3, r7
 8001e7e:	4629      	mov	r1, r5
 8001e80:	f103 0303 	add.w	r3, r3, #3
 8001e84:	d901      	bls.n	8001e8a <Displ_Transmit+0x42>
 8001e86:	4284      	cmp	r4, r0
 8001e88:	dd10      	ble.n	8001eac <Displ_Transmit+0x64>
 8001e8a:	4d17      	ldr	r5, [pc, #92]	; (8001ee8 <Displ_Transmit+0xa0>)
 8001e8c:	b2a4      	uxth	r4, r4
 8001e8e:	2300      	movs	r3, #0
 8001e90:	2c13      	cmp	r4, #19
 8001e92:	7033      	strb	r3, [r6, #0]
 8001e94:	d81d      	bhi.n	8001ed2 <Displ_Transmit+0x8a>
 8001e96:	f04f 33ff 	mov.w	r3, #4294967295
 8001e9a:	4814      	ldr	r0, [pc, #80]	; (8001eec <Displ_Transmit+0xa4>)
 8001e9c:	4622      	mov	r2, r4
 8001e9e:	4629      	mov	r1, r5
 8001ea0:	f003 fea2 	bl	8005be8 <HAL_SPI_Transmit>
 8001ea4:	2301      	movs	r3, #1
 8001ea6:	7033      	strb	r3, [r6, #0]
 8001ea8:	e8bd 81f0 	ldmia.w	sp!, {r4, r5, r6, r7, r8, pc}
 8001eac:	8809      	ldrh	r1, [r1, #0]
 8001eae:	1209      	asrs	r1, r1, #8
 8001eb0:	f021 0107 	bic.w	r1, r1, #7
 8001eb4:	f803 1c03 	strb.w	r1, [r3, #-3]
 8001eb8:	f835 1b02 	ldrh.w	r1, [r5], #2
 8001ebc:	10c9      	asrs	r1, r1, #3
 8001ebe:	f021 0103 	bic.w	r1, r1, #3
 8001ec2:	f803 1c02 	strb.w	r1, [r3, #-2]
 8001ec6:	f835 1c02 	ldrh.w	r1, [r5, #-2]
 8001eca:	00c9      	lsls	r1, r1, #3
 8001ecc:	f803 1c01 	strb.w	r1, [r3, #-1]
 8001ed0:	e7d2      	b.n	8001e78 <Displ_Transmit+0x30>
 8001ed2:	4622      	mov	r2, r4
 8001ed4:	4629      	mov	r1, r5
 8001ed6:	4805      	ldr	r0, [pc, #20]	; (8001eec <Displ_Transmit+0xa4>)
 8001ed8:	e8bd 41f0 	ldmia.w	sp!, {r4, r5, r6, r7, r8, lr}
 8001edc:	f004 b8ca 	b.w	8006074 <HAL_SPI_Transmit_DMA>
 8001ee0:	20000014 	.word	0x20000014
 8001ee4:	40021000 	.word	0x40021000
 8001ee8:	20001907 	.word	0x20001907
 8001eec:	200059dc 	.word	0x200059dc

08001ef0 <Displ_WriteCommand>:
 8001ef0:	b507      	push	{r0, r1, r2, lr}
 8001ef2:	2300      	movs	r3, #0
 8001ef4:	f88d 0007 	strb.w	r0, [sp, #7]
 8001ef8:	2201      	movs	r2, #1
 8001efa:	f10d 0107 	add.w	r1, sp, #7
 8001efe:	4618      	mov	r0, r3
 8001f00:	f7ff ffa2 	bl	8001e48 <Displ_Transmit>
 8001f04:	b003      	add	sp, #12
 8001f06:	f85d fb04 	ldr.w	pc, [sp], #4

08001f0a <Displ_WriteData>:
 8001f0a:	4613      	mov	r3, r2
 8001f0c:	b121      	cbz	r1, 8001f18 <Displ_WriteData+0xe>
 8001f0e:	b28a      	uxth	r2, r1
 8001f10:	4601      	mov	r1, r0
 8001f12:	2001      	movs	r0, #1
 8001f14:	f7ff bf98 	b.w	8001e48 <Displ_Transmit>
 8001f18:	4770      	bx	lr
	...

08001f1c <ILI9XXX_Init>:
 8001f1c:	b510      	push	{r4, lr}
 8001f1e:	4c1e      	ldr	r4, [pc, #120]	; (8001f98 <ILI9XXX_Init+0x7c>)
 8001f20:	f7ff ff6c 	bl	8001dfc <Displ_Select>
 8001f24:	2200      	movs	r2, #0
 8001f26:	f44f 4100 	mov.w	r1, #32768	; 0x8000
 8001f2a:	4620      	mov	r0, r4
 8001f2c:	f001 fe2a 	bl	8003b84 <HAL_GPIO_WritePin>
 8001f30:	2001      	movs	r0, #1
 8001f32:	f001 fa39 	bl	80033a8 <HAL_Delay>
 8001f36:	2201      	movs	r2, #1
 8001f38:	f44f 4100 	mov.w	r1, #32768	; 0x8000
 8001f3c:	4620      	mov	r0, r4
 8001f3e:	f001 fe21 	bl	8003b84 <HAL_GPIO_WritePin>
 8001f42:	2096      	movs	r0, #150	; 0x96
 8001f44:	f001 fa30 	bl	80033a8 <HAL_Delay>
 8001f48:	203a      	movs	r0, #58	; 0x3a
 8001f4a:	f7ff ffd1 	bl	8001ef0 <Displ_WriteCommand>
 8001f4e:	4c13      	ldr	r4, [pc, #76]	; (8001f9c <ILI9XXX_Init+0x80>)
 8001f50:	4813      	ldr	r0, [pc, #76]	; (8001fa0 <ILI9XXX_Init+0x84>)
 8001f52:	2200      	movs	r2, #0
 8001f54:	2101      	movs	r1, #1
 8001f56:	f7ff ffd8 	bl	8001f0a <Displ_WriteData>
 8001f5a:	20b0      	movs	r0, #176	; 0xb0
 8001f5c:	f7ff ffc8 	bl	8001ef0 <Displ_WriteCommand>
 8001f60:	2200      	movs	r2, #0
 8001f62:	2101      	movs	r1, #1
 8001f64:	4620      	mov	r0, r4
 8001f66:	f7ff ffd0 	bl	8001f0a <Displ_WriteData>
 8001f6a:	20b0      	movs	r0, #176	; 0xb0
 8001f6c:	f7ff ffc0 	bl	8001ef0 <Displ_WriteCommand>
 8001f70:	2200      	movs	r2, #0
 8001f72:	2101      	movs	r1, #1
 8001f74:	4620      	mov	r0, r4
 8001f76:	f7ff ffc8 	bl	8001f0a <Displ_WriteData>
 8001f7a:	2011      	movs	r0, #17
 8001f7c:	f7ff ffb8 	bl	8001ef0 <Displ_WriteCommand>
 8001f80:	2078      	movs	r0, #120	; 0x78
 8001f82:	f001 fa11 	bl	80033a8 <HAL_Delay>
 8001f86:	2029      	movs	r0, #41	; 0x29
 8001f88:	f7ff ffb2 	bl	8001ef0 <Displ_WriteCommand>
 8001f8c:	e8bd 4010 	ldmia.w	sp!, {r4, lr}
 8001f90:	2005      	movs	r0, #5
 8001f92:	f001 ba09 	b.w	80033a8 <HAL_Delay>
 8001f96:	bf00      	nop
 8001f98:	40021000 	.word	0x40021000
 8001f9c:	0800c99d 	.word	0x0800c99d
 8001fa0:	0800ccd5 	.word	0x0800ccd5

08001fa4 <Displ_SetAddressWindow>:
 8001fa4:	b570      	push	{r4, r5, r6, lr}
 8001fa6:	0204      	lsls	r4, r0, #8
 8001fa8:	b2a4      	uxth	r4, r4
 8001faa:	ea44 6402 	orr.w	r4, r4, r2, lsl #24
 8001fae:	0212      	lsls	r2, r2, #8
 8001fb0:	f402 027f 	and.w	r2, r2, #16711680	; 0xff0000
 8001fb4:	ea44 2010 	orr.w	r0, r4, r0, lsr #8
 8001fb8:	4c12      	ldr	r4, [pc, #72]	; (8002004 <Displ_SetAddressWindow+0x60>)
 8001fba:	4310      	orrs	r0, r2
 8001fbc:	6020      	str	r0, [r4, #0]
 8001fbe:	202a      	movs	r0, #42	; 0x2a
 8001fc0:	461d      	mov	r5, r3
 8001fc2:	460e      	mov	r6, r1
 8001fc4:	f7ff ff94 	bl	8001ef0 <Displ_WriteCommand>
 8001fc8:	4620      	mov	r0, r4
 8001fca:	2200      	movs	r2, #0
 8001fcc:	2104      	movs	r1, #4
 8001fce:	f7ff ff9c 	bl	8001f0a <Displ_WriteData>
 8001fd2:	0232      	lsls	r2, r6, #8
 8001fd4:	b292      	uxth	r2, r2
 8001fd6:	ea42 6205 	orr.w	r2, r2, r5, lsl #24
 8001fda:	022d      	lsls	r5, r5, #8
 8001fdc:	ea42 2116 	orr.w	r1, r2, r6, lsr #8
 8001fe0:	f405 057f 	and.w	r5, r5, #16711680	; 0xff0000
 8001fe4:	4329      	orrs	r1, r5
 8001fe6:	6021      	str	r1, [r4, #0]
 8001fe8:	202b      	movs	r0, #43	; 0x2b
 8001fea:	f7ff ff81 	bl	8001ef0 <Displ_WriteCommand>
 8001fee:	4620      	mov	r0, r4
 8001ff0:	2200      	movs	r2, #0
 8001ff2:	2104      	movs	r1, #4
 8001ff4:	f7ff ff89 	bl	8001f0a <Displ_WriteData>
 8001ff8:	e8bd 4070 	ldmia.w	sp!, {r4, r5, r6, lr}
 8001ffc:	202c      	movs	r0, #44	; 0x2c
 8001ffe:	f7ff bf77 	b.w	8001ef0 <Displ_WriteCommand>
 8002002:	bf00      	nop
 8002004:	20001903 	.word	0x20001903

08002008 <Displ_Orientation>:
 8002008:	b510      	push	{r4, lr}
 800200a:	4604      	mov	r4, r0
 800200c:	2803      	cmp	r0, #3
 800200e:	d80e      	bhi.n	800202e <Displ_Orientation+0x26>
 8002010:	e8df f000 	tbb	[pc, r0]
 8002014:	26231802 	.word	0x26231802
 8002018:	4b13      	ldr	r3, [pc, #76]	; (8002068 <Displ_Orientation+0x60>)
 800201a:	2288      	movs	r2, #136	; 0x88
 800201c:	701a      	strb	r2, [r3, #0]
 800201e:	4b13      	ldr	r3, [pc, #76]	; (800206c <Displ_Orientation+0x64>)
 8002020:	f44f 72f0 	mov.w	r2, #480	; 0x1e0
 8002024:	801a      	strh	r2, [r3, #0]
 8002026:	4b12      	ldr	r3, [pc, #72]	; (8002070 <Displ_Orientation+0x68>)
 8002028:	f44f 72a0 	mov.w	r2, #320	; 0x140
 800202c:	801a      	strh	r2, [r3, #0]
 800202e:	2036      	movs	r0, #54	; 0x36
 8002030:	f7ff ff5e 	bl	8001ef0 <Displ_WriteCommand>
 8002034:	480c      	ldr	r0, [pc, #48]	; (8002068 <Displ_Orientation+0x60>)
 8002036:	2200      	movs	r2, #0
 8002038:	2101      	movs	r1, #1
 800203a:	f7ff ff66 	bl	8001f0a <Displ_WriteData>
 800203e:	4b0d      	ldr	r3, [pc, #52]	; (8002074 <Displ_Orientation+0x6c>)
 8002040:	701c      	strb	r4, [r3, #0]
 8002042:	bd10      	pop	{r4, pc}
 8002044:	4b08      	ldr	r3, [pc, #32]	; (8002068 <Displ_Orientation+0x60>)
 8002046:	22e8      	movs	r2, #232	; 0xe8
 8002048:	701a      	strb	r2, [r3, #0]
 800204a:	4b08      	ldr	r3, [pc, #32]	; (800206c <Displ_Orientation+0x64>)
 800204c:	f44f 72a0 	mov.w	r2, #320	; 0x140
 8002050:	801a      	strh	r2, [r3, #0]
 8002052:	4b07      	ldr	r3, [pc, #28]	; (8002070 <Displ_Orientation+0x68>)
 8002054:	f44f 72f0 	mov.w	r2, #480	; 0x1e0
 8002058:	e7e8      	b.n	800202c <Displ_Orientation+0x24>
 800205a:	4b03      	ldr	r3, [pc, #12]	; (8002068 <Displ_Orientation+0x60>)
 800205c:	2248      	movs	r2, #72	; 0x48
 800205e:	e7dd      	b.n	800201c <Displ_Orientation+0x14>
 8002060:	4b01      	ldr	r3, [pc, #4]	; (8002068 <Displ_Orientation+0x60>)
 8002062:	2228      	movs	r2, #40	; 0x28
 8002064:	e7f0      	b.n	8002048 <Displ_Orientation+0x40>
 8002066:	bf00      	nop
 8002068:	20001902 	.word	0x20001902
 800206c:	20006898 	.word	0x20006898
 8002070:	20006896 	.word	0x20006896
 8002074:	20006894 	.word	0x20006894

08002078 <Displ_Init>:
 8002078:	b510      	push	{r4, lr}
 800207a:	2201      	movs	r2, #1
 800207c:	4604      	mov	r4, r0
 800207e:	f44f 5180 	mov.w	r1, #4096	; 0x1000
 8002082:	4808      	ldr	r0, [pc, #32]	; (80020a4 <Displ_Init+0x2c>)
 8002084:	f001 fd7e 	bl	8003b84 <HAL_GPIO_WritePin>
 8002088:	4806      	ldr	r0, [pc, #24]	; (80020a4 <Displ_Init+0x2c>)
 800208a:	2201      	movs	r2, #1
 800208c:	f44f 5100 	mov.w	r1, #8192	; 0x2000
 8002090:	f001 fd78 	bl	8003b84 <HAL_GPIO_WritePin>
 8002094:	f7ff ff42 	bl	8001f1c <ILI9XXX_Init>
 8002098:	4620      	mov	r0, r4
 800209a:	e8bd 4010 	ldmia.w	sp!, {r4, lr}
 800209e:	f7ff bfb3 	b.w	8002008 <Displ_Orientation>
 80020a2:	bf00      	nop
 80020a4:	40021000 	.word	0x40021000

080020a8 <HAL_SPI_TxCpltCallback>:
 80020a8:	6802      	ldr	r2, [r0, #0]
 80020aa:	4b03      	ldr	r3, [pc, #12]	; (80020b8 <HAL_SPI_TxCpltCallback+0x10>)
 80020ac:	429a      	cmp	r2, r3
 80020ae:	bf02      	ittt	eq
 80020b0:	4b02      	ldreq	r3, [pc, #8]	; (80020bc <HAL_SPI_TxCpltCallback+0x14>)
 80020b2:	2201      	moveq	r2, #1
 80020b4:	701a      	strbeq	r2, [r3, #0]
 80020b6:	4770      	bx	lr
 80020b8:	40003800 	.word	0x40003800
 80020bc:	20000014 	.word	0x20000014

080020c0 <HAL_SPI_ErrorCallback>:
 80020c0:	f7ff bff2 	b.w	80020a8 <HAL_SPI_TxCpltCallback>

080020c4 <Displ_FillArea>:
 80020c4:	e92d 47f0 	stmdb	sp!, {r4, r5, r6, r7, r8, r9, sl, lr}
 80020c8:	4d31      	ldr	r5, [pc, #196]	; (8002190 <Displ_FillArea+0xcc>)
 80020ca:	f8bd 4020 	ldrh.w	r4, [sp, #32]
 80020ce:	f9b5 6000 	ldrsh.w	r6, [r5]
 80020d2:	42b0      	cmp	r0, r6
 80020d4:	da4d      	bge.n	8002172 <Displ_FillArea+0xae>
 80020d6:	4d2f      	ldr	r5, [pc, #188]	; (8002194 <Displ_FillArea+0xd0>)
 80020d8:	f9b5 5000 	ldrsh.w	r5, [r5]
 80020dc:	42a9      	cmp	r1, r5
 80020de:	da48      	bge.n	8002172 <Displ_FillArea+0xae>
 80020e0:	2a00      	cmp	r2, #0
 80020e2:	d046      	beq.n	8002172 <Displ_FillArea+0xae>
 80020e4:	2b00      	cmp	r3, #0
 80020e6:	d044      	beq.n	8002172 <Displ_FillArea+0xae>
 80020e8:	4402      	add	r2, r0
 80020ea:	3a01      	subs	r2, #1
 80020ec:	440b      	add	r3, r1
 80020ee:	42b2      	cmp	r2, r6
 80020f0:	f103 33ff 	add.w	r3, r3, #4294967295
 80020f4:	bf28      	it	cs
 80020f6:	4632      	movcs	r2, r6
 80020f8:	ea4f 2c24 	mov.w	ip, r4, asr #8
 80020fc:	42ab      	cmp	r3, r5
 80020fe:	ea4f 0ee4 	mov.w	lr, r4, asr #3
 8002102:	ea4f 04c4 	mov.w	r4, r4, lsl #3
 8002106:	bf28      	it	cs
 8002108:	462b      	movcs	r3, r5
 800210a:	fa5f f884 	uxtb.w	r8, r4
 800210e:	f1c0 0401 	rsb	r4, r0, #1
 8002112:	1a5d      	subs	r5, r3, r1
 8002114:	4e20      	ldr	r6, [pc, #128]	; (8002198 <Displ_FillArea+0xd4>)
 8002116:	4414      	add	r4, r2
 8002118:	fb05 4404 	mla	r4, r5, r4, r4
 800211c:	eb04 0444 	add.w	r4, r4, r4, lsl #1
 8002120:	f641 79fd 	movw	r9, #8189	; 0x1ffd
 8002124:	f8d6 a000 	ldr.w	sl, [r6]
 8002128:	45a1      	cmp	r9, r4
 800212a:	f00c 0cf8 	and.w	ip, ip, #248	; 0xf8
 800212e:	f00e 0efc 	and.w	lr, lr, #252	; 0xfc
 8002132:	bf28      	it	cs
 8002134:	46a1      	movcs	r9, r4
 8002136:	4655      	mov	r5, sl
 8002138:	eba5 070a 	sub.w	r7, r5, sl
 800213c:	454f      	cmp	r7, r9
 800213e:	f105 0503 	add.w	r5, r5, #3
 8002142:	d918      	bls.n	8002176 <Displ_FillArea+0xb2>
 8002144:	b29b      	uxth	r3, r3
 8002146:	b292      	uxth	r2, r2
 8002148:	2500      	movs	r5, #0
 800214a:	f7ff ff2b 	bl	8001fa4 <Displ_SetAddressWindow>
 800214e:	fbb4 f8f7 	udiv	r8, r4, r7
 8002152:	4545      	cmp	r5, r8
 8002154:	6830      	ldr	r0, [r6, #0]
 8002156:	f04f 0200 	mov.w	r2, #0
 800215a:	d113      	bne.n	8002184 <Displ_FillArea+0xc0>
 800215c:	fb07 4115 	mls	r1, r7, r5, r4
 8002160:	f7ff fed3 	bl	8001f0a <Displ_WriteData>
 8002164:	6831      	ldr	r1, [r6, #0]
 8002166:	4a0d      	ldr	r2, [pc, #52]	; (800219c <Displ_FillArea+0xd8>)
 8002168:	4b0d      	ldr	r3, [pc, #52]	; (80021a0 <Displ_FillArea+0xdc>)
 800216a:	4291      	cmp	r1, r2
 800216c:	bf18      	it	ne
 800216e:	4613      	movne	r3, r2
 8002170:	6033      	str	r3, [r6, #0]
 8002172:	e8bd 87f0 	ldmia.w	sp!, {r4, r5, r6, r7, r8, r9, sl, pc}
 8002176:	f805 cc03 	strb.w	ip, [r5, #-3]
 800217a:	f805 ec02 	strb.w	lr, [r5, #-2]
 800217e:	f805 8c01 	strb.w	r8, [r5, #-1]
 8002182:	e7d9      	b.n	8002138 <Displ_FillArea+0x74>
 8002184:	4639      	mov	r1, r7
 8002186:	f7ff fec0 	bl	8001f0a <Displ_WriteData>
 800218a:	3501      	adds	r5, #1
 800218c:	e7e1      	b.n	8002152 <Displ_FillArea+0x8e>
 800218e:	bf00      	nop
 8002190:	20006896 	.word	0x20006896
 8002194:	20006898 	.word	0x20006898
 8002198:	20000018 	.word	0x20000018
 800219c:	20001907 	.word	0x20001907
 80021a0:	20003907 	.word	0x20003907

080021a4 <Displ_CLS>:
 80021a4:	b507      	push	{r0, r1, r2, lr}
 80021a6:	4b06      	ldr	r3, [pc, #24]	; (80021c0 <Displ_CLS+0x1c>)
 80021a8:	4a06      	ldr	r2, [pc, #24]	; (80021c4 <Displ_CLS+0x20>)
 80021aa:	9000      	str	r0, [sp, #0]
 80021ac:	2100      	movs	r1, #0
 80021ae:	881b      	ldrh	r3, [r3, #0]
 80021b0:	8812      	ldrh	r2, [r2, #0]
 80021b2:	4608      	mov	r0, r1
 80021b4:	f7ff ff86 	bl	80020c4 <Displ_FillArea>
 80021b8:	b003      	add	sp, #12
 80021ba:	f85d fb04 	ldr.w	pc, [sp], #4
 80021be:	bf00      	nop
 80021c0:	20006898 	.word	0x20006898
 80021c4:	20006896 	.word	0x20006896

080021c8 <Displ_Border>:
 80021c8:	e92d 43f7 	stmdb	sp!, {r0, r1, r2, r4, r5, r6, r7, r8, r9, lr}
 80021cc:	f8bd 8028 	ldrh.w	r8, [sp, #40]	; 0x28
 80021d0:	f8bd 902c 	ldrh.w	r9, [sp, #44]	; 0x2c
 80021d4:	f8cd 9000 	str.w	r9, [sp]
 80021d8:	b284      	uxth	r4, r0
 80021da:	b28f      	uxth	r7, r1
 80021dc:	b296      	uxth	r6, r2
 80021de:	461d      	mov	r5, r3
 80021e0:	b2ad      	uxth	r5, r5
 80021e2:	4643      	mov	r3, r8
 80021e4:	4632      	mov	r2, r6
 80021e6:	4639      	mov	r1, r7
 80021e8:	4620      	mov	r0, r4
 80021ea:	f7ff ff6b 	bl	80020c4 <Displ_FillArea>
 80021ee:	eba5 0108 	sub.w	r1, r5, r8
 80021f2:	4439      	add	r1, r7
 80021f4:	4643      	mov	r3, r8
 80021f6:	4632      	mov	r2, r6
 80021f8:	4620      	mov	r0, r4
 80021fa:	f8cd 9000 	str.w	r9, [sp]
 80021fe:	b289      	uxth	r1, r1
 8002200:	f7ff ff60 	bl	80020c4 <Displ_FillArea>
 8002204:	462b      	mov	r3, r5
 8002206:	4642      	mov	r2, r8
 8002208:	4639      	mov	r1, r7
 800220a:	4620      	mov	r0, r4
 800220c:	f8cd 9000 	str.w	r9, [sp]
 8002210:	f7ff ff58 	bl	80020c4 <Displ_FillArea>
 8002214:	eba6 0008 	sub.w	r0, r6, r8
 8002218:	4420      	add	r0, r4
 800221a:	462b      	mov	r3, r5
 800221c:	4642      	mov	r2, r8
 800221e:	4639      	mov	r1, r7
 8002220:	b280      	uxth	r0, r0
 8002222:	f8cd 9028 	str.w	r9, [sp, #40]	; 0x28
 8002226:	b003      	add	sp, #12
 8002228:	e8bd 43f0 	ldmia.w	sp!, {r4, r5, r6, r7, r8, r9, lr}
 800222c:	f7ff bf4a 	b.w	80020c4 <Displ_FillArea>

08002230 <Displ_WChar>:
 8002230:	b082      	sub	sp, #8
 8002232:	e92d 4ff0 	stmdb	sp!, {r4, r5, r6, r7, r8, r9, sl, fp, lr}
 8002236:	b08d      	sub	sp, #52	; 0x34
 8002238:	e9cd 0109 	strd	r0, r1, [sp, #36]	; 0x24
 800223c:	f89d 8068 	ldrb.w	r8, [sp, #104]	; 0x68
 8002240:	f8bd 5060 	ldrh.w	r5, [sp, #96]	; 0x60
 8002244:	f89d b060 	ldrb.w	fp, [sp, #96]	; 0x60
 8002248:	950b      	str	r5, [sp, #44]	; 0x2c
 800224a:	f1b8 0f02 	cmp.w	r8, #2
 800224e:	f8bd 5062 	ldrh.w	r5, [sp, #98]	; 0x62
 8002252:	9500      	str	r5, [sp, #0]
 8002254:	bf08      	it	eq
 8002256:	ea4f 054b 	moveq.w	r5, fp, lsl #1
 800225a:	f89d 6064 	ldrb.w	r6, [sp, #100]	; 0x64
 800225e:	9317      	str	r3, [sp, #92]	; 0x5c
 8002260:	bf08      	it	eq
 8002262:	fa5f fb85 	uxtbeq.w	fp, r5
 8002266:	9d00      	ldr	r5, [sp, #0]
 8002268:	f8bd 406c 	ldrh.w	r4, [sp, #108]	; 0x6c
 800226c:	f8bd 3070 	ldrh.w	r3, [sp, #112]	; 0x70
 8002270:	4375      	muls	r5, r6
 8002272:	9501      	str	r5, [sp, #4]
 8002274:	9f01      	ldr	r7, [sp, #4]
 8002276:	f1a2 0520 	sub.w	r5, r2, #32
 800227a:	9a17      	ldr	r2, [sp, #92]	; 0x5c
 800227c:	2e02      	cmp	r6, #2
 800227e:	fb07 2205 	mla	r2, r7, r5, r2
 8002282:	9202      	str	r2, [sp, #8]
 8002284:	d043      	beq.n	800230e <Displ_WChar+0xde>
 8002286:	2e03      	cmp	r6, #3
 8002288:	bf0c      	ite	eq
 800228a:	f44f 0200 	moveq.w	r2, #8388608	; 0x800000
 800228e:	2280      	movne	r2, #128	; 0x80
 8002290:	4610      	mov	r0, r2
 8002292:	1222      	asrs	r2, r4, #8
 8002294:	f002 02f8 	and.w	r2, r2, #248	; 0xf8
 8002298:	9203      	str	r2, [sp, #12]
 800229a:	10e2      	asrs	r2, r4, #3
 800229c:	f002 02fc 	and.w	r2, r2, #252	; 0xfc
 80022a0:	00e4      	lsls	r4, r4, #3
 80022a2:	9204      	str	r2, [sp, #16]
 80022a4:	b2e2      	uxtb	r2, r4
 80022a6:	9205      	str	r2, [sp, #20]
 80022a8:	121a      	asrs	r2, r3, #8
 80022aa:	f002 02f8 	and.w	r2, r2, #248	; 0xf8
 80022ae:	9206      	str	r2, [sp, #24]
 80022b0:	10da      	asrs	r2, r3, #3
 80022b2:	00db      	lsls	r3, r3, #3
 80022b4:	b2db      	uxtb	r3, r3
 80022b6:	9308      	str	r3, [sp, #32]
 80022b8:	4b3d      	ldr	r3, [pc, #244]	; (80023b0 <Displ_WChar+0x180>)
 80022ba:	9d02      	ldr	r5, [sp, #8]
 80022bc:	f002 02fc 	and.w	r2, r2, #252	; 0xfc
 80022c0:	9207      	str	r2, [sp, #28]
 80022c2:	681a      	ldr	r2, [r3, #0]
 80022c4:	2400      	movs	r4, #0
 80022c6:	9b02      	ldr	r3, [sp, #8]
 80022c8:	9901      	ldr	r1, [sp, #4]
 80022ca:	1aeb      	subs	r3, r5, r3
 80022cc:	428b      	cmp	r3, r1
 80022ce:	d321      	bcc.n	8002314 <Displ_WChar+0xe4>
 80022d0:	9b00      	ldr	r3, [sp, #0]
 80022d2:	9a0a      	ldr	r2, [sp, #40]	; 0x28
 80022d4:	4d36      	ldr	r5, [pc, #216]	; (80023b0 <Displ_WChar+0x180>)
 80022d6:	3b01      	subs	r3, #1
 80022d8:	4413      	add	r3, r2
 80022da:	9a09      	ldr	r2, [sp, #36]	; 0x24
 80022dc:	3a01      	subs	r2, #1
 80022de:	445a      	add	r2, fp
 80022e0:	e9dd 0109 	ldrd	r0, r1, [sp, #36]	; 0x24
 80022e4:	b29b      	uxth	r3, r3
 80022e6:	b292      	uxth	r2, r2
 80022e8:	f7ff fe5c 	bl	8001fa4 <Displ_SetAddressWindow>
 80022ec:	4621      	mov	r1, r4
 80022ee:	6828      	ldr	r0, [r5, #0]
 80022f0:	2200      	movs	r2, #0
 80022f2:	f7ff fe0a 	bl	8001f0a <Displ_WriteData>
 80022f6:	6829      	ldr	r1, [r5, #0]
 80022f8:	4a2e      	ldr	r2, [pc, #184]	; (80023b4 <Displ_WChar+0x184>)
 80022fa:	4b2f      	ldr	r3, [pc, #188]	; (80023b8 <Displ_WChar+0x188>)
 80022fc:	4291      	cmp	r1, r2
 80022fe:	bf18      	it	ne
 8002300:	4613      	movne	r3, r2
 8002302:	602b      	str	r3, [r5, #0]
 8002304:	b00d      	add	sp, #52	; 0x34
 8002306:	e8bd 4ff0 	ldmia.w	sp!, {r4, r5, r6, r7, r8, r9, sl, fp, lr}
 800230a:	b002      	add	sp, #8
 800230c:	4770      	bx	lr
 800230e:	f44f 4200 	mov.w	r2, #32768	; 0x8000
 8002312:	e7bd      	b.n	8002290 <Displ_WChar+0x60>
 8002314:	2e02      	cmp	r6, #2
 8002316:	782b      	ldrb	r3, [r5, #0]
 8002318:	d00e      	beq.n	8002338 <Displ_WChar+0x108>
 800231a:	2e03      	cmp	r6, #3
 800231c:	d105      	bne.n	800232a <Displ_WChar+0xfa>
 800231e:	786f      	ldrb	r7, [r5, #1]
 8002320:	041b      	lsls	r3, r3, #16
 8002322:	ea43 2307 	orr.w	r3, r3, r7, lsl #8
 8002326:	78af      	ldrb	r7, [r5, #2]
 8002328:	433b      	orrs	r3, r7
 800232a:	f04f 0c00 	mov.w	ip, #0
 800232e:	990b      	ldr	r1, [sp, #44]	; 0x2c
 8002330:	4561      	cmp	r1, ip
 8002332:	d805      	bhi.n	8002340 <Displ_WChar+0x110>
 8002334:	4435      	add	r5, r6
 8002336:	e7c6      	b.n	80022c6 <Displ_WChar+0x96>
 8002338:	786f      	ldrb	r7, [r5, #1]
 800233a:	ea47 2303 	orr.w	r3, r7, r3, lsl #8
 800233e:	e7f4      	b.n	800232a <Displ_WChar+0xfa>
 8002340:	fa03 f10c 	lsl.w	r1, r3, ip
 8002344:	4201      	tst	r1, r0
 8002346:	eb02 0e04 	add.w	lr, r2, r4
 800234a:	f104 0a01 	add.w	sl, r4, #1
 800234e:	f104 0902 	add.w	r9, r4, #2
 8002352:	f104 0703 	add.w	r7, r4, #3
 8002356:	d017      	beq.n	8002388 <Displ_WChar+0x158>
 8002358:	9903      	ldr	r1, [sp, #12]
 800235a:	5511      	strb	r1, [r2, r4]
 800235c:	9904      	ldr	r1, [sp, #16]
 800235e:	f802 100a 	strb.w	r1, [r2, sl]
 8002362:	f1b8 0f02 	cmp.w	r8, #2
 8002366:	9905      	ldr	r1, [sp, #20]
 8002368:	f802 1009 	strb.w	r1, [r2, r9]
 800236c:	d108      	bne.n	8002380 <Displ_WChar+0x150>
 800236e:	9903      	ldr	r1, [sp, #12]
 8002370:	55d1      	strb	r1, [r2, r7]
 8002372:	9904      	ldr	r1, [sp, #16]
 8002374:	f88e 1004 	strb.w	r1, [lr, #4]
 8002378:	9905      	ldr	r1, [sp, #20]
 800237a:	1da7      	adds	r7, r4, #6
 800237c:	f88e 1005 	strb.w	r1, [lr, #5]
 8002380:	f10c 0c01 	add.w	ip, ip, #1
 8002384:	463c      	mov	r4, r7
 8002386:	e7d2      	b.n	800232e <Displ_WChar+0xfe>
 8002388:	9906      	ldr	r1, [sp, #24]
 800238a:	5511      	strb	r1, [r2, r4]
 800238c:	9907      	ldr	r1, [sp, #28]
 800238e:	f802 100a 	strb.w	r1, [r2, sl]
 8002392:	f1b8 0f02 	cmp.w	r8, #2
 8002396:	9908      	ldr	r1, [sp, #32]
 8002398:	f802 1009 	strb.w	r1, [r2, r9]
 800239c:	d1f0      	bne.n	8002380 <Displ_WChar+0x150>
 800239e:	9906      	ldr	r1, [sp, #24]
 80023a0:	55d1      	strb	r1, [r2, r7]
 80023a2:	9907      	ldr	r1, [sp, #28]
 80023a4:	f88e 1004 	strb.w	r1, [lr, #4]
 80023a8:	1da7      	adds	r7, r4, #6
 80023aa:	9908      	ldr	r1, [sp, #32]
 80023ac:	e7e6      	b.n	800237c <Displ_WChar+0x14c>
 80023ae:	bf00      	nop
 80023b0:	20000018 	.word	0x20000018
 80023b4:	20001907 	.word	0x20001907
 80023b8:	20003907 	.word	0x20003907

080023bc <Displ_WString>:
 80023bc:	b082      	sub	sp, #8
 80023be:	e92d 4ff0 	stmdb	sp!, {r4, r5, r6, r7, r8, r9, sl, fp, lr}
 80023c2:	b087      	sub	sp, #28
 80023c4:	4604      	mov	r4, r0
 80023c6:	f89d 8050 	ldrb.w	r8, [sp, #80]	; 0x50
 80023ca:	f8bd 9054 	ldrh.w	r9, [sp, #84]	; 0x54
 80023ce:	f8bd a058 	ldrh.w	sl, [sp, #88]	; 0x58
 80023d2:	f8bd 6048 	ldrh.w	r6, [sp, #72]	; 0x48
 80023d6:	9311      	str	r3, [sp, #68]	; 0x44
 80023d8:	f1b8 0f01 	cmp.w	r8, #1
 80023dc:	460f      	mov	r7, r1
 80023de:	d901      	bls.n	80023e4 <Displ_WString+0x28>
 80023e0:	0076      	lsls	r6, r6, #1
 80023e2:	b2b6      	uxth	r6, r6
 80023e4:	1e55      	subs	r5, r2, #1
 80023e6:	f10d 0b48 	add.w	fp, sp, #72	; 0x48
 80023ea:	e00e      	b.n	800240a <Displ_WString+0x4e>
 80023ec:	e9cd 9a03 	strd	r9, sl, [sp, #12]
 80023f0:	f8cd 8008 	str.w	r8, [sp, #8]
 80023f4:	e89b 0003 	ldmia.w	fp, {r0, r1}
 80023f8:	9b11      	ldr	r3, [sp, #68]	; 0x44
 80023fa:	e88d 0003 	stmia.w	sp, {r0, r1}
 80023fe:	4620      	mov	r0, r4
 8002400:	4639      	mov	r1, r7
 8002402:	f7ff ff15 	bl	8002230 <Displ_WChar>
 8002406:	4434      	add	r4, r6
 8002408:	b2a4      	uxth	r4, r4
 800240a:	f815 2f01 	ldrb.w	r2, [r5, #1]!
 800240e:	2a00      	cmp	r2, #0
 8002410:	d1ec      	bne.n	80023ec <Displ_WString+0x30>
 8002412:	b007      	add	sp, #28
 8002414:	e8bd 4ff0 	ldmia.w	sp!, {r4, r5, r6, r7, r8, r9, sl, fp, lr}
 8002418:	b002      	add	sp, #8
 800241a:	4770      	bx	lr

0800241c <Displ_CString>:
 800241c:	e92d 4ff0 	stmdb	sp!, {r4, r5, r6, r7, r8, r9, sl, fp, lr}
 8002420:	b089      	sub	sp, #36	; 0x24
 8002422:	4698      	mov	r8, r3
 8002424:	f89d 3058 	ldrb.w	r3, [sp, #88]	; 0x58
 8002428:	9307      	str	r3, [sp, #28]
 800242a:	f8bd 3052 	ldrh.w	r3, [sp, #82]	; 0x52
 800242e:	9306      	str	r3, [sp, #24]
 8002430:	9b07      	ldr	r3, [sp, #28]
 8002432:	f8bd 9050 	ldrh.w	r9, [sp, #80]	; 0x50
 8002436:	f8bd a060 	ldrh.w	sl, [sp, #96]	; 0x60
 800243a:	2b01      	cmp	r3, #1
 800243c:	4604      	mov	r4, r0
 800243e:	bf88      	it	hi
 8002440:	ea4f 0949 	movhi.w	r9, r9, lsl #1
 8002444:	9812      	ldr	r0, [sp, #72]	; 0x48
 8002446:	468b      	mov	fp, r1
 8002448:	4617      	mov	r7, r2
 800244a:	bf88      	it	hi
 800244c:	fa1f f989 	uxthhi.w	r9, r9
 8002450:	f7fd febe 	bl	80001d0 <strlen>
 8002454:	1b3b      	subs	r3, r7, r4
 8002456:	fb09 f000 	mul.w	r0, r9, r0
 800245a:	3301      	adds	r3, #1
 800245c:	4298      	cmp	r0, r3
 800245e:	bf9c      	itt	ls
 8002460:	193d      	addls	r5, r7, r4
 8002462:	3501      	addls	r5, #1
 8002464:	9906      	ldr	r1, [sp, #24]
 8002466:	eba8 030b 	sub.w	r3, r8, fp
 800246a:	bf98      	it	ls
 800246c:	1a2d      	subls	r5, r5, r0
 800246e:	f103 0201 	add.w	r2, r3, #1
 8002472:	bf94      	ite	ls
 8002474:	f3c5 054f 	ubfxls	r5, r5, #1, #16
 8002478:	4625      	movhi	r5, r4
 800247a:	4291      	cmp	r1, r2
 800247c:	bfdf      	itttt	le
 800247e:	eb08 060b 	addle.w	r6, r8, fp
 8002482:	3601      	addle	r6, #1
 8002484:	460a      	movle	r2, r1
 8002486:	1ab6      	suble	r6, r6, r2
 8002488:	bfd4      	ite	le
 800248a:	f3c6 064f 	ubfxle	r6, r6, #1, #16
 800248e:	465e      	movgt	r6, fp
 8002490:	42a5      	cmp	r5, r4
 8002492:	d95d      	bls.n	8002550 <Displ_CString+0x134>
 8002494:	3301      	adds	r3, #1
 8002496:	1b2a      	subs	r2, r5, r4
 8002498:	f8cd a000 	str.w	sl, [sp]
 800249c:	b29b      	uxth	r3, r3
 800249e:	b292      	uxth	r2, r2
 80024a0:	4659      	mov	r1, fp
 80024a2:	4620      	mov	r0, r4
 80024a4:	f7ff fe0e 	bl	80020c4 <Displ_FillArea>
 80024a8:	9812      	ldr	r0, [sp, #72]	; 0x48
 80024aa:	f7fd fe91 	bl	80001d0 <strlen>
 80024ae:	fb00 4009 	mla	r0, r0, r9, r4
 80024b2:	4287      	cmp	r7, r0
 80024b4:	d910      	bls.n	80024d8 <Displ_CString+0xbc>
 80024b6:	1e60      	subs	r0, r4, #1
 80024b8:	eba8 030b 	sub.w	r3, r8, fp
 80024bc:	f1c4 0201 	rsb	r2, r4, #1
 80024c0:	4438      	add	r0, r7
 80024c2:	3301      	adds	r3, #1
 80024c4:	442a      	add	r2, r5
 80024c6:	1b40      	subs	r0, r0, r5
 80024c8:	f8cd a000 	str.w	sl, [sp]
 80024cc:	b29b      	uxth	r3, r3
 80024ce:	b292      	uxth	r2, r2
 80024d0:	4659      	mov	r1, fp
 80024d2:	b280      	uxth	r0, r0
 80024d4:	f7ff fdf6 	bl	80020c4 <Displ_FillArea>
 80024d8:	455e      	cmp	r6, fp
 80024da:	d93b      	bls.n	8002554 <Displ_CString+0x138>
 80024dc:	1b3a      	subs	r2, r7, r4
 80024de:	eba6 030b 	sub.w	r3, r6, fp
 80024e2:	3201      	adds	r2, #1
 80024e4:	f8cd a000 	str.w	sl, [sp]
 80024e8:	b29b      	uxth	r3, r3
 80024ea:	b292      	uxth	r2, r2
 80024ec:	4659      	mov	r1, fp
 80024ee:	4620      	mov	r0, r4
 80024f0:	f7ff fde8 	bl	80020c4 <Displ_FillArea>
 80024f4:	9b06      	ldr	r3, [sp, #24]
 80024f6:	445b      	add	r3, fp
 80024f8:	4598      	cmp	r8, r3
 80024fa:	db0f      	blt.n	800251c <Displ_CString+0x100>
 80024fc:	f1cb 0301 	rsb	r3, fp, #1
 8002500:	1b3a      	subs	r2, r7, r4
 8002502:	eb08 010b 	add.w	r1, r8, fp
 8002506:	4433      	add	r3, r6
 8002508:	3201      	adds	r2, #1
 800250a:	1b89      	subs	r1, r1, r6
 800250c:	f8cd a000 	str.w	sl, [sp]
 8002510:	b29b      	uxth	r3, r3
 8002512:	b292      	uxth	r2, r2
 8002514:	b289      	uxth	r1, r1
 8002516:	4620      	mov	r0, r4
 8002518:	f7ff fdd4 	bl	80020c4 <Displ_FillArea>
 800251c:	4a0e      	ldr	r2, [pc, #56]	; (8002558 <Displ_CString+0x13c>)
 800251e:	7813      	ldrb	r3, [r2, #0]
 8002520:	fab3 f383 	clz	r3, r3
 8002524:	e9dd 0114 	ldrd	r0, r1, [sp, #80]	; 0x50
 8002528:	095b      	lsrs	r3, r3, #5
 800252a:	7013      	strb	r3, [r2, #0]
 800252c:	f8bd 305c 	ldrh.w	r3, [sp, #92]	; 0x5c
 8002530:	9303      	str	r3, [sp, #12]
 8002532:	9b07      	ldr	r3, [sp, #28]
 8002534:	9302      	str	r3, [sp, #8]
 8002536:	e88d 0003 	stmia.w	sp, {r0, r1}
 800253a:	e9dd 2312 	ldrd	r2, r3, [sp, #72]	; 0x48
 800253e:	f8cd a010 	str.w	sl, [sp, #16]
 8002542:	4631      	mov	r1, r6
 8002544:	4628      	mov	r0, r5
 8002546:	f7ff ff39 	bl	80023bc <Displ_WString>
 800254a:	b009      	add	sp, #36	; 0x24
 800254c:	e8bd 8ff0 	ldmia.w	sp!, {r4, r5, r6, r7, r8, r9, sl, fp, pc}
 8002550:	4625      	mov	r5, r4
 8002552:	e7a9      	b.n	80024a8 <Displ_CString+0x8c>
 8002554:	465e      	mov	r6, fp
 8002556:	e7cd      	b.n	80024f4 <Displ_CString+0xd8>
 8002558:	20001901 	.word	0x20001901

0800255c <Displ_BackLight>:
 800255c:	2846      	cmp	r0, #70	; 0x46
 800255e:	b508      	push	{r3, lr}
 8002560:	d00e      	beq.n	8002580 <Displ_BackLight+0x24>
 8002562:	d809      	bhi.n	8002578 <Displ_BackLight+0x1c>
 8002564:	2830      	cmp	r0, #48	; 0x30
 8002566:	d012      	beq.n	800258e <Displ_BackLight+0x32>
 8002568:	2831      	cmp	r0, #49	; 0x31
 800256a:	d009      	beq.n	8002580 <Displ_BackLight+0x24>
 800256c:	f44f 4180 	mov.w	r1, #16384	; 0x4000
 8002570:	4808      	ldr	r0, [pc, #32]	; (8002594 <Displ_BackLight+0x38>)
 8002572:	f001 fb01 	bl	8003b78 <HAL_GPIO_ReadPin>
 8002576:	bd08      	pop	{r3, pc}
 8002578:	2851      	cmp	r0, #81	; 0x51
 800257a:	d1f7      	bne.n	800256c <Displ_BackLight+0x10>
 800257c:	bf00      	nop
 800257e:	e7f5      	b.n	800256c <Displ_BackLight+0x10>
 8002580:	2201      	movs	r2, #1
 8002582:	4804      	ldr	r0, [pc, #16]	; (8002594 <Displ_BackLight+0x38>)
 8002584:	f44f 4180 	mov.w	r1, #16384	; 0x4000
 8002588:	f001 fafc 	bl	8003b84 <HAL_GPIO_WritePin>
 800258c:	e7ee      	b.n	800256c <Displ_BackLight+0x10>
 800258e:	2200      	movs	r2, #0
 8002590:	e7f7      	b.n	8002582 <Displ_BackLight+0x26>
 8002592:	bf00      	nop
 8002594:	40020400 	.word	0x40020400

08002598 <Touch_HandlePenDownInterrupt>:
 8002598:	4b03      	ldr	r3, [pc, #12]	; (80025a8 <Touch_HandlePenDownInterrupt+0x10>)
 800259a:	781b      	ldrb	r3, [r3, #0]
 800259c:	b113      	cbz	r3, 80025a4 <Touch_HandlePenDownInterrupt+0xc>
 800259e:	4b03      	ldr	r3, [pc, #12]	; (80025ac <Touch_HandlePenDownInterrupt+0x14>)
 80025a0:	2201      	movs	r2, #1
 80025a2:	701a      	strb	r2, [r3, #0]
 80025a4:	4770      	bx	lr
 80025a6:	bf00      	nop
 80025a8:	2000001c 	.word	0x2000001c
 80025ac:	20005907 	.word	0x20005907

080025b0 <HAL_GPIO_EXTI_Callback>:
 80025b0:	f5b0 6f00 	cmp.w	r0, #2048	; 0x800
 80025b4:	d101      	bne.n	80025ba <HAL_GPIO_EXTI_Callback+0xa>
 80025b6:	f7ff bfef 	b.w	8002598 <Touch_HandlePenDownInterrupt>
 80025ba:	4770      	bx	lr

080025bc <Touch_Select>:
 80025bc:	b508      	push	{r3, lr}
 80025be:	4811      	ldr	r0, [pc, #68]	; (8002604 <Touch_Select+0x48>)
 80025c0:	f44f 5180 	mov.w	r1, #4096	; 0x1000
 80025c4:	f001 fad8 	bl	8003b78 <HAL_GPIO_ReadPin>
 80025c8:	b948      	cbnz	r0, 80025de <Touch_Select+0x22>
 80025ca:	4a0f      	ldr	r2, [pc, #60]	; (8002608 <Touch_Select+0x4c>)
 80025cc:	7813      	ldrb	r3, [r2, #0]
 80025ce:	2b00      	cmp	r3, #0
 80025d0:	d0fc      	beq.n	80025cc <Touch_Select+0x10>
 80025d2:	480c      	ldr	r0, [pc, #48]	; (8002604 <Touch_Select+0x48>)
 80025d4:	2201      	movs	r2, #1
 80025d6:	f44f 5180 	mov.w	r1, #4096	; 0x1000
 80025da:	f001 fad3 	bl	8003b84 <HAL_GPIO_WritePin>
 80025de:	4b0b      	ldr	r3, [pc, #44]	; (800260c <Touch_Select+0x50>)
 80025e0:	4808      	ldr	r0, [pc, #32]	; (8002604 <Touch_Select+0x48>)
 80025e2:	681a      	ldr	r2, [r3, #0]
 80025e4:	f022 0238 	bic.w	r2, r2, #56	; 0x38
 80025e8:	0412      	lsls	r2, r2, #16
 80025ea:	0c12      	lsrs	r2, r2, #16
 80025ec:	601a      	str	r2, [r3, #0]
 80025ee:	681a      	ldr	r2, [r3, #0]
 80025f0:	f042 0238 	orr.w	r2, r2, #56	; 0x38
 80025f4:	601a      	str	r2, [r3, #0]
 80025f6:	f44f 5100 	mov.w	r1, #8192	; 0x2000
 80025fa:	e8bd 4008 	ldmia.w	sp!, {r3, lr}
 80025fe:	2200      	movs	r2, #0
 8002600:	f001 bac0 	b.w	8003b84 <HAL_GPIO_WritePin>
 8002604:	40021000 	.word	0x40021000
 8002608:	20000014 	.word	0x20000014
 800260c:	40003800 	.word	0x40003800

08002610 <Touch_UnSelect>:
 8002610:	4802      	ldr	r0, [pc, #8]	; (800261c <Touch_UnSelect+0xc>)
 8002612:	2201      	movs	r2, #1
 8002614:	f44f 5100 	mov.w	r1, #8192	; 0x2000
 8002618:	f001 bab4 	b.w	8003b84 <HAL_GPIO_WritePin>
 800261c:	40021000 	.word	0x40021000

08002620 <Touch_PollAxis>:
 8002620:	b530      	push	{r4, r5, lr}
 8002622:	b085      	sub	sp, #20
 8002624:	2400      	movs	r4, #0
 8002626:	4d16      	ldr	r5, [pc, #88]	; (8002680 <Touch_PollAxis+0x60>)
 8002628:	f88d 0007 	strb.w	r0, [sp, #7]
 800262c:	f8ad 400c 	strh.w	r4, [sp, #12]
 8002630:	f7ff ffc4 	bl	80025bc <Touch_Select>
 8002634:	2028      	movs	r0, #40	; 0x28
 8002636:	702c      	strb	r4, [r5, #0]
 8002638:	f000 ff1c 	bl	8003474 <HAL_NVIC_DisableIRQ>
 800263c:	230a      	movs	r3, #10
 800263e:	2201      	movs	r2, #1
 8002640:	f10d 0107 	add.w	r1, sp, #7
 8002644:	480f      	ldr	r0, [pc, #60]	; (8002684 <Touch_PollAxis+0x64>)
 8002646:	f003 facf 	bl	8005be8 <HAL_SPI_Transmit>
 800264a:	480e      	ldr	r0, [pc, #56]	; (8002684 <Touch_PollAxis+0x64>)
 800264c:	230a      	movs	r3, #10
 800264e:	2202      	movs	r2, #2
 8002650:	a903      	add	r1, sp, #12
 8002652:	f003 fc6b 	bl	8005f2c <HAL_SPI_Receive>
 8002656:	b928      	cbnz	r0, 8002664 <Touch_PollAxis+0x44>
 8002658:	f89d 300c 	ldrb.w	r3, [sp, #12]
 800265c:	f89d 400d 	ldrb.w	r4, [sp, #13]
 8002660:	eb04 2403 	add.w	r4, r4, r3, lsl #8
 8002664:	2028      	movs	r0, #40	; 0x28
 8002666:	f000 ff2d 	bl	80034c4 <HAL_NVIC_ClearPendingIRQ>
 800266a:	2028      	movs	r0, #40	; 0x28
 800266c:	f000 fef4 	bl	8003458 <HAL_NVIC_EnableIRQ>
 8002670:	2301      	movs	r3, #1
 8002672:	702b      	strb	r3, [r5, #0]
 8002674:	f7ff ffcc 	bl	8002610 <Touch_UnSelect>
 8002678:	b2a0      	uxth	r0, r4
 800267a:	b005      	add	sp, #20
 800267c:	bd30      	pop	{r4, r5, pc}
 800267e:	bf00      	nop
 8002680:	2000001c 	.word	0x2000001c
 8002684:	200059dc 	.word	0x200059dc

08002688 <Touch_GetXYtouch>:
 8002688:	e92d 47f0 	stmdb	sp!, {r4, r5, r6, r7, r8, r9, sl, lr}
 800268c:	4606      	mov	r6, r0
 800268e:	460d      	mov	r5, r1
 8002690:	4617      	mov	r7, r2
 8002692:	2410      	movs	r4, #16
 8002694:	f04f 0800 	mov.w	r8, #0
 8002698:	20b0      	movs	r0, #176	; 0xb0
 800269a:	f7ff ffc1 	bl	8002620 <Touch_PollAxis>
 800269e:	3c01      	subs	r4, #1
 80026a0:	f014 04ff 	ands.w	r4, r4, #255	; 0xff
 80026a4:	4480      	add	r8, r0
 80026a6:	d1f7      	bne.n	8002698 <Touch_GetXYtouch+0x10>
 80026a8:	ea4f 1818 	mov.w	r8, r8, lsr #4
 80026ac:	f5b8 6fa0 	cmp.w	r8, #1280	; 0x500
 80026b0:	d806      	bhi.n	80026c0 <Touch_GetXYtouch+0x38>
 80026b2:	2300      	movs	r3, #0
 80026b4:	703b      	strb	r3, [r7, #0]
 80026b6:	2028      	movs	r0, #40	; 0x28
 80026b8:	e8bd 47f0 	ldmia.w	sp!, {r4, r5, r6, r7, r8, r9, sl, lr}
 80026bc:	f000 bf02 	b.w	80034c4 <HAL_NVIC_ClearPendingIRQ>
 80026c0:	f04f 0810 	mov.w	r8, #16
 80026c4:	20d0      	movs	r0, #208	; 0xd0
 80026c6:	f7ff ffab 	bl	8002620 <Touch_PollAxis>
 80026ca:	f108 38ff 	add.w	r8, r8, #4294967295
 80026ce:	f018 08ff 	ands.w	r8, r8, #255	; 0xff
 80026d2:	4404      	add	r4, r0
 80026d4:	d1f6      	bne.n	80026c4 <Touch_GetXYtouch+0x3c>
 80026d6:	0924      	lsrs	r4, r4, #4
 80026d8:	f5b4 6fa0 	cmp.w	r4, #1280	; 0x500
 80026dc:	d9e9      	bls.n	80026b2 <Touch_GetXYtouch+0x2a>
 80026de:	ee07 4a90 	vmov	s15, r4
 80026e2:	eddf 6a23 	vldr	s13, [pc, #140]	; 8002770 <Touch_GetXYtouch+0xe8>
 80026e6:	eef8 7ae7 	vcvt.f32.s32	s15, s15
 80026ea:	eebb 7a04 	vmov.f32	s14, #180	; 0xc1a00000 -20.0
 80026ee:	eea7 7aa6 	vfma.f32	s14, s15, s13
 80026f2:	f04f 0a10 	mov.w	sl, #16
 80026f6:	eefc 7ac7 	vcvt.u32.f32	s15, s14
 80026fa:	ee17 9a90 	vmov	r9, s15
 80026fe:	2090      	movs	r0, #144	; 0x90
 8002700:	f7ff ff8e 	bl	8002620 <Touch_PollAxis>
 8002704:	f10a 3aff 	add.w	sl, sl, #4294967295
 8002708:	f01a 0aff 	ands.w	sl, sl, #255	; 0xff
 800270c:	4480      	add	r8, r0
 800270e:	d1f6      	bne.n	80026fe <Touch_GetXYtouch+0x76>
 8002710:	ea4f 1418 	mov.w	r4, r8, lsr #4
 8002714:	ee07 4a90 	vmov	s15, r4
 8002718:	eddf 6a16 	vldr	s13, [pc, #88]	; 8002774 <Touch_GetXYtouch+0xec>
 800271c:	4a16      	ldr	r2, [pc, #88]	; (8002778 <Touch_GetXYtouch+0xf0>)
 800271e:	eef8 7ae7 	vcvt.f32.s32	s15, s15
 8002722:	eeba 7a0e 	vmov.f32	s14, #174	; 0xc1700000 -15.0
 8002726:	eea7 7aa6 	vfma.f32	s14, s15, s13
 800272a:	7812      	ldrb	r2, [r2, #0]
 800272c:	eefc 7ac7 	vcvt.u32.f32	s15, s14
 8002730:	ee17 3a90 	vmov	r3, s15
 8002734:	2a03      	cmp	r2, #3
 8002736:	d806      	bhi.n	8002746 <Touch_GetXYtouch+0xbe>
 8002738:	e8df f002 	tbb	[pc, r2]
 800273c:	02160f09 	.word	0x02160f09
 8002740:	f8a6 9000 	strh.w	r9, [r6]
 8002744:	802b      	strh	r3, [r5, #0]
 8002746:	2301      	movs	r3, #1
 8002748:	703b      	strb	r3, [r7, #0]
 800274a:	e8bd 87f0 	ldmia.w	sp!, {r4, r5, r6, r7, r8, r9, sl, pc}
 800274e:	8033      	strh	r3, [r6, #0]
 8002750:	f5c9 79f0 	rsb	r9, r9, #480	; 0x1e0
 8002754:	f8a5 9000 	strh.w	r9, [r5]
 8002758:	e7f5      	b.n	8002746 <Touch_GetXYtouch+0xbe>
 800275a:	f5c9 79f0 	rsb	r9, r9, #480	; 0x1e0
 800275e:	f8a6 9000 	strh.w	r9, [r6]
 8002762:	f5c3 73a0 	rsb	r3, r3, #320	; 0x140
 8002766:	e7ed      	b.n	8002744 <Touch_GetXYtouch+0xbc>
 8002768:	f5c3 73a0 	rsb	r3, r3, #320	; 0x140
 800276c:	8033      	strh	r3, [r6, #0]
 800276e:	e7f1      	b.n	8002754 <Touch_GetXYtouch+0xcc>
 8002770:	3c83126f 	.word	0x3c83126f
 8002774:	3c343958 	.word	0x3c343958
 8002778:	20006894 	.word	0x20006894

0800277c <Touch_WaitForUntouch>:
 800277c:	b570      	push	{r4, r5, r6, lr}
 800277e:	4604      	mov	r4, r0
 8002780:	f000 fe0c 	bl	800339c <HAL_GetTick>
 8002784:	b286      	uxth	r6, r0
 8002786:	b98c      	cbnz	r4, 80027ac <Touch_WaitForUntouch+0x30>
 8002788:	20b0      	movs	r0, #176	; 0xb0
 800278a:	f7ff ff49 	bl	8002620 <Touch_PollAxis>
 800278e:	4605      	mov	r5, r0
 8002790:	20d0      	movs	r0, #208	; 0xd0
 8002792:	f7ff ff45 	bl	8002620 <Touch_PollAxis>
 8002796:	f5b0 6fa0 	cmp.w	r0, #1280	; 0x500
 800279a:	d80e      	bhi.n	80027ba <Touch_WaitForUntouch+0x3e>
 800279c:	200a      	movs	r0, #10
 800279e:	f000 fe03 	bl	80033a8 <HAL_Delay>
 80027a2:	4b08      	ldr	r3, [pc, #32]	; (80027c4 <Touch_WaitForUntouch+0x48>)
 80027a4:	2200      	movs	r2, #0
 80027a6:	701a      	strb	r2, [r3, #0]
 80027a8:	2001      	movs	r0, #1
 80027aa:	bd70      	pop	{r4, r5, r6, pc}
 80027ac:	f000 fdf6 	bl	800339c <HAL_GetTick>
 80027b0:	1b80      	subs	r0, r0, r6
 80027b2:	42a0      	cmp	r0, r4
 80027b4:	d9e8      	bls.n	8002788 <Touch_WaitForUntouch+0xc>
 80027b6:	2000      	movs	r0, #0
 80027b8:	e7f7      	b.n	80027aa <Touch_WaitForUntouch+0x2e>
 80027ba:	f5b5 6fa0 	cmp.w	r5, #1280	; 0x500
 80027be:	d8e2      	bhi.n	8002786 <Touch_WaitForUntouch+0xa>
 80027c0:	e7ec      	b.n	800279c <Touch_WaitForUntouch+0x20>
 80027c2:	bf00      	nop
 80027c4:	20005907 	.word	0x20005907

080027c8 <Touch_In_XY_area>:
 80027c8:	b5f7      	push	{r0, r1, r2, r4, r5, r6, r7, lr}
 80027ca:	4605      	mov	r5, r0
 80027cc:	460c      	mov	r4, r1
 80027ce:	a801      	add	r0, sp, #4
 80027d0:	4617      	mov	r7, r2
 80027d2:	f10d 0106 	add.w	r1, sp, #6
 80027d6:	f10d 0203 	add.w	r2, sp, #3
 80027da:	461e      	mov	r6, r3
 80027dc:	f7ff ff54 	bl	8002688 <Touch_GetXYtouch>
 80027e0:	f89d 0003 	ldrb.w	r0, [sp, #3]
 80027e4:	b178      	cbz	r0, 8002806 <Touch_In_XY_area+0x3e>
 80027e6:	f8bd 3004 	ldrh.w	r3, [sp, #4]
 80027ea:	42ab      	cmp	r3, r5
 80027ec:	d30d      	bcc.n	800280a <Touch_In_XY_area+0x42>
 80027ee:	443d      	add	r5, r7
 80027f0:	42ab      	cmp	r3, r5
 80027f2:	da0a      	bge.n	800280a <Touch_In_XY_area+0x42>
 80027f4:	f8bd 0006 	ldrh.w	r0, [sp, #6]
 80027f8:	42a0      	cmp	r0, r4
 80027fa:	d306      	bcc.n	800280a <Touch_In_XY_area+0x42>
 80027fc:	4434      	add	r4, r6
 80027fe:	42a0      	cmp	r0, r4
 8002800:	bfac      	ite	ge
 8002802:	2000      	movge	r0, #0
 8002804:	2001      	movlt	r0, #1
 8002806:	b003      	add	sp, #12
 8002808:	bdf0      	pop	{r4, r5, r6, r7, pc}
 800280a:	2000      	movs	r0, #0
 800280c:	e7fb      	b.n	8002806 <Touch_In_XY_area+0x3e>
	...

08002810 <Touch_GotATouch>:
 8002810:	b538      	push	{r3, r4, r5, lr}
 8002812:	4b0c      	ldr	r3, [pc, #48]	; (8002844 <Touch_GotATouch+0x34>)
 8002814:	781c      	ldrb	r4, [r3, #0]
 8002816:	2802      	cmp	r0, #2
 8002818:	b2e4      	uxtb	r4, r4
 800281a:	d10b      	bne.n	8002834 <Touch_GotATouch+0x24>
 800281c:	4d0a      	ldr	r5, [pc, #40]	; (8002848 <Touch_GotATouch+0x38>)
 800281e:	f000 fdbd 	bl	800339c <HAL_GetTick>
 8002822:	682b      	ldr	r3, [r5, #0]
 8002824:	1ac0      	subs	r0, r0, r3
 8002826:	283b      	cmp	r0, #59	; 0x3b
 8002828:	d909      	bls.n	800283e <Touch_GotATouch+0x2e>
 800282a:	f000 fdb7 	bl	800339c <HAL_GetTick>
 800282e:	6028      	str	r0, [r5, #0]
 8002830:	4620      	mov	r0, r4
 8002832:	bd38      	pop	{r3, r4, r5, pc}
 8002834:	2801      	cmp	r0, #1
 8002836:	d1fb      	bne.n	8002830 <Touch_GotATouch+0x20>
 8002838:	2200      	movs	r2, #0
 800283a:	701a      	strb	r2, [r3, #0]
 800283c:	e7f8      	b.n	8002830 <Touch_GotATouch+0x20>
 800283e:	2400      	movs	r4, #0
 8002840:	e7f6      	b.n	8002830 <Touch_GotATouch+0x20>
 8002842:	bf00      	nop
 8002844:	20005907 	.word	0x20005907
 8002848:	20005908 	.word	0x20005908

0800284c <InitMenu>:
 800284c:	e92d 4ff0 	stmdb	sp!, {r4, r5, r6, r7, r8, r9, sl, fp, lr}
 8002850:	4b47      	ldr	r3, [pc, #284]	; (8002970 <InitMenu+0x124>)
 8002852:	4c48      	ldr	r4, [pc, #288]	; (8002974 <InitMenu+0x128>)
 8002854:	f8df 8158 	ldr.w	r8, [pc, #344]	; 80029b0 <InitMenu+0x164>
 8002858:	b085      	sub	sp, #20
 800285a:	2500      	movs	r5, #0
 800285c:	f04f 091e 	mov.w	r9, #30
 8002860:	f04f 0e10 	mov.w	lr, #16
 8002864:	f44f 6cc3 	mov.w	ip, #1560	; 0x618
 8002868:	f64f 76ff 	movw	r6, #65535	; 0xffff
 800286c:	f44f 4a7d 	mov.w	sl, #64768	; 0xfd00
 8002870:	f64f 7be0 	movw	fp, #65504	; 0xffe0
 8002874:	88e1      	ldrh	r1, [r4, #6]
 8002876:	f8a3 9000 	strh.w	r9, [r3]
 800287a:	f101 023c 	add.w	r2, r1, #60	; 0x3c
 800287e:	b290      	uxth	r0, r2
 8002880:	fb15 f202 	smulbb	r2, r5, r2
 8002884:	321e      	adds	r2, #30
 8002886:	805a      	strh	r2, [r3, #2]
 8002888:	f8b8 2000 	ldrh.w	r2, [r8]
 800288c:	9003      	str	r0, [sp, #12]
 800288e:	3a3c      	subs	r2, #60	; 0x3c
 8002890:	b292      	uxth	r2, r2
 8002892:	3128      	adds	r1, #40	; 0x28
 8002894:	809a      	strh	r2, [r3, #4]
 8002896:	9201      	str	r2, [sp, #4]
 8002898:	b28a      	uxth	r2, r1
 800289a:	80da      	strh	r2, [r3, #6]
 800289c:	9202      	str	r2, [sp, #8]
 800289e:	e894 0007 	ldmia.w	r4, {r0, r1, r2}
 80028a2:	f103 071c 	add.w	r7, r3, #28
 80028a6:	f8a3 e02a 	strh.w	lr, [r3, #42]	; 0x2a
 80028aa:	f8a3 c02c 	strh.w	ip, [r3, #44]	; 0x2c
 80028ae:	85de      	strh	r6, [r3, #46]	; 0x2e
 80028b0:	f8a3 a030 	strh.w	sl, [r3, #48]	; 0x30
 80028b4:	f8a3 b032 	strh.w	fp, [r3, #50]	; 0x32
 80028b8:	869e      	strh	r6, [r3, #52]	; 0x34
 80028ba:	e887 0007 	stmia.w	r7, {r0, r1, r2}
 80028be:	2701      	movs	r7, #1
 80028c0:	443d      	add	r5, r7
 80028c2:	2d05      	cmp	r5, #5
 80028c4:	f883 7028 	strb.w	r7, [r3, #40]	; 0x28
 80028c8:	f103 0338 	add.w	r3, r3, #56	; 0x38
 80028cc:	d1d2      	bne.n	8002874 <InitMenu+0x28>
 80028ce:	492a      	ldr	r1, [pc, #168]	; (8002978 <InitMenu+0x12c>)
 80028d0:	482a      	ldr	r0, [pc, #168]	; (800297c <InitMenu+0x130>)
 80028d2:	f007 fc4b 	bl	800a16c <strcpy>
 80028d6:	492a      	ldr	r1, [pc, #168]	; (8002980 <InitMenu+0x134>)
 80028d8:	482a      	ldr	r0, [pc, #168]	; (8002984 <InitMenu+0x138>)
 80028da:	f007 fc47 	bl	800a16c <strcpy>
 80028de:	492a      	ldr	r1, [pc, #168]	; (8002988 <InitMenu+0x13c>)
 80028e0:	482a      	ldr	r0, [pc, #168]	; (800298c <InitMenu+0x140>)
 80028e2:	f007 fc43 	bl	800a16c <strcpy>
 80028e6:	492a      	ldr	r1, [pc, #168]	; (8002990 <InitMenu+0x144>)
 80028e8:	482a      	ldr	r0, [pc, #168]	; (8002994 <InitMenu+0x148>)
 80028ea:	f007 fc3f 	bl	800a16c <strcpy>
 80028ee:	492a      	ldr	r1, [pc, #168]	; (8002998 <InitMenu+0x14c>)
 80028f0:	482a      	ldr	r0, [pc, #168]	; (800299c <InitMenu+0x150>)
 80028f2:	f007 fc3b 	bl	800a16c <strcpy>
 80028f6:	241e      	movs	r4, #30
 80028f8:	4b29      	ldr	r3, [pc, #164]	; (80029a0 <InitMenu+0x154>)
 80028fa:	2500      	movs	r5, #0
 80028fc:	46a3      	mov	fp, r4
 80028fe:	f04f 0a10 	mov.w	sl, #16
 8002902:	f44f 69c3 	mov.w	r9, #1560	; 0x618
 8002906:	f64f 7cff 	movw	ip, #65535	; 0xffff
 800290a:	f44f 487d 	mov.w	r8, #64768	; 0xfd00
 800290e:	f64f 7ee0 	movw	lr, #65504	; 0xffe0
 8002912:	9a01      	ldr	r2, [sp, #4]
 8002914:	809a      	strh	r2, [r3, #4]
 8002916:	9a02      	ldr	r2, [sp, #8]
 8002918:	80da      	strh	r2, [r3, #6]
 800291a:	4a16      	ldr	r2, [pc, #88]	; (8002974 <InitMenu+0x128>)
 800291c:	805c      	strh	r4, [r3, #2]
 800291e:	ca07      	ldmia	r2, {r0, r1, r2}
 8002920:	f103 061c 	add.w	r6, r3, #28
 8002924:	f8a3 b000 	strh.w	fp, [r3]
 8002928:	f8a3 a02a 	strh.w	sl, [r3, #42]	; 0x2a
 800292c:	f8a3 902c 	strh.w	r9, [r3, #44]	; 0x2c
 8002930:	f8a3 c02e 	strh.w	ip, [r3, #46]	; 0x2e
 8002934:	f8a3 8030 	strh.w	r8, [r3, #48]	; 0x30
 8002938:	f8a3 e032 	strh.w	lr, [r3, #50]	; 0x32
 800293c:	f8a3 c034 	strh.w	ip, [r3, #52]	; 0x34
 8002940:	e886 0007 	stmia.w	r6, {r0, r1, r2}
 8002944:	9a03      	ldr	r2, [sp, #12]
 8002946:	f883 7028 	strb.w	r7, [r3, #40]	; 0x28
 800294a:	351c      	adds	r5, #28
 800294c:	4414      	add	r4, r2
 800294e:	2d38      	cmp	r5, #56	; 0x38
 8002950:	f103 0338 	add.w	r3, r3, #56	; 0x38
 8002954:	b2a4      	uxth	r4, r4
 8002956:	d1dc      	bne.n	8002912 <InitMenu+0xc6>
 8002958:	4907      	ldr	r1, [pc, #28]	; (8002978 <InitMenu+0x12c>)
 800295a:	4812      	ldr	r0, [pc, #72]	; (80029a4 <InitMenu+0x158>)
 800295c:	f007 fc06 	bl	800a16c <strcpy>
 8002960:	4911      	ldr	r1, [pc, #68]	; (80029a8 <InitMenu+0x15c>)
 8002962:	4812      	ldr	r0, [pc, #72]	; (80029ac <InitMenu+0x160>)
 8002964:	b005      	add	sp, #20
 8002966:	e8bd 4ff0 	ldmia.w	sp!, {r4, r5, r6, r7, r8, r9, sl, fp, lr}
 800296a:	f007 bbff 	b.w	800a16c <strcpy>
 800296e:	bf00      	nop
 8002970:	2000690c 	.word	0x2000690c
 8002974:	20000000 	.word	0x20000000
 8002978:	0800c99f 	.word	0x0800c99f
 800297c:	20006914 	.word	0x20006914
 8002980:	0800c9a5 	.word	0x0800c9a5
 8002984:	2000694c 	.word	0x2000694c
 8002988:	0800c9ab 	.word	0x0800c9ab
 800298c:	20006984 	.word	0x20006984
 8002990:	0800c9b1 	.word	0x0800c9b1
 8002994:	200069bc 	.word	0x200069bc
 8002998:	0800c9b8 	.word	0x0800c9b8
 800299c:	200069f4 	.word	0x200069f4
 80029a0:	2000689c 	.word	0x2000689c
 80029a4:	200068a4 	.word	0x200068a4
 80029a8:	0800c9bd 	.word	0x0800c9bd
 80029ac:	200068dc 	.word	0x200068dc
 80029b0:	20006896 	.word	0x20006896

080029b4 <DrawMenuItem>:
 80029b4:	b5f0      	push	{r4, r5, r6, r7, lr}
 80029b6:	4604      	mov	r4, r0
 80029b8:	b089      	sub	sp, #36	; 0x24
 80029ba:	b379      	cbz	r1, 8002a1c <DrawMenuItem+0x68>
 80029bc:	8e47      	ldrh	r7, [r0, #50]	; 0x32
 80029be:	8e01      	ldrh	r1, [r0, #48]	; 0x30
 80029c0:	8e82      	ldrh	r2, [r0, #52]	; 0x34
 80029c2:	f8b4 c000 	ldrh.w	ip, [r4]
 80029c6:	f8b4 e002 	ldrh.w	lr, [r4, #2]
 80029ca:	88e3      	ldrh	r3, [r4, #6]
 80029cc:	88a5      	ldrh	r5, [r4, #4]
 80029ce:	e9cd 2105 	strd	r2, r1, [sp, #20]
 80029d2:	f894 2028 	ldrb.w	r2, [r4, #40]	; 0x28
 80029d6:	9204      	str	r2, [sp, #16]
 80029d8:	f104 021c 	add.w	r2, r4, #28
 80029dc:	ca07      	ldmia	r2, {r0, r1, r2}
 80029de:	4473      	add	r3, lr
 80029e0:	4465      	add	r5, ip
 80029e2:	ae01      	add	r6, sp, #4
 80029e4:	e886 0007 	stmia.w	r6, {r0, r1, r2}
 80029e8:	3d01      	subs	r5, #1
 80029ea:	f104 0208 	add.w	r2, r4, #8
 80029ee:	3b01      	subs	r3, #1
 80029f0:	4671      	mov	r1, lr
 80029f2:	4660      	mov	r0, ip
 80029f4:	9200      	str	r2, [sp, #0]
 80029f6:	b29b      	uxth	r3, r3
 80029f8:	b2aa      	uxth	r2, r5
 80029fa:	f7ff fd0f 	bl	800241c <Displ_CString>
 80029fe:	2301      	movs	r3, #1
 8002a00:	9300      	str	r3, [sp, #0]
 8002a02:	f9b4 2004 	ldrsh.w	r2, [r4, #4]
 8002a06:	f9b4 3006 	ldrsh.w	r3, [r4, #6]
 8002a0a:	f9b4 1002 	ldrsh.w	r1, [r4, #2]
 8002a0e:	f9b4 0000 	ldrsh.w	r0, [r4]
 8002a12:	9701      	str	r7, [sp, #4]
 8002a14:	f7ff fbd8 	bl	80021c8 <Displ_Border>
 8002a18:	b009      	add	sp, #36	; 0x24
 8002a1a:	bdf0      	pop	{r4, r5, r6, r7, pc}
 8002a1c:	8d87      	ldrh	r7, [r0, #44]	; 0x2c
 8002a1e:	8d41      	ldrh	r1, [r0, #42]	; 0x2a
 8002a20:	8dc2      	ldrh	r2, [r0, #46]	; 0x2e
 8002a22:	e7ce      	b.n	80029c2 <DrawMenuItem+0xe>

08002a24 <DrawMenu>:
 8002a24:	b538      	push	{r3, r4, r5, lr}
 8002a26:	4604      	mov	r4, r0
 8002a28:	2000      	movs	r0, #0
 8002a2a:	460d      	mov	r5, r1
 8002a2c:	f7ff fbba 	bl	80021a4 <Displ_CLS>
 8002a30:	2338      	movs	r3, #56	; 0x38
 8002a32:	fb13 4505 	smlabb	r5, r3, r5, r4
 8002a36:	42ac      	cmp	r4, r5
 8002a38:	d100      	bne.n	8002a3c <DrawMenu+0x18>
 8002a3a:	bd38      	pop	{r3, r4, r5, pc}
 8002a3c:	4620      	mov	r0, r4
 8002a3e:	2100      	movs	r1, #0
 8002a40:	f7ff ffb8 	bl	80029b4 <DrawMenuItem>
 8002a44:	3438      	adds	r4, #56	; 0x38
 8002a46:	e7f6      	b.n	8002a36 <DrawMenu+0x12>

08002a48 <CheckMenu>:
 8002a48:	e92d 41f0 	stmdb	sp!, {r4, r5, r6, r7, r8, lr}
 8002a4c:	4604      	mov	r4, r0
 8002a4e:	2001      	movs	r0, #1
 8002a50:	460f      	mov	r7, r1
 8002a52:	f7ff fedd 	bl	8002810 <Touch_GotATouch>
 8002a56:	b1d0      	cbz	r0, 8002a8e <CheckMenu+0x46>
 8002a58:	2500      	movs	r5, #0
 8002a5a:	42bd      	cmp	r5, r7
 8002a5c:	b2ee      	uxtb	r6, r5
 8002a5e:	46a0      	mov	r8, r4
 8002a60:	d101      	bne.n	8002a66 <CheckMenu+0x1e>
 8002a62:	2600      	movs	r6, #0
 8002a64:	e009      	b.n	8002a7a <CheckMenu+0x32>
 8002a66:	88e3      	ldrh	r3, [r4, #6]
 8002a68:	88a2      	ldrh	r2, [r4, #4]
 8002a6a:	8861      	ldrh	r1, [r4, #2]
 8002a6c:	f834 0b38 	ldrh.w	r0, [r4], #56
 8002a70:	f7ff feaa 	bl	80027c8 <Touch_In_XY_area>
 8002a74:	3501      	adds	r5, #1
 8002a76:	2800      	cmp	r0, #0
 8002a78:	d0ef      	beq.n	8002a5a <CheckMenu+0x12>
 8002a7a:	4640      	mov	r0, r8
 8002a7c:	2101      	movs	r1, #1
 8002a7e:	f7ff ff99 	bl	80029b4 <DrawMenuItem>
 8002a82:	2000      	movs	r0, #0
 8002a84:	f7ff fe7a 	bl	800277c <Touch_WaitForUntouch>
 8002a88:	4630      	mov	r0, r6
 8002a8a:	e8bd 81f0 	ldmia.w	sp!, {r4, r5, r6, r7, r8, pc}
 8002a8e:	26ff      	movs	r6, #255	; 0xff
 8002a90:	e7fa      	b.n	8002a88 <CheckMenu+0x40>
	...

08002a94 <RunMenu2>:
 8002a94:	b537      	push	{r0, r1, r2, r4, r5, lr}
 8002a96:	4c16      	ldr	r4, [pc, #88]	; (8002af0 <RunMenu2+0x5c>)
 8002a98:	2000      	movs	r0, #0
 8002a9a:	f64f 051f 	movw	r5, #63519	; 0xf81f
 8002a9e:	28ff      	cmp	r0, #255	; 0xff
 8002aa0:	d003      	beq.n	8002aaa <RunMenu2+0x16>
 8002aa2:	2102      	movs	r1, #2
 8002aa4:	4620      	mov	r0, r4
 8002aa6:	f7ff ffbd 	bl	8002a24 <DrawMenu>
 8002aaa:	2102      	movs	r1, #2
 8002aac:	4620      	mov	r0, r4
 8002aae:	f7ff ffcb 	bl	8002a48 <CheckMenu>
 8002ab2:	2801      	cmp	r0, #1
 8002ab4:	d01a      	beq.n	8002aec <RunMenu2+0x58>
 8002ab6:	28fe      	cmp	r0, #254	; 0xfe
 8002ab8:	d00f      	beq.n	8002ada <RunMenu2+0x46>
 8002aba:	2800      	cmp	r0, #0
 8002abc:	d1ef      	bne.n	8002a9e <RunMenu2+0xa>
 8002abe:	f44f 63fc 	mov.w	r3, #2016	; 0x7e0
 8002ac2:	9300      	str	r3, [sp, #0]
 8002ac4:	210a      	movs	r1, #10
 8002ac6:	2314      	movs	r3, #20
 8002ac8:	4608      	mov	r0, r1
 8002aca:	461a      	mov	r2, r3
 8002acc:	f7ff fafa 	bl	80020c4 <Displ_FillArea>
 8002ad0:	f44f 707a 	mov.w	r0, #1000	; 0x3e8
 8002ad4:	f000 fc68 	bl	80033a8 <HAL_Delay>
 8002ad8:	e7e3      	b.n	8002aa2 <RunMenu2+0xe>
 8002ada:	2314      	movs	r3, #20
 8002adc:	210a      	movs	r1, #10
 8002ade:	4608      	mov	r0, r1
 8002ae0:	9500      	str	r5, [sp, #0]
 8002ae2:	461a      	mov	r2, r3
 8002ae4:	f7ff faee 	bl	80020c4 <Displ_FillArea>
 8002ae8:	2064      	movs	r0, #100	; 0x64
 8002aea:	e7f3      	b.n	8002ad4 <RunMenu2+0x40>
 8002aec:	b003      	add	sp, #12
 8002aee:	bd30      	pop	{r4, r5, pc}
 8002af0:	2000689c 	.word	0x2000689c

08002af4 <RunMenu1>:
 8002af4:	b537      	push	{r0, r1, r2, r4, r5, lr}
 8002af6:	4c19      	ldr	r4, [pc, #100]	; (8002b5c <RunMenu1+0x68>)
 8002af8:	f44f 457d 	mov.w	r5, #64768	; 0xfd00
 8002afc:	2105      	movs	r1, #5
 8002afe:	4620      	mov	r0, r4
 8002b00:	f7ff ff90 	bl	8002a24 <DrawMenu>
 8002b04:	2105      	movs	r1, #5
 8002b06:	4620      	mov	r0, r4
 8002b08:	f7ff ff9e 	bl	8002a48 <CheckMenu>
 8002b0c:	2804      	cmp	r0, #4
 8002b0e:	d022      	beq.n	8002b56 <RunMenu1+0x62>
 8002b10:	d80f      	bhi.n	8002b32 <RunMenu1+0x3e>
 8002b12:	2803      	cmp	r0, #3
 8002b14:	d012      	beq.n	8002b3c <RunMenu1+0x48>
 8002b16:	f44f 63fc 	mov.w	r3, #2016	; 0x7e0
 8002b1a:	9300      	str	r3, [sp, #0]
 8002b1c:	210a      	movs	r1, #10
 8002b1e:	2314      	movs	r3, #20
 8002b20:	4608      	mov	r0, r1
 8002b22:	461a      	mov	r2, r3
 8002b24:	f7ff face 	bl	80020c4 <Displ_FillArea>
 8002b28:	f44f 707a 	mov.w	r0, #1000	; 0x3e8
 8002b2c:	f000 fc3c 	bl	80033a8 <HAL_Delay>
 8002b30:	e006      	b.n	8002b40 <RunMenu1+0x4c>
 8002b32:	28fe      	cmp	r0, #254	; 0xfe
 8002b34:	d006      	beq.n	8002b44 <RunMenu1+0x50>
 8002b36:	28ff      	cmp	r0, #255	; 0xff
 8002b38:	d0e4      	beq.n	8002b04 <RunMenu1+0x10>
 8002b3a:	e001      	b.n	8002b40 <RunMenu1+0x4c>
 8002b3c:	f7ff ffaa 	bl	8002a94 <RunMenu2>
 8002b40:	bf00      	nop
 8002b42:	e7db      	b.n	8002afc <RunMenu1+0x8>
 8002b44:	2314      	movs	r3, #20
 8002b46:	210a      	movs	r1, #10
 8002b48:	4608      	mov	r0, r1
 8002b4a:	9500      	str	r5, [sp, #0]
 8002b4c:	461a      	mov	r2, r3
 8002b4e:	f7ff fab9 	bl	80020c4 <Displ_FillArea>
 8002b52:	2064      	movs	r0, #100	; 0x64
 8002b54:	e7ea      	b.n	8002b2c <RunMenu1+0x38>
 8002b56:	b003      	add	sp, #12
 8002b58:	bd30      	pop	{r4, r5, pc}
 8002b5a:	bf00      	nop
 8002b5c:	2000690c 	.word	0x2000690c

08002b60 <Reset_Handler>:
 8002b60:	f8df d034 	ldr.w	sp, [pc, #52]	; 8002b98 <LoopFillZerobss+0x12>
 8002b64:	480d      	ldr	r0, [pc, #52]	; (8002b9c <LoopFillZerobss+0x16>)
 8002b66:	490e      	ldr	r1, [pc, #56]	; (8002ba0 <LoopFillZerobss+0x1a>)
 8002b68:	4a0e      	ldr	r2, [pc, #56]	; (8002ba4 <LoopFillZerobss+0x1e>)
 8002b6a:	2300      	movs	r3, #0
 8002b6c:	e002      	b.n	8002b74 <LoopCopyDataInit>

08002b6e <CopyDataInit>:
 8002b6e:	58d4      	ldr	r4, [r2, r3]
 8002b70:	50c4      	str	r4, [r0, r3]
 8002b72:	3304      	adds	r3, #4

08002b74 <LoopCopyDataInit>:
 8002b74:	18c4      	adds	r4, r0, r3
 8002b76:	428c      	cmp	r4, r1
 8002b78:	d3f9      	bcc.n	8002b6e <CopyDataInit>
 8002b7a:	4a0b      	ldr	r2, [pc, #44]	; (8002ba8 <LoopFillZerobss+0x22>)
 8002b7c:	4c0b      	ldr	r4, [pc, #44]	; (8002bac <LoopFillZerobss+0x26>)
 8002b7e:	2300      	movs	r3, #0
 8002b80:	e001      	b.n	8002b86 <LoopFillZerobss>

08002b82 <FillZerobss>:
 8002b82:	6013      	str	r3, [r2, #0]
 8002b84:	3204      	adds	r2, #4

08002b86 <LoopFillZerobss>:
 8002b86:	42a2      	cmp	r2, r4
 8002b88:	d3fb      	bcc.n	8002b82 <FillZerobss>
 8002b8a:	f7fe ffff 	bl	8001b8c <SystemInit>
 8002b8e:	f007 f933 	bl	8009df8 <__libc_init_array>
 8002b92:	f7fe fa2b 	bl	8000fec <main>
 8002b96:	4770      	bx	lr
 8002b98:	20020000 	.word	0x20020000
 8002b9c:	20000000 	.word	0x20000000
 8002ba0:	200000e0 	.word	0x200000e0
 8002ba4:	0800cce8 	.word	0x0800cce8
 8002ba8:	200000e0 	.word	0x200000e0
 8002bac:	20007308 	.word	0x20007308

08002bb0 <ADC_IRQHandler>:
 8002bb0:	e7fe      	b.n	8002bb0 <ADC_IRQHandler>

08002bb2 <cs43l22_SetFrequency>:
 8002bb2:	2000      	movs	r0, #0
 8002bb4:	4770      	bx	lr

08002bb6 <cs43l22_Reset>:
 8002bb6:	2000      	movs	r0, #0
 8002bb8:	4770      	bx	lr

08002bba <cs43l22_SetVolume>:
 8002bba:	b507      	push	{r0, r1, r2, lr}
 8002bbc:	2964      	cmp	r1, #100	; 0x64
 8002bbe:	bf9b      	ittet	ls
 8002bc0:	2264      	movls	r2, #100	; 0x64
 8002bc2:	ebc1 2101 	rsbls	r1, r1, r1, lsl #8
 8002bc6:	22ff      	movhi	r2, #255	; 0xff
 8002bc8:	fbb1 f2f2 	udivls	r2, r1, r2
 8002bcc:	bf98      	it	ls
 8002bce:	b2d2      	uxtbls	r2, r2
 8002bd0:	3219      	adds	r2, #25
 8002bd2:	b2c0      	uxtb	r0, r0
 8002bd4:	b2d2      	uxtb	r2, r2
 8002bd6:	2120      	movs	r1, #32
 8002bd8:	9201      	str	r2, [sp, #4]
 8002bda:	9000      	str	r0, [sp, #0]
 8002bdc:	f000 f9cc 	bl	8002f78 <AUDIO_IO_Write>
 8002be0:	9800      	ldr	r0, [sp, #0]
 8002be2:	9a01      	ldr	r2, [sp, #4]
 8002be4:	2121      	movs	r1, #33	; 0x21
 8002be6:	f000 f9c7 	bl	8002f78 <AUDIO_IO_Write>
 8002bea:	2000      	movs	r0, #0
 8002bec:	b003      	add	sp, #12
 8002bee:	f85d fb04 	ldr.w	pc, [sp], #4
	...

08002bf4 <cs43l22_Init>:
 8002bf4:	b5f8      	push	{r3, r4, r5, r6, r7, lr}
 8002bf6:	4606      	mov	r6, r0
 8002bf8:	b2f4      	uxtb	r4, r6
 8002bfa:	460d      	mov	r5, r1
 8002bfc:	4617      	mov	r7, r2
 8002bfe:	f000 f987 	bl	8002f10 <AUDIO_IO_Init>
 8002c02:	2201      	movs	r2, #1
 8002c04:	2102      	movs	r1, #2
 8002c06:	4620      	mov	r0, r4
 8002c08:	f000 f9b6 	bl	8002f78 <AUDIO_IO_Write>
 8002c0c:	1e6a      	subs	r2, r5, #1
 8002c0e:	4b2a      	ldr	r3, [pc, #168]	; (8002cb8 <cs43l22_Init+0xc4>)
 8002c10:	2a03      	cmp	r2, #3
 8002c12:	d84e      	bhi.n	8002cb2 <cs43l22_Init+0xbe>
 8002c14:	e8df f002 	tbb	[pc, r2]
 8002c18:	4d4b4902 	.word	0x4d4b4902
 8002c1c:	22fa      	movs	r2, #250	; 0xfa
 8002c1e:	701a      	strb	r2, [r3, #0]
 8002c20:	781a      	ldrb	r2, [r3, #0]
 8002c22:	2104      	movs	r1, #4
 8002c24:	4620      	mov	r0, r4
 8002c26:	f000 f9a7 	bl	8002f78 <AUDIO_IO_Write>
 8002c2a:	2281      	movs	r2, #129	; 0x81
 8002c2c:	2105      	movs	r1, #5
 8002c2e:	4620      	mov	r0, r4
 8002c30:	f000 f9a2 	bl	8002f78 <AUDIO_IO_Write>
 8002c34:	2204      	movs	r2, #4
 8002c36:	2106      	movs	r1, #6
 8002c38:	4620      	mov	r0, r4
 8002c3a:	f000 f99d 	bl	8002f78 <AUDIO_IO_Write>
 8002c3e:	4630      	mov	r0, r6
 8002c40:	4639      	mov	r1, r7
 8002c42:	f7ff ffba 	bl	8002bba <cs43l22_SetVolume>
 8002c46:	2d02      	cmp	r5, #2
 8002c48:	4606      	mov	r6, r0
 8002c4a:	d00e      	beq.n	8002c6a <cs43l22_Init+0x76>
 8002c4c:	2206      	movs	r2, #6
 8002c4e:	210f      	movs	r1, #15
 8002c50:	4620      	mov	r0, r4
 8002c52:	f000 f991 	bl	8002f78 <AUDIO_IO_Write>
 8002c56:	2200      	movs	r2, #0
 8002c58:	2124      	movs	r1, #36	; 0x24
 8002c5a:	4620      	mov	r0, r4
 8002c5c:	f000 f98c 	bl	8002f78 <AUDIO_IO_Write>
 8002c60:	2200      	movs	r2, #0
 8002c62:	2125      	movs	r1, #37	; 0x25
 8002c64:	4620      	mov	r0, r4
 8002c66:	f000 f987 	bl	8002f78 <AUDIO_IO_Write>
 8002c6a:	4620      	mov	r0, r4
 8002c6c:	2200      	movs	r2, #0
 8002c6e:	210a      	movs	r1, #10
 8002c70:	f000 f982 	bl	8002f78 <AUDIO_IO_Write>
 8002c74:	4620      	mov	r0, r4
 8002c76:	2204      	movs	r2, #4
 8002c78:	210e      	movs	r1, #14
 8002c7a:	f000 f97d 	bl	8002f78 <AUDIO_IO_Write>
 8002c7e:	4620      	mov	r0, r4
 8002c80:	2200      	movs	r2, #0
 8002c82:	2127      	movs	r1, #39	; 0x27
 8002c84:	f000 f978 	bl	8002f78 <AUDIO_IO_Write>
 8002c88:	4620      	mov	r0, r4
 8002c8a:	220f      	movs	r2, #15
 8002c8c:	211f      	movs	r1, #31
 8002c8e:	f000 f973 	bl	8002f78 <AUDIO_IO_Write>
 8002c92:	4620      	mov	r0, r4
 8002c94:	220a      	movs	r2, #10
 8002c96:	211a      	movs	r1, #26
 8002c98:	f000 f96e 	bl	8002f78 <AUDIO_IO_Write>
 8002c9c:	4620      	mov	r0, r4
 8002c9e:	220a      	movs	r2, #10
 8002ca0:	211b      	movs	r1, #27
 8002ca2:	f000 f969 	bl	8002f78 <AUDIO_IO_Write>
 8002ca6:	4630      	mov	r0, r6
 8002ca8:	bdf8      	pop	{r3, r4, r5, r6, r7, pc}
 8002caa:	22af      	movs	r2, #175	; 0xaf
 8002cac:	e7b7      	b.n	8002c1e <cs43l22_Init+0x2a>
 8002cae:	22aa      	movs	r2, #170	; 0xaa
 8002cb0:	e7b5      	b.n	8002c1e <cs43l22_Init+0x2a>
 8002cb2:	2205      	movs	r2, #5
 8002cb4:	e7b3      	b.n	8002c1e <cs43l22_Init+0x2a>
 8002cb6:	bf00      	nop
 8002cb8:	2000590c 	.word	0x2000590c

08002cbc <cs43l22_SetOutputMode>:
 8002cbc:	3901      	subs	r1, #1
 8002cbe:	b510      	push	{r4, lr}
 8002cc0:	b2c0      	uxtb	r0, r0
 8002cc2:	4c10      	ldr	r4, [pc, #64]	; (8002d04 <cs43l22_SetOutputMode+0x48>)
 8002cc4:	2903      	cmp	r1, #3
 8002cc6:	d817      	bhi.n	8002cf8 <cs43l22_SetOutputMode+0x3c>
 8002cc8:	e8df f001 	tbb	[pc, r1]
 8002ccc:	16100a02 	.word	0x16100a02
 8002cd0:	22fa      	movs	r2, #250	; 0xfa
 8002cd2:	2104      	movs	r1, #4
 8002cd4:	f000 f950 	bl	8002f78 <AUDIO_IO_Write>
 8002cd8:	23fa      	movs	r3, #250	; 0xfa
 8002cda:	7023      	strb	r3, [r4, #0]
 8002cdc:	2000      	movs	r0, #0
 8002cde:	bd10      	pop	{r4, pc}
 8002ce0:	22af      	movs	r2, #175	; 0xaf
 8002ce2:	2104      	movs	r1, #4
 8002ce4:	f000 f948 	bl	8002f78 <AUDIO_IO_Write>
 8002ce8:	23af      	movs	r3, #175	; 0xaf
 8002cea:	e7f6      	b.n	8002cda <cs43l22_SetOutputMode+0x1e>
 8002cec:	22aa      	movs	r2, #170	; 0xaa
 8002cee:	2104      	movs	r1, #4
 8002cf0:	f000 f942 	bl	8002f78 <AUDIO_IO_Write>
 8002cf4:	23aa      	movs	r3, #170	; 0xaa
 8002cf6:	e7f0      	b.n	8002cda <cs43l22_SetOutputMode+0x1e>
 8002cf8:	2205      	movs	r2, #5
 8002cfa:	2104      	movs	r1, #4
 8002cfc:	f000 f93c 	bl	8002f78 <AUDIO_IO_Write>
 8002d00:	2305      	movs	r3, #5
 8002d02:	e7ea      	b.n	8002cda <cs43l22_SetOutputMode+0x1e>
 8002d04:	2000590c 	.word	0x2000590c

08002d08 <cs43l22_DeInit>:
 8002d08:	f000 b934 	b.w	8002f74 <AUDIO_IO_DeInit>

08002d0c <cs43l22_ReadID>:
 8002d0c:	b510      	push	{r4, lr}
 8002d0e:	4604      	mov	r4, r0
 8002d10:	f000 f8fe 	bl	8002f10 <AUDIO_IO_Init>
 8002d14:	2101      	movs	r1, #1
 8002d16:	b2e0      	uxtb	r0, r4
 8002d18:	f000 f94c 	bl	8002fb4 <AUDIO_IO_Read>
 8002d1c:	f000 00f8 	and.w	r0, r0, #248	; 0xf8
 8002d20:	bd10      	pop	{r4, pc}

08002d22 <cs43l22_SetMute.part.0>:
 8002d22:	b507      	push	{r0, r1, r2, lr}
 8002d24:	b2c0      	uxtb	r0, r0
 8002d26:	22ff      	movs	r2, #255	; 0xff
 8002d28:	2104      	movs	r1, #4
 8002d2a:	9001      	str	r0, [sp, #4]
 8002d2c:	f000 f924 	bl	8002f78 <AUDIO_IO_Write>
 8002d30:	9801      	ldr	r0, [sp, #4]
 8002d32:	2201      	movs	r2, #1
 8002d34:	2122      	movs	r1, #34	; 0x22
 8002d36:	f000 f91f 	bl	8002f78 <AUDIO_IO_Write>
 8002d3a:	9801      	ldr	r0, [sp, #4]
 8002d3c:	2201      	movs	r2, #1
 8002d3e:	2123      	movs	r1, #35	; 0x23
 8002d40:	b003      	add	sp, #12
 8002d42:	f85d eb04 	ldr.w	lr, [sp], #4
 8002d46:	f000 b917 	b.w	8002f78 <AUDIO_IO_Write>
	...

08002d4c <cs43l22_SetMute>:
 8002d4c:	2901      	cmp	r1, #1
 8002d4e:	b507      	push	{r0, r1, r2, lr}
 8002d50:	d105      	bne.n	8002d5e <cs43l22_SetMute+0x12>
 8002d52:	f7ff ffe6 	bl	8002d22 <cs43l22_SetMute.part.0>
 8002d56:	2000      	movs	r0, #0
 8002d58:	b003      	add	sp, #12
 8002d5a:	f85d fb04 	ldr.w	pc, [sp], #4
 8002d5e:	b2c0      	uxtb	r0, r0
 8002d60:	2200      	movs	r2, #0
 8002d62:	2122      	movs	r1, #34	; 0x22
 8002d64:	9001      	str	r0, [sp, #4]
 8002d66:	f000 f907 	bl	8002f78 <AUDIO_IO_Write>
 8002d6a:	9801      	ldr	r0, [sp, #4]
 8002d6c:	2200      	movs	r2, #0
 8002d6e:	2123      	movs	r1, #35	; 0x23
 8002d70:	f000 f902 	bl	8002f78 <AUDIO_IO_Write>
 8002d74:	4b03      	ldr	r3, [pc, #12]	; (8002d84 <cs43l22_SetMute+0x38>)
 8002d76:	9801      	ldr	r0, [sp, #4]
 8002d78:	781a      	ldrb	r2, [r3, #0]
 8002d7a:	2104      	movs	r1, #4
 8002d7c:	f000 f8fc 	bl	8002f78 <AUDIO_IO_Write>
 8002d80:	e7e9      	b.n	8002d56 <cs43l22_SetMute+0xa>
 8002d82:	bf00      	nop
 8002d84:	2000590c 	.word	0x2000590c

08002d88 <cs43l22_Resume>:
 8002d88:	b57f      	push	{r0, r1, r2, r3, r4, r5, r6, lr}
 8002d8a:	2600      	movs	r6, #0
 8002d8c:	4631      	mov	r1, r6
 8002d8e:	4604      	mov	r4, r0
 8002d90:	9603      	str	r6, [sp, #12]
 8002d92:	f7ff ffdb 	bl	8002d4c <cs43l22_SetMute>
 8002d96:	9603      	str	r6, [sp, #12]
 8002d98:	4605      	mov	r5, r0
 8002d9a:	9b03      	ldr	r3, [sp, #12]
 8002d9c:	2bfe      	cmp	r3, #254	; 0xfe
 8002d9e:	d90e      	bls.n	8002dbe <cs43l22_Resume+0x36>
 8002da0:	4b09      	ldr	r3, [pc, #36]	; (8002dc8 <cs43l22_Resume+0x40>)
 8002da2:	b2e0      	uxtb	r0, r4
 8002da4:	781a      	ldrb	r2, [r3, #0]
 8002da6:	9001      	str	r0, [sp, #4]
 8002da8:	2104      	movs	r1, #4
 8002daa:	f000 f8e5 	bl	8002f78 <AUDIO_IO_Write>
 8002dae:	9801      	ldr	r0, [sp, #4]
 8002db0:	229e      	movs	r2, #158	; 0x9e
 8002db2:	2102      	movs	r1, #2
 8002db4:	f000 f8e0 	bl	8002f78 <AUDIO_IO_Write>
 8002db8:	4628      	mov	r0, r5
 8002dba:	b004      	add	sp, #16
 8002dbc:	bd70      	pop	{r4, r5, r6, pc}
 8002dbe:	9b03      	ldr	r3, [sp, #12]
 8002dc0:	3301      	adds	r3, #1
 8002dc2:	9303      	str	r3, [sp, #12]
 8002dc4:	e7e9      	b.n	8002d9a <cs43l22_Resume+0x12>
 8002dc6:	bf00      	nop
 8002dc8:	2000590c 	.word	0x2000590c

08002dcc <cs43l22_Pause>:
 8002dcc:	b510      	push	{r4, lr}
 8002dce:	4604      	mov	r4, r0
 8002dd0:	f7ff ffa7 	bl	8002d22 <cs43l22_SetMute.part.0>
 8002dd4:	b2e0      	uxtb	r0, r4
 8002dd6:	2201      	movs	r2, #1
 8002dd8:	2102      	movs	r1, #2
 8002dda:	f000 f8cd 	bl	8002f78 <AUDIO_IO_Write>
 8002dde:	2000      	movs	r0, #0
 8002de0:	bd10      	pop	{r4, pc}
	...

08002de4 <cs43l22_Stop>:
 8002de4:	b513      	push	{r0, r1, r4, lr}
 8002de6:	4604      	mov	r4, r0
 8002de8:	f7ff ff9b 	bl	8002d22 <cs43l22_SetMute.part.0>
 8002dec:	b2e0      	uxtb	r0, r4
 8002dee:	2204      	movs	r2, #4
 8002df0:	210e      	movs	r1, #14
 8002df2:	9001      	str	r0, [sp, #4]
 8002df4:	f000 f8c0 	bl	8002f78 <AUDIO_IO_Write>
 8002df8:	9801      	ldr	r0, [sp, #4]
 8002dfa:	229f      	movs	r2, #159	; 0x9f
 8002dfc:	2102      	movs	r1, #2
 8002dfe:	f000 f8bb 	bl	8002f78 <AUDIO_IO_Write>
 8002e02:	4b03      	ldr	r3, [pc, #12]	; (8002e10 <cs43l22_Stop+0x2c>)
 8002e04:	2201      	movs	r2, #1
 8002e06:	2000      	movs	r0, #0
 8002e08:	701a      	strb	r2, [r3, #0]
 8002e0a:	b002      	add	sp, #8
 8002e0c:	bd10      	pop	{r4, pc}
 8002e0e:	bf00      	nop
 8002e10:	2000001d 	.word	0x2000001d

08002e14 <cs43l22_Play>:
 8002e14:	b570      	push	{r4, r5, r6, lr}
 8002e16:	4d0d      	ldr	r5, [pc, #52]	; (8002e4c <cs43l22_Play+0x38>)
 8002e18:	782b      	ldrb	r3, [r5, #0]
 8002e1a:	2b01      	cmp	r3, #1
 8002e1c:	4604      	mov	r4, r0
 8002e1e:	d113      	bne.n	8002e48 <cs43l22_Play+0x34>
 8002e20:	b2c6      	uxtb	r6, r0
 8002e22:	2206      	movs	r2, #6
 8002e24:	210e      	movs	r1, #14
 8002e26:	4630      	mov	r0, r6
 8002e28:	f000 f8a6 	bl	8002f78 <AUDIO_IO_Write>
 8002e2c:	2100      	movs	r1, #0
 8002e2e:	4620      	mov	r0, r4
 8002e30:	f7ff ff8c 	bl	8002d4c <cs43l22_SetMute>
 8002e34:	229e      	movs	r2, #158	; 0x9e
 8002e36:	4604      	mov	r4, r0
 8002e38:	2102      	movs	r1, #2
 8002e3a:	4630      	mov	r0, r6
 8002e3c:	f000 f89c 	bl	8002f78 <AUDIO_IO_Write>
 8002e40:	2300      	movs	r3, #0
 8002e42:	702b      	strb	r3, [r5, #0]
 8002e44:	4620      	mov	r0, r4
 8002e46:	bd70      	pop	{r4, r5, r6, pc}
 8002e48:	2400      	movs	r4, #0
 8002e4a:	e7fb      	b.n	8002e44 <cs43l22_Play+0x30>
 8002e4c:	2000001d 	.word	0x2000001d

08002e50 <I2Cx_Init>:
 8002e50:	b570      	push	{r4, r5, r6, lr}
 8002e52:	4e2a      	ldr	r6, [pc, #168]	; (8002efc <I2Cx_Init+0xac>)
 8002e54:	b088      	sub	sp, #32
 8002e56:	4630      	mov	r0, r6
 8002e58:	f001 ff02 	bl	8004c60 <HAL_I2C_GetState>
 8002e5c:	4604      	mov	r4, r0
 8002e5e:	2800      	cmp	r0, #0
 8002e60:	d14a      	bne.n	8002ef8 <I2Cx_Init+0xa8>
 8002e62:	4b27      	ldr	r3, [pc, #156]	; (8002f00 <I2Cx_Init+0xb0>)
 8002e64:	4d27      	ldr	r5, [pc, #156]	; (8002f04 <I2Cx_Init+0xb4>)
 8002e66:	9001      	str	r0, [sp, #4]
 8002e68:	e9c6 3001 	strd	r3, r0, [r6, #4]
 8002e6c:	2233      	movs	r2, #51	; 0x33
 8002e6e:	f44f 4380 	mov.w	r3, #16384	; 0x4000
 8002e72:	e9c6 2303 	strd	r2, r3, [r6, #12]
 8002e76:	4b24      	ldr	r3, [pc, #144]	; (8002f08 <I2Cx_Init+0xb8>)
 8002e78:	6033      	str	r3, [r6, #0]
 8002e7a:	6b2b      	ldr	r3, [r5, #48]	; 0x30
 8002e7c:	f043 0302 	orr.w	r3, r3, #2
 8002e80:	632b      	str	r3, [r5, #48]	; 0x30
 8002e82:	6b2b      	ldr	r3, [r5, #48]	; 0x30
 8002e84:	f003 0302 	and.w	r3, r3, #2
 8002e88:	9301      	str	r3, [sp, #4]
 8002e8a:	9b01      	ldr	r3, [sp, #4]
 8002e8c:	f44f 7110 	mov.w	r1, #576	; 0x240
 8002e90:	2312      	movs	r3, #18
 8002e92:	e9cd 1303 	strd	r1, r3, [sp, #12]
 8002e96:	2302      	movs	r3, #2
 8002e98:	e9cd 0305 	strd	r0, r3, [sp, #20]
 8002e9c:	a903      	add	r1, sp, #12
 8002e9e:	2304      	movs	r3, #4
 8002ea0:	481a      	ldr	r0, [pc, #104]	; (8002f0c <I2Cx_Init+0xbc>)
 8002ea2:	9307      	str	r3, [sp, #28]
 8002ea4:	f000 fcf8 	bl	8003898 <HAL_GPIO_Init>
 8002ea8:	9402      	str	r4, [sp, #8]
 8002eaa:	6c2b      	ldr	r3, [r5, #64]	; 0x40
 8002eac:	f443 1300 	orr.w	r3, r3, #2097152	; 0x200000
 8002eb0:	642b      	str	r3, [r5, #64]	; 0x40
 8002eb2:	6c2b      	ldr	r3, [r5, #64]	; 0x40
 8002eb4:	f403 1300 	and.w	r3, r3, #2097152	; 0x200000
 8002eb8:	9302      	str	r3, [sp, #8]
 8002eba:	9b02      	ldr	r3, [sp, #8]
 8002ebc:	6a2b      	ldr	r3, [r5, #32]
 8002ebe:	f443 1300 	orr.w	r3, r3, #2097152	; 0x200000
 8002ec2:	622b      	str	r3, [r5, #32]
 8002ec4:	6a2b      	ldr	r3, [r5, #32]
 8002ec6:	f423 1300 	bic.w	r3, r3, #2097152	; 0x200000
 8002eca:	622b      	str	r3, [r5, #32]
 8002ecc:	4622      	mov	r2, r4
 8002ece:	4621      	mov	r1, r4
 8002ed0:	201f      	movs	r0, #31
 8002ed2:	f000 fa8f 	bl	80033f4 <HAL_NVIC_SetPriority>
 8002ed6:	201f      	movs	r0, #31
 8002ed8:	f000 fabe 	bl	8003458 <HAL_NVIC_EnableIRQ>
 8002edc:	4622      	mov	r2, r4
 8002ede:	4621      	mov	r1, r4
 8002ee0:	2020      	movs	r0, #32
 8002ee2:	f000 fa87 	bl	80033f4 <HAL_NVIC_SetPriority>
 8002ee6:	2020      	movs	r0, #32
 8002ee8:	f000 fab6 	bl	8003458 <HAL_NVIC_EnableIRQ>
 8002eec:	4630      	mov	r0, r6
 8002eee:	b008      	add	sp, #32
 8002ef0:	e8bd 4070 	ldmia.w	sp!, {r4, r5, r6, lr}
 8002ef4:	f001 bc5a 	b.w	80047ac <HAL_I2C_Init>
 8002ef8:	b008      	add	sp, #32
 8002efa:	bd70      	pop	{r4, r5, r6, pc}
 8002efc:	20005910 	.word	0x20005910
 8002f00:	000186a0 	.word	0x000186a0
 8002f04:	40023800 	.word	0x40023800
 8002f08:	40005400 	.word	0x40005400
 8002f0c:	40020400 	.word	0x40020400

08002f10 <AUDIO_IO_Init>:
 8002f10:	b5f0      	push	{r4, r5, r6, r7, lr}
 8002f12:	b087      	sub	sp, #28
 8002f14:	2600      	movs	r6, #0
 8002f16:	4b15      	ldr	r3, [pc, #84]	; (8002f6c <AUDIO_IO_Init+0x5c>)
 8002f18:	9600      	str	r6, [sp, #0]
 8002f1a:	6b1a      	ldr	r2, [r3, #48]	; 0x30
 8002f1c:	4c14      	ldr	r4, [pc, #80]	; (8002f70 <AUDIO_IO_Init+0x60>)
 8002f1e:	f042 0208 	orr.w	r2, r2, #8
 8002f22:	631a      	str	r2, [r3, #48]	; 0x30
 8002f24:	6b1b      	ldr	r3, [r3, #48]	; 0x30
 8002f26:	f003 0308 	and.w	r3, r3, #8
 8002f2a:	9300      	str	r3, [sp, #0]
 8002f2c:	2510      	movs	r5, #16
 8002f2e:	a901      	add	r1, sp, #4
 8002f30:	4620      	mov	r0, r4
 8002f32:	9b00      	ldr	r3, [sp, #0]
 8002f34:	2701      	movs	r7, #1
 8002f36:	2302      	movs	r3, #2
 8002f38:	e9cd 6303 	strd	r6, r3, [sp, #12]
 8002f3c:	e9cd 5701 	strd	r5, r7, [sp, #4]
 8002f40:	f000 fcaa 	bl	8003898 <HAL_GPIO_Init>
 8002f44:	f7ff ff84 	bl	8002e50 <I2Cx_Init>
 8002f48:	4632      	mov	r2, r6
 8002f4a:	4629      	mov	r1, r5
 8002f4c:	4620      	mov	r0, r4
 8002f4e:	f000 fe19 	bl	8003b84 <HAL_GPIO_WritePin>
 8002f52:	2005      	movs	r0, #5
 8002f54:	f000 fa28 	bl	80033a8 <HAL_Delay>
 8002f58:	463a      	mov	r2, r7
 8002f5a:	4629      	mov	r1, r5
 8002f5c:	4620      	mov	r0, r4
 8002f5e:	f000 fe11 	bl	8003b84 <HAL_GPIO_WritePin>
 8002f62:	2005      	movs	r0, #5
 8002f64:	f000 fa20 	bl	80033a8 <HAL_Delay>
 8002f68:	b007      	add	sp, #28
 8002f6a:	bdf0      	pop	{r4, r5, r6, r7, pc}
 8002f6c:	40023800 	.word	0x40023800
 8002f70:	40020c00 	.word	0x40020c00

08002f74 <AUDIO_IO_DeInit>:
 8002f74:	4770      	bx	lr
	...

08002f78 <AUDIO_IO_Write>:
 8002f78:	b57f      	push	{r0, r1, r2, r3, r4, r5, r6, lr}
 8002f7a:	4b0c      	ldr	r3, [pc, #48]	; (8002fac <AUDIO_IO_Write+0x34>)
 8002f7c:	f88d 2017 	strb.w	r2, [sp, #23]
 8002f80:	681b      	ldr	r3, [r3, #0]
 8002f82:	9302      	str	r3, [sp, #8]
 8002f84:	f10d 0217 	add.w	r2, sp, #23
 8002f88:	2301      	movs	r3, #1
 8002f8a:	9200      	str	r2, [sp, #0]
 8002f8c:	9301      	str	r3, [sp, #4]
 8002f8e:	460a      	mov	r2, r1
 8002f90:	4601      	mov	r1, r0
 8002f92:	4807      	ldr	r0, [pc, #28]	; (8002fb0 <AUDIO_IO_Write+0x38>)
 8002f94:	f001 fccc 	bl	8004930 <HAL_I2C_Mem_Write>
 8002f98:	b120      	cbz	r0, 8002fa4 <AUDIO_IO_Write+0x2c>
 8002f9a:	4805      	ldr	r0, [pc, #20]	; (8002fb0 <AUDIO_IO_Write+0x38>)
 8002f9c:	f001 fcae 	bl	80048fc <HAL_I2C_DeInit>
 8002fa0:	f7ff ff56 	bl	8002e50 <I2Cx_Init>
 8002fa4:	b007      	add	sp, #28
 8002fa6:	f85d fb04 	ldr.w	pc, [sp], #4
 8002faa:	bf00      	nop
 8002fac:	20000050 	.word	0x20000050
 8002fb0:	20005910 	.word	0x20005910

08002fb4 <AUDIO_IO_Read>:
 8002fb4:	b57f      	push	{r0, r1, r2, r3, r4, r5, r6, lr}
 8002fb6:	2300      	movs	r3, #0
 8002fb8:	f88d 3017 	strb.w	r3, [sp, #23]
 8002fbc:	4b0b      	ldr	r3, [pc, #44]	; (8002fec <AUDIO_IO_Read+0x38>)
 8002fbe:	681b      	ldr	r3, [r3, #0]
 8002fc0:	9302      	str	r3, [sp, #8]
 8002fc2:	460a      	mov	r2, r1
 8002fc4:	2301      	movs	r3, #1
 8002fc6:	f10d 0117 	add.w	r1, sp, #23
 8002fca:	9100      	str	r1, [sp, #0]
 8002fcc:	9301      	str	r3, [sp, #4]
 8002fce:	4601      	mov	r1, r0
 8002fd0:	4807      	ldr	r0, [pc, #28]	; (8002ff0 <AUDIO_IO_Read+0x3c>)
 8002fd2:	f001 fd3d 	bl	8004a50 <HAL_I2C_Mem_Read>
 8002fd6:	b120      	cbz	r0, 8002fe2 <AUDIO_IO_Read+0x2e>
 8002fd8:	4805      	ldr	r0, [pc, #20]	; (8002ff0 <AUDIO_IO_Read+0x3c>)
 8002fda:	f001 fc8f 	bl	80048fc <HAL_I2C_DeInit>
 8002fde:	f7ff ff37 	bl	8002e50 <I2Cx_Init>
 8002fe2:	f89d 0017 	ldrb.w	r0, [sp, #23]
 8002fe6:	b007      	add	sp, #28
 8002fe8:	f85d fb04 	ldr.w	pc, [sp], #4
 8002fec:	20000050 	.word	0x20000050
 8002ff0:	20005910 	.word	0x20005910

08002ff4 <I2S3_Init>:
 8002ff4:	4a0c      	ldr	r2, [pc, #48]	; (8003028 <I2S3_Init+0x34>)
 8002ff6:	69d1      	ldr	r1, [r2, #28]
 8002ff8:	b508      	push	{r3, lr}
 8002ffa:	4b0c      	ldr	r3, [pc, #48]	; (800302c <I2S3_Init+0x38>)
 8002ffc:	f421 6180 	bic.w	r1, r1, #1024	; 0x400
 8003000:	601a      	str	r2, [r3, #0]
 8003002:	61d1      	str	r1, [r2, #28]
 8003004:	2200      	movs	r2, #0
 8003006:	f44f 7100 	mov.w	r1, #512	; 0x200
 800300a:	6158      	str	r0, [r3, #20]
 800300c:	4618      	mov	r0, r3
 800300e:	e9c3 2206 	strd	r2, r2, [r3, #24]
 8003012:	e9c3 1201 	strd	r1, r2, [r3, #4]
 8003016:	60da      	str	r2, [r3, #12]
 8003018:	6119      	str	r1, [r3, #16]
 800301a:	f001 fe25 	bl	8004c68 <HAL_I2S_Init>
 800301e:	3800      	subs	r0, #0
 8003020:	bf18      	it	ne
 8003022:	2001      	movne	r0, #1
 8003024:	bd08      	pop	{r3, pc}
 8003026:	bf00      	nop
 8003028:	40003c00 	.word	0x40003c00
 800302c:	20006ac8 	.word	0x20006ac8

08003030 <BSP_AUDIO_OUT_Play>:
 8003030:	b538      	push	{r3, r4, r5, lr}
 8003032:	4b0c      	ldr	r3, [pc, #48]	; (8003064 <BSP_AUDIO_OUT_Play+0x34>)
 8003034:	681b      	ldr	r3, [r3, #0]
 8003036:	4605      	mov	r5, r0
 8003038:	460c      	mov	r4, r1
 800303a:	b28a      	uxth	r2, r1
 800303c:	68db      	ldr	r3, [r3, #12]
 800303e:	4601      	mov	r1, r0
 8003040:	2094      	movs	r0, #148	; 0x94
 8003042:	4798      	blx	r3
 8003044:	b960      	cbnz	r0, 8003060 <BSP_AUDIO_OUT_Play+0x30>
 8003046:	f5b4 3f00 	cmp.w	r4, #131072	; 0x20000
 800304a:	4807      	ldr	r0, [pc, #28]	; (8003068 <BSP_AUDIO_OUT_Play+0x38>)
 800304c:	bf34      	ite	cc
 800304e:	f3c4 024f 	ubfxcc	r2, r4, #1, #16
 8003052:	f64f 72ff 	movwcs	r2, #65535	; 0xffff
 8003056:	4629      	mov	r1, r5
 8003058:	f001 fea0 	bl	8004d9c <HAL_I2S_Transmit_DMA>
 800305c:	2000      	movs	r0, #0
 800305e:	bd38      	pop	{r3, r4, r5, pc}
 8003060:	2001      	movs	r0, #1
 8003062:	e7fc      	b.n	800305e <BSP_AUDIO_OUT_Play+0x2e>
 8003064:	200059c4 	.word	0x200059c4
 8003068:	20006ac8 	.word	0x20006ac8

0800306c <BSP_AUDIO_OUT_Pause>:
 800306c:	4b07      	ldr	r3, [pc, #28]	; (800308c <BSP_AUDIO_OUT_Pause+0x20>)
 800306e:	681b      	ldr	r3, [r3, #0]
 8003070:	b510      	push	{r4, lr}
 8003072:	691b      	ldr	r3, [r3, #16]
 8003074:	2094      	movs	r0, #148	; 0x94
 8003076:	4798      	blx	r3
 8003078:	4604      	mov	r4, r0
 800307a:	b920      	cbnz	r0, 8003086 <BSP_AUDIO_OUT_Pause+0x1a>
 800307c:	4804      	ldr	r0, [pc, #16]	; (8003090 <BSP_AUDIO_OUT_Pause+0x24>)
 800307e:	f001 fef1 	bl	8004e64 <HAL_I2S_DMAPause>
 8003082:	4620      	mov	r0, r4
 8003084:	bd10      	pop	{r4, pc}
 8003086:	2001      	movs	r0, #1
 8003088:	e7fc      	b.n	8003084 <BSP_AUDIO_OUT_Pause+0x18>
 800308a:	bf00      	nop
 800308c:	200059c4 	.word	0x200059c4
 8003090:	20006ac8 	.word	0x20006ac8

08003094 <BSP_AUDIO_OUT_Resume>:
 8003094:	4b07      	ldr	r3, [pc, #28]	; (80030b4 <BSP_AUDIO_OUT_Resume+0x20>)
 8003096:	681b      	ldr	r3, [r3, #0]
 8003098:	b510      	push	{r4, lr}
 800309a:	695b      	ldr	r3, [r3, #20]
 800309c:	2094      	movs	r0, #148	; 0x94
 800309e:	4798      	blx	r3
 80030a0:	4604      	mov	r4, r0
 80030a2:	b920      	cbnz	r0, 80030ae <BSP_AUDIO_OUT_Resume+0x1a>
 80030a4:	4804      	ldr	r0, [pc, #16]	; (80030b8 <BSP_AUDIO_OUT_Resume+0x24>)
 80030a6:	f001 ff15 	bl	8004ed4 <HAL_I2S_DMAResume>
 80030aa:	4620      	mov	r0, r4
 80030ac:	bd10      	pop	{r4, pc}
 80030ae:	2001      	movs	r0, #1
 80030b0:	e7fc      	b.n	80030ac <BSP_AUDIO_OUT_Resume+0x18>
 80030b2:	bf00      	nop
 80030b4:	200059c4 	.word	0x200059c4
 80030b8:	20006ac8 	.word	0x20006ac8

080030bc <BSP_AUDIO_OUT_ClockConfig>:
 80030bc:	b530      	push	{r4, r5, lr}
 80030be:	4a14      	ldr	r2, [pc, #80]	; (8003110 <BSP_AUDIO_OUT_ClockConfig+0x54>)
 80030c0:	b085      	sub	sp, #20
 80030c2:	2300      	movs	r3, #0
 80030c4:	24ff      	movs	r4, #255	; 0xff
 80030c6:	f852 5b04 	ldr.w	r5, [r2], #4
 80030ca:	b2d8      	uxtb	r0, r3
 80030cc:	3301      	adds	r3, #1
 80030ce:	428d      	cmp	r5, r1
 80030d0:	bf08      	it	eq
 80030d2:	4604      	moveq	r4, r0
 80030d4:	2b08      	cmp	r3, #8
 80030d6:	d1f6      	bne.n	80030c6 <BSP_AUDIO_OUT_ClockConfig+0xa>
 80030d8:	4668      	mov	r0, sp
 80030da:	f002 fc41 	bl	8005960 <HAL_RCCEx_GetPeriphCLKConfig>
 80030de:	2301      	movs	r3, #1
 80030e0:	f014 0f07 	tst.w	r4, #7
 80030e4:	9300      	str	r3, [sp, #0]
 80030e6:	bf01      	itttt	eq
 80030e8:	4b0a      	ldreq	r3, [pc, #40]	; (8003114 <BSP_AUDIO_OUT_ClockConfig+0x58>)
 80030ea:	f853 3024 	ldreq.w	r3, [r3, r4, lsl #2]
 80030ee:	9301      	streq	r3, [sp, #4]
 80030f0:	4b09      	ldreq	r3, [pc, #36]	; (8003118 <BSP_AUDIO_OUT_ClockConfig+0x5c>)
 80030f2:	bf16      	itet	ne
 80030f4:	f44f 7381 	movne.w	r3, #258	; 0x102
 80030f8:	f853 3024 	ldreq.w	r3, [r3, r4, lsl #2]
 80030fc:	9301      	strne	r3, [sp, #4]
 80030fe:	4668      	mov	r0, sp
 8003100:	bf18      	it	ne
 8003102:	2303      	movne	r3, #3
 8003104:	9302      	str	r3, [sp, #8]
 8003106:	f002 fb93 	bl	8005830 <HAL_RCCEx_PeriphCLKConfig>
 800310a:	b005      	add	sp, #20
 800310c:	bd30      	pop	{r4, r5, pc}
 800310e:	bf00      	nop
 8003110:	0800c9c4 	.word	0x0800c9c4
 8003114:	0800c9e4 	.word	0x0800c9e4
 8003118:	0800ca04 	.word	0x0800ca04

0800311c <BSP_AUDIO_OUT_MspInit>:
 800311c:	b570      	push	{r4, r5, r6, lr}
 800311e:	b08a      	sub	sp, #40	; 0x28
 8003120:	4c3e      	ldr	r4, [pc, #248]	; (800321c <BSP_AUDIO_OUT_MspInit+0x100>)
 8003122:	2500      	movs	r5, #0
 8003124:	9500      	str	r5, [sp, #0]
 8003126:	6c23      	ldr	r3, [r4, #64]	; 0x40
 8003128:	f443 4300 	orr.w	r3, r3, #32768	; 0x8000
 800312c:	6423      	str	r3, [r4, #64]	; 0x40
 800312e:	6c23      	ldr	r3, [r4, #64]	; 0x40
 8003130:	f403 4300 	and.w	r3, r3, #32768	; 0x8000
 8003134:	9300      	str	r3, [sp, #0]
 8003136:	9b00      	ldr	r3, [sp, #0]
 8003138:	9501      	str	r5, [sp, #4]
 800313a:	6b23      	ldr	r3, [r4, #48]	; 0x30
 800313c:	f043 0304 	orr.w	r3, r3, #4
 8003140:	6323      	str	r3, [r4, #48]	; 0x30
 8003142:	6b23      	ldr	r3, [r4, #48]	; 0x30
 8003144:	f003 0304 	and.w	r3, r3, #4
 8003148:	9301      	str	r3, [sp, #4]
 800314a:	9b01      	ldr	r3, [sp, #4]
 800314c:	9502      	str	r5, [sp, #8]
 800314e:	6b23      	ldr	r3, [r4, #48]	; 0x30
 8003150:	f043 0301 	orr.w	r3, r3, #1
 8003154:	6323      	str	r3, [r4, #48]	; 0x30
 8003156:	6b23      	ldr	r3, [r4, #48]	; 0x30
 8003158:	f003 0301 	and.w	r3, r3, #1
 800315c:	9302      	str	r3, [sp, #8]
 800315e:	9b02      	ldr	r3, [sp, #8]
 8003160:	4606      	mov	r6, r0
 8003162:	2302      	movs	r3, #2
 8003164:	f44f 50a0 	mov.w	r0, #5120	; 0x1400
 8003168:	e9cd 0305 	strd	r0, r3, [sp, #20]
 800316c:	e9cd 5307 	strd	r5, r3, [sp, #28]
 8003170:	482b      	ldr	r0, [pc, #172]	; (8003220 <BSP_AUDIO_OUT_MspInit+0x104>)
 8003172:	2306      	movs	r3, #6
 8003174:	a905      	add	r1, sp, #20
 8003176:	9309      	str	r3, [sp, #36]	; 0x24
 8003178:	f000 fb8e 	bl	8003898 <HAL_GPIO_Init>
 800317c:	2310      	movs	r3, #16
 800317e:	4829      	ldr	r0, [pc, #164]	; (8003224 <BSP_AUDIO_OUT_MspInit+0x108>)
 8003180:	9305      	str	r3, [sp, #20]
 8003182:	a905      	add	r1, sp, #20
 8003184:	f000 fb88 	bl	8003898 <HAL_GPIO_Init>
 8003188:	9503      	str	r5, [sp, #12]
 800318a:	6b23      	ldr	r3, [r4, #48]	; 0x30
 800318c:	4824      	ldr	r0, [pc, #144]	; (8003220 <BSP_AUDIO_OUT_MspInit+0x104>)
 800318e:	f043 0304 	orr.w	r3, r3, #4
 8003192:	6323      	str	r3, [r4, #48]	; 0x30
 8003194:	6b23      	ldr	r3, [r4, #48]	; 0x30
 8003196:	f003 0304 	and.w	r3, r3, #4
 800319a:	9303      	str	r3, [sp, #12]
 800319c:	9b03      	ldr	r3, [sp, #12]
 800319e:	a905      	add	r1, sp, #20
 80031a0:	2380      	movs	r3, #128	; 0x80
 80031a2:	9305      	str	r3, [sp, #20]
 80031a4:	f000 fb78 	bl	8003898 <HAL_GPIO_Init>
 80031a8:	9504      	str	r5, [sp, #16]
 80031aa:	6b23      	ldr	r3, [r4, #48]	; 0x30
 80031ac:	6832      	ldr	r2, [r6, #0]
 80031ae:	f443 1300 	orr.w	r3, r3, #2097152	; 0x200000
 80031b2:	6323      	str	r3, [r4, #48]	; 0x30
 80031b4:	6b23      	ldr	r3, [r4, #48]	; 0x30
 80031b6:	f403 1300 	and.w	r3, r3, #2097152	; 0x200000
 80031ba:	9304      	str	r3, [sp, #16]
 80031bc:	9b04      	ldr	r3, [sp, #16]
 80031be:	4b1a      	ldr	r3, [pc, #104]	; (8003228 <BSP_AUDIO_OUT_MspInit+0x10c>)
 80031c0:	429a      	cmp	r2, r3
 80031c2:	d121      	bne.n	8003208 <BSP_AUDIO_OUT_MspInit+0xec>
 80031c4:	4c19      	ldr	r4, [pc, #100]	; (800322c <BSP_AUDIO_OUT_MspInit+0x110>)
 80031c6:	63b4      	str	r4, [r6, #56]	; 0x38
 80031c8:	2340      	movs	r3, #64	; 0x40
 80031ca:	e9c4 3502 	strd	r3, r5, [r4, #8]
 80031ce:	f44f 6280 	mov.w	r2, #1024	; 0x400
 80031d2:	f44f 6300 	mov.w	r3, #2048	; 0x800
 80031d6:	e9c4 2304 	strd	r2, r3, [r4, #16]
 80031da:	f44f 5300 	mov.w	r3, #8192	; 0x2000
 80031de:	e9c4 3506 	strd	r3, r5, [r4, #24]
 80031e2:	f44f 3100 	mov.w	r1, #131072	; 0x20000
 80031e6:	2304      	movs	r3, #4
 80031e8:	e9c4 1308 	strd	r1, r3, [r4, #32]
 80031ec:	2303      	movs	r3, #3
 80031ee:	e9c4 350a 	strd	r3, r5, [r4, #40]	; 0x28
 80031f2:	4620      	mov	r0, r4
 80031f4:	4b0e      	ldr	r3, [pc, #56]	; (8003230 <BSP_AUDIO_OUT_MspInit+0x114>)
 80031f6:	6065      	str	r5, [r4, #4]
 80031f8:	6325      	str	r5, [r4, #48]	; 0x30
 80031fa:	6023      	str	r3, [r4, #0]
 80031fc:	63a6      	str	r6, [r4, #56]	; 0x38
 80031fe:	f000 fa17 	bl	8003630 <HAL_DMA_DeInit>
 8003202:	4620      	mov	r0, r4
 8003204:	f000 f994 	bl	8003530 <HAL_DMA_Init>
 8003208:	2200      	movs	r2, #0
 800320a:	210e      	movs	r1, #14
 800320c:	202f      	movs	r0, #47	; 0x2f
 800320e:	f000 f8f1 	bl	80033f4 <HAL_NVIC_SetPriority>
 8003212:	202f      	movs	r0, #47	; 0x2f
 8003214:	f000 f920 	bl	8003458 <HAL_NVIC_EnableIRQ>
 8003218:	b00a      	add	sp, #40	; 0x28
 800321a:	bd70      	pop	{r4, r5, r6, pc}
 800321c:	40023800 	.word	0x40023800
 8003220:	40020800 	.word	0x40020800
 8003224:	40020000 	.word	0x40020000
 8003228:	40003c00 	.word	0x40003c00
 800322c:	20005964 	.word	0x20005964
 8003230:	400260b8 	.word	0x400260b8

08003234 <BSP_AUDIO_OUT_Init>:
 8003234:	e92d 41f0 	stmdb	sp!, {r4, r5, r6, r7, r8, lr}
 8003238:	4c18      	ldr	r4, [pc, #96]	; (800329c <BSP_AUDIO_OUT_Init+0x68>)
 800323a:	4615      	mov	r5, r2
 800323c:	4606      	mov	r6, r0
 800323e:	2200      	movs	r2, #0
 8003240:	4620      	mov	r0, r4
 8003242:	460f      	mov	r7, r1
 8003244:	4629      	mov	r1, r5
 8003246:	f7ff ff39 	bl	80030bc <BSP_AUDIO_OUT_ClockConfig>
 800324a:	4b15      	ldr	r3, [pc, #84]	; (80032a0 <BSP_AUDIO_OUT_Init+0x6c>)
 800324c:	6023      	str	r3, [r4, #0]
 800324e:	4620      	mov	r0, r4
 8003250:	f001 ff2b 	bl	80050aa <HAL_I2S_GetState>
 8003254:	4601      	mov	r1, r0
 8003256:	b910      	cbnz	r0, 800325e <BSP_AUDIO_OUT_Init+0x2a>
 8003258:	4620      	mov	r0, r4
 800325a:	f7ff ff5f 	bl	800311c <BSP_AUDIO_OUT_MspInit>
 800325e:	4628      	mov	r0, r5
 8003260:	f7ff fec8 	bl	8002ff4 <I2S3_Init>
 8003264:	4604      	mov	r4, r0
 8003266:	b118      	cbz	r0, 8003270 <BSP_AUDIO_OUT_Init+0x3c>
 8003268:	2401      	movs	r4, #1
 800326a:	4620      	mov	r0, r4
 800326c:	e8bd 81f0 	ldmia.w	sp!, {r4, r5, r6, r7, r8, pc}
 8003270:	f8df 8034 	ldr.w	r8, [pc, #52]	; 80032a8 <BSP_AUDIO_OUT_Init+0x74>
 8003274:	2094      	movs	r0, #148	; 0x94
 8003276:	f8d8 3008 	ldr.w	r3, [r8, #8]
 800327a:	4798      	blx	r3
 800327c:	f000 00f8 	and.w	r0, r0, #248	; 0xf8
 8003280:	28e0      	cmp	r0, #224	; 0xe0
 8003282:	d1f1      	bne.n	8003268 <BSP_AUDIO_OUT_Init+0x34>
 8003284:	4b07      	ldr	r3, [pc, #28]	; (80032a4 <BSP_AUDIO_OUT_Init+0x70>)
 8003286:	463a      	mov	r2, r7
 8003288:	f8c3 8000 	str.w	r8, [r3]
 800328c:	4631      	mov	r1, r6
 800328e:	f8d8 8000 	ldr.w	r8, [r8]
 8003292:	462b      	mov	r3, r5
 8003294:	2094      	movs	r0, #148	; 0x94
 8003296:	47c0      	blx	r8
 8003298:	e7e7      	b.n	800326a <BSP_AUDIO_OUT_Init+0x36>
 800329a:	bf00      	nop
 800329c:	20006ac8 	.word	0x20006ac8
 80032a0:	40003c00 	.word	0x40003c00
 80032a4:	200059c4 	.word	0x200059c4
 80032a8:	20000020 	.word	0x20000020

080032ac <HAL_I2S_TxCpltCallback>:
 80032ac:	b508      	push	{r3, lr}
 80032ae:	6802      	ldr	r2, [r0, #0]
 80032b0:	4b02      	ldr	r3, [pc, #8]	; (80032bc <HAL_I2S_TxCpltCallback+0x10>)
 80032b2:	429a      	cmp	r2, r3
 80032b4:	d101      	bne.n	80032ba <HAL_I2S_TxCpltCallback+0xe>
 80032b6:	f7fe fbbd 	bl	8001a34 <BSP_AUDIO_OUT_TransferComplete_CallBack>
 80032ba:	bd08      	pop	{r3, pc}
 80032bc:	40003c00 	.word	0x40003c00

080032c0 <HAL_I2S_TxHalfCpltCallback>:
 80032c0:	b508      	push	{r3, lr}
 80032c2:	6802      	ldr	r2, [r0, #0]
 80032c4:	4b02      	ldr	r3, [pc, #8]	; (80032d0 <HAL_I2S_TxHalfCpltCallback+0x10>)
 80032c6:	429a      	cmp	r2, r3
 80032c8:	d101      	bne.n	80032ce <HAL_I2S_TxHalfCpltCallback+0xe>
 80032ca:	f7fe fb9f 	bl	8001a0c <BSP_AUDIO_OUT_HalfTransfer_CallBack>
 80032ce:	bd08      	pop	{r3, pc}
 80032d0:	40003c00 	.word	0x40003c00

080032d4 <BSP_AUDIO_IN_TransferComplete_CallBack>:
 80032d4:	4770      	bx	lr

080032d6 <HAL_I2S_RxCpltCallback>:
 80032d6:	b508      	push	{r3, lr}
 80032d8:	f7ff fffc 	bl	80032d4 <BSP_AUDIO_IN_TransferComplete_CallBack>
 80032dc:	bd08      	pop	{r3, pc}

080032de <BSP_AUDIO_IN_Error_Callback>:
 80032de:	4770      	bx	lr

080032e0 <HAL_I2S_ErrorCallback>:
 80032e0:	6802      	ldr	r2, [r0, #0]
 80032e2:	4b07      	ldr	r3, [pc, #28]	; (8003300 <HAL_I2S_ErrorCallback+0x20>)
 80032e4:	429a      	cmp	r2, r3
 80032e6:	b510      	push	{r4, lr}
 80032e8:	4604      	mov	r4, r0
 80032ea:	d101      	bne.n	80032f0 <HAL_I2S_ErrorCallback+0x10>
 80032ec:	f7fe fbb6 	bl	8001a5c <BSP_AUDIO_OUT_Error_CallBack>
 80032f0:	6822      	ldr	r2, [r4, #0]
 80032f2:	4b04      	ldr	r3, [pc, #16]	; (8003304 <HAL_I2S_ErrorCallback+0x24>)
 80032f4:	429a      	cmp	r2, r3
 80032f6:	d101      	bne.n	80032fc <HAL_I2S_ErrorCallback+0x1c>
 80032f8:	f7ff fff1 	bl	80032de <BSP_AUDIO_IN_Error_Callback>
 80032fc:	bd10      	pop	{r4, pc}
 80032fe:	bf00      	nop
 8003300:	40003c00 	.word	0x40003c00
 8003304:	40003800 	.word	0x40003800

08003308 <HAL_InitTick>:
 8003308:	b538      	push	{r3, r4, r5, lr}
 800330a:	4a0e      	ldr	r2, [pc, #56]	; (8003344 <HAL_InitTick+0x3c>)
 800330c:	4b0e      	ldr	r3, [pc, #56]	; (8003348 <HAL_InitTick+0x40>)
 800330e:	4605      	mov	r5, r0
 8003310:	7818      	ldrb	r0, [r3, #0]
 8003312:	f44f 737a 	mov.w	r3, #1000	; 0x3e8
 8003316:	fbb3 f3f0 	udiv	r3, r3, r0
 800331a:	6810      	ldr	r0, [r2, #0]
 800331c:	fbb0 f0f3 	udiv	r0, r0, r3
 8003320:	f000 f8bc 	bl	800349c <HAL_SYSTICK_Config>
 8003324:	4604      	mov	r4, r0
 8003326:	b958      	cbnz	r0, 8003340 <HAL_InitTick+0x38>
 8003328:	2d0f      	cmp	r5, #15
 800332a:	d809      	bhi.n	8003340 <HAL_InitTick+0x38>
 800332c:	4602      	mov	r2, r0
 800332e:	4629      	mov	r1, r5
 8003330:	f04f 30ff 	mov.w	r0, #4294967295
 8003334:	f000 f85e 	bl	80033f4 <HAL_NVIC_SetPriority>
 8003338:	4b04      	ldr	r3, [pc, #16]	; (800334c <HAL_InitTick+0x44>)
 800333a:	4620      	mov	r0, r4
 800333c:	601d      	str	r5, [r3, #0]
 800333e:	bd38      	pop	{r3, r4, r5, pc}
 8003340:	2001      	movs	r0, #1
 8003342:	e7fc      	b.n	800333e <HAL_InitTick+0x36>
 8003344:	20000010 	.word	0x20000010
 8003348:	20000054 	.word	0x20000054
 800334c:	20000058 	.word	0x20000058

08003350 <HAL_Init>:
 8003350:	b508      	push	{r3, lr}
 8003352:	4b0b      	ldr	r3, [pc, #44]	; (8003380 <HAL_Init+0x30>)
 8003354:	681a      	ldr	r2, [r3, #0]
 8003356:	f442 7200 	orr.w	r2, r2, #512	; 0x200
 800335a:	601a      	str	r2, [r3, #0]
 800335c:	681a      	ldr	r2, [r3, #0]
 800335e:	f442 6280 	orr.w	r2, r2, #1024	; 0x400
 8003362:	601a      	str	r2, [r3, #0]
 8003364:	681a      	ldr	r2, [r3, #0]
 8003366:	f442 7280 	orr.w	r2, r2, #256	; 0x100
 800336a:	601a      	str	r2, [r3, #0]
 800336c:	2003      	movs	r0, #3
 800336e:	f000 f82f 	bl	80033d0 <HAL_NVIC_SetPriorityGrouping>
 8003372:	2000      	movs	r0, #0
 8003374:	f7ff ffc8 	bl	8003308 <HAL_InitTick>
 8003378:	f7fe f826 	bl	80013c8 <HAL_MspInit>
 800337c:	2000      	movs	r0, #0
 800337e:	bd08      	pop	{r3, pc}
 8003380:	40023c00 	.word	0x40023c00

08003384 <HAL_IncTick>:
 8003384:	4a03      	ldr	r2, [pc, #12]	; (8003394 <HAL_IncTick+0x10>)
 8003386:	4b04      	ldr	r3, [pc, #16]	; (8003398 <HAL_IncTick+0x14>)
 8003388:	6811      	ldr	r1, [r2, #0]
 800338a:	781b      	ldrb	r3, [r3, #0]
 800338c:	440b      	add	r3, r1
 800338e:	6013      	str	r3, [r2, #0]
 8003390:	4770      	bx	lr
 8003392:	bf00      	nop
 8003394:	20006b58 	.word	0x20006b58
 8003398:	20000054 	.word	0x20000054

0800339c <HAL_GetTick>:
 800339c:	4b01      	ldr	r3, [pc, #4]	; (80033a4 <HAL_GetTick+0x8>)
 800339e:	6818      	ldr	r0, [r3, #0]
 80033a0:	4770      	bx	lr
 80033a2:	bf00      	nop
 80033a4:	20006b58 	.word	0x20006b58

080033a8 <HAL_Delay>:
 80033a8:	b538      	push	{r3, r4, r5, lr}
 80033aa:	4604      	mov	r4, r0
 80033ac:	f7ff fff6 	bl	800339c <HAL_GetTick>
 80033b0:	1c63      	adds	r3, r4, #1
 80033b2:	bf1c      	itt	ne
 80033b4:	4b05      	ldrne	r3, [pc, #20]	; (80033cc <HAL_Delay+0x24>)
 80033b6:	781b      	ldrbne	r3, [r3, #0]
 80033b8:	4605      	mov	r5, r0
 80033ba:	bf18      	it	ne
 80033bc:	18e4      	addne	r4, r4, r3
 80033be:	f7ff ffed 	bl	800339c <HAL_GetTick>
 80033c2:	1b43      	subs	r3, r0, r5
 80033c4:	42a3      	cmp	r3, r4
 80033c6:	d3fa      	bcc.n	80033be <HAL_Delay+0x16>
 80033c8:	bd38      	pop	{r3, r4, r5, pc}
 80033ca:	bf00      	nop
 80033cc:	20000054 	.word	0x20000054

080033d0 <HAL_NVIC_SetPriorityGrouping>:
 80033d0:	4907      	ldr	r1, [pc, #28]	; (80033f0 <HAL_NVIC_SetPriorityGrouping+0x20>)
 80033d2:	68ca      	ldr	r2, [r1, #12]
 80033d4:	f422 62e0 	bic.w	r2, r2, #1792	; 0x700
 80033d8:	0203      	lsls	r3, r0, #8
 80033da:	0412      	lsls	r2, r2, #16
 80033dc:	f403 63e0 	and.w	r3, r3, #1792	; 0x700
 80033e0:	0c12      	lsrs	r2, r2, #16
 80033e2:	4313      	orrs	r3, r2
 80033e4:	f043 63bf 	orr.w	r3, r3, #100139008	; 0x5f80000
 80033e8:	f443 3300 	orr.w	r3, r3, #131072	; 0x20000
 80033ec:	60cb      	str	r3, [r1, #12]
 80033ee:	4770      	bx	lr
 80033f0:	e000ed00 	.word	0xe000ed00

080033f4 <HAL_NVIC_SetPriority>:
 80033f4:	4b16      	ldr	r3, [pc, #88]	; (8003450 <HAL_NVIC_SetPriority+0x5c>)
 80033f6:	b530      	push	{r4, r5, lr}
 80033f8:	68dc      	ldr	r4, [r3, #12]
 80033fa:	f3c4 2402 	ubfx	r4, r4, #8, #3
 80033fe:	f1c4 0507 	rsb	r5, r4, #7
 8003402:	1d23      	adds	r3, r4, #4
 8003404:	2d04      	cmp	r5, #4
 8003406:	bf28      	it	cs
 8003408:	2504      	movcs	r5, #4
 800340a:	2b06      	cmp	r3, #6
 800340c:	f04f 33ff 	mov.w	r3, #4294967295
 8003410:	bf8c      	ite	hi
 8003412:	3c03      	subhi	r4, #3
 8003414:	2400      	movls	r4, #0
 8003416:	fa03 f505 	lsl.w	r5, r3, r5
 800341a:	ea21 0105 	bic.w	r1, r1, r5
 800341e:	40a3      	lsls	r3, r4
 8003420:	ea22 0203 	bic.w	r2, r2, r3
 8003424:	40a1      	lsls	r1, r4
 8003426:	2800      	cmp	r0, #0
 8003428:	ea41 0302 	orr.w	r3, r1, r2
 800342c:	bfac      	ite	ge
 800342e:	f100 4060 	addge.w	r0, r0, #3758096384	; 0xe0000000
 8003432:	4a08      	ldrlt	r2, [pc, #32]	; (8003454 <HAL_NVIC_SetPriority+0x60>)
 8003434:	ea4f 1303 	mov.w	r3, r3, lsl #4
 8003438:	bfb8      	it	lt
 800343a:	f000 000f 	andlt.w	r0, r0, #15
 800343e:	b2db      	uxtb	r3, r3
 8003440:	bfaa      	itet	ge
 8003442:	f500 4061 	addge.w	r0, r0, #57600	; 0xe100
 8003446:	5413      	strblt	r3, [r2, r0]
 8003448:	f880 3300 	strbge.w	r3, [r0, #768]	; 0x300
 800344c:	bd30      	pop	{r4, r5, pc}
 800344e:	bf00      	nop
 8003450:	e000ed00 	.word	0xe000ed00
 8003454:	e000ed14 	.word	0xe000ed14

08003458 <HAL_NVIC_EnableIRQ>:
 8003458:	2800      	cmp	r0, #0
 800345a:	db08      	blt.n	800346e <HAL_NVIC_EnableIRQ+0x16>
 800345c:	0942      	lsrs	r2, r0, #5
 800345e:	2301      	movs	r3, #1
 8003460:	f000 001f 	and.w	r0, r0, #31
 8003464:	fa03 f000 	lsl.w	r0, r3, r0
 8003468:	4b01      	ldr	r3, [pc, #4]	; (8003470 <HAL_NVIC_EnableIRQ+0x18>)
 800346a:	f843 0022 	str.w	r0, [r3, r2, lsl #2]
 800346e:	4770      	bx	lr
 8003470:	e000e100 	.word	0xe000e100

08003474 <HAL_NVIC_DisableIRQ>:
 8003474:	2800      	cmp	r0, #0
 8003476:	db0d      	blt.n	8003494 <HAL_NVIC_DisableIRQ+0x20>
 8003478:	0943      	lsrs	r3, r0, #5
 800347a:	2201      	movs	r2, #1
 800347c:	f000 001f 	and.w	r0, r0, #31
 8003480:	fa02 f000 	lsl.w	r0, r2, r0
 8003484:	3320      	adds	r3, #32
 8003486:	4a04      	ldr	r2, [pc, #16]	; (8003498 <HAL_NVIC_DisableIRQ+0x24>)
 8003488:	f842 0023 	str.w	r0, [r2, r3, lsl #2]
 800348c:	f3bf 8f4f 	dsb	sy
 8003490:	f3bf 8f6f 	isb	sy
 8003494:	4770      	bx	lr
 8003496:	bf00      	nop
 8003498:	e000e100 	.word	0xe000e100

0800349c <HAL_SYSTICK_Config>:
 800349c:	3801      	subs	r0, #1
 800349e:	f1b0 7f80 	cmp.w	r0, #16777216	; 0x1000000
 80034a2:	d20b      	bcs.n	80034bc <HAL_SYSTICK_Config+0x20>
 80034a4:	f04f 23e0 	mov.w	r3, #3758153728	; 0xe000e000
 80034a8:	4a05      	ldr	r2, [pc, #20]	; (80034c0 <HAL_SYSTICK_Config+0x24>)
 80034aa:	6158      	str	r0, [r3, #20]
 80034ac:	21f0      	movs	r1, #240	; 0xf0
 80034ae:	f882 1023 	strb.w	r1, [r2, #35]	; 0x23
 80034b2:	2000      	movs	r0, #0
 80034b4:	2207      	movs	r2, #7
 80034b6:	6198      	str	r0, [r3, #24]
 80034b8:	611a      	str	r2, [r3, #16]
 80034ba:	4770      	bx	lr
 80034bc:	2001      	movs	r0, #1
 80034be:	4770      	bx	lr
 80034c0:	e000ed00 	.word	0xe000ed00

080034c4 <HAL_NVIC_ClearPendingIRQ>:
 80034c4:	2800      	cmp	r0, #0
 80034c6:	db09      	blt.n	80034dc <HAL_NVIC_ClearPendingIRQ+0x18>
 80034c8:	0943      	lsrs	r3, r0, #5
 80034ca:	2201      	movs	r2, #1
 80034cc:	f000 001f 	and.w	r0, r0, #31
 80034d0:	fa02 f000 	lsl.w	r0, r2, r0
 80034d4:	3360      	adds	r3, #96	; 0x60
 80034d6:	4a02      	ldr	r2, [pc, #8]	; (80034e0 <HAL_NVIC_ClearPendingIRQ+0x1c>)
 80034d8:	f842 0023 	str.w	r0, [r2, r3, lsl #2]
 80034dc:	4770      	bx	lr
 80034de:	bf00      	nop
 80034e0:	e000e100 	.word	0xe000e100

080034e4 <HAL_CRC_Init>:
 80034e4:	b510      	push	{r4, lr}
 80034e6:	4604      	mov	r4, r0
 80034e8:	b150      	cbz	r0, 8003500 <HAL_CRC_Init+0x1c>
 80034ea:	7943      	ldrb	r3, [r0, #5]
 80034ec:	f003 02ff 	and.w	r2, r3, #255	; 0xff
 80034f0:	b913      	cbnz	r3, 80034f8 <HAL_CRC_Init+0x14>
 80034f2:	7102      	strb	r2, [r0, #4]
 80034f4:	f7fd ff86 	bl	8001404 <HAL_CRC_MspInit>
 80034f8:	2301      	movs	r3, #1
 80034fa:	7163      	strb	r3, [r4, #5]
 80034fc:	2000      	movs	r0, #0
 80034fe:	bd10      	pop	{r4, pc}
 8003500:	2001      	movs	r0, #1
 8003502:	e7fc      	b.n	80034fe <HAL_CRC_Init+0x1a>

08003504 <DMA_CalcBaseAndBitshift>:
 8003504:	6803      	ldr	r3, [r0, #0]
 8003506:	b510      	push	{r4, lr}
 8003508:	4c08      	ldr	r4, [pc, #32]	; (800352c <DMA_CalcBaseAndBitshift+0x28>)
 800350a:	4602      	mov	r2, r0
 800350c:	b2d9      	uxtb	r1, r3
 800350e:	3910      	subs	r1, #16
 8003510:	2018      	movs	r0, #24
 8003512:	fbb1 f0f0 	udiv	r0, r1, r0
 8003516:	5c20      	ldrb	r0, [r4, r0]
 8003518:	65d0      	str	r0, [r2, #92]	; 0x5c
 800351a:	f423 707f 	bic.w	r0, r3, #1020	; 0x3fc
 800351e:	f020 0003 	bic.w	r0, r0, #3
 8003522:	295f      	cmp	r1, #95	; 0x5f
 8003524:	bf88      	it	hi
 8003526:	3004      	addhi	r0, #4
 8003528:	6590      	str	r0, [r2, #88]	; 0x58
 800352a:	bd10      	pop	{r4, pc}
 800352c:	0800ca24 	.word	0x0800ca24

08003530 <HAL_DMA_Init>:
 8003530:	b570      	push	{r4, r5, r6, lr}
 8003532:	4604      	mov	r4, r0
 8003534:	f7ff ff32 	bl	800339c <HAL_GetTick>
 8003538:	4605      	mov	r5, r0
 800353a:	2c00      	cmp	r4, #0
 800353c:	d073      	beq.n	8003626 <HAL_DMA_Init+0xf6>
 800353e:	2302      	movs	r3, #2
 8003540:	f884 3035 	strb.w	r3, [r4, #53]	; 0x35
 8003544:	6822      	ldr	r2, [r4, #0]
 8003546:	2300      	movs	r3, #0
 8003548:	f884 3034 	strb.w	r3, [r4, #52]	; 0x34
 800354c:	6813      	ldr	r3, [r2, #0]
 800354e:	f023 0301 	bic.w	r3, r3, #1
 8003552:	6013      	str	r3, [r2, #0]
 8003554:	6821      	ldr	r1, [r4, #0]
 8003556:	680b      	ldr	r3, [r1, #0]
 8003558:	07d8      	lsls	r0, r3, #31
 800355a:	d42f      	bmi.n	80035bc <HAL_DMA_Init+0x8c>
 800355c:	680b      	ldr	r3, [r1, #0]
 800355e:	4d33      	ldr	r5, [pc, #204]	; (800362c <HAL_DMA_Init+0xfc>)
 8003560:	69a0      	ldr	r0, [r4, #24]
 8003562:	401d      	ands	r5, r3
 8003564:	e9d4 2301 	ldrd	r2, r3, [r4, #4]
 8003568:	4313      	orrs	r3, r2
 800356a:	68e2      	ldr	r2, [r4, #12]
 800356c:	4313      	orrs	r3, r2
 800356e:	6922      	ldr	r2, [r4, #16]
 8003570:	4313      	orrs	r3, r2
 8003572:	6962      	ldr	r2, [r4, #20]
 8003574:	4313      	orrs	r3, r2
 8003576:	69e2      	ldr	r2, [r4, #28]
 8003578:	4303      	orrs	r3, r0
 800357a:	4313      	orrs	r3, r2
 800357c:	6a22      	ldr	r2, [r4, #32]
 800357e:	4313      	orrs	r3, r2
 8003580:	6a62      	ldr	r2, [r4, #36]	; 0x24
 8003582:	2a04      	cmp	r2, #4
 8003584:	ea43 0305 	orr.w	r3, r3, r5
 8003588:	bf02      	ittt	eq
 800358a:	e9d4 560b 	ldrdeq	r5, r6, [r4, #44]	; 0x2c
 800358e:	4335      	orreq	r5, r6
 8003590:	432b      	orreq	r3, r5
 8003592:	600b      	str	r3, [r1, #0]
 8003594:	694b      	ldr	r3, [r1, #20]
 8003596:	2a04      	cmp	r2, #4
 8003598:	f023 0307 	bic.w	r3, r3, #7
 800359c:	ea43 0302 	orr.w	r3, r3, r2
 80035a0:	d133      	bne.n	800360a <HAL_DMA_Init+0xda>
 80035a2:	6aa2      	ldr	r2, [r4, #40]	; 0x28
 80035a4:	6ae5      	ldr	r5, [r4, #44]	; 0x2c
 80035a6:	4313      	orrs	r3, r2
 80035a8:	b37d      	cbz	r5, 800360a <HAL_DMA_Init+0xda>
 80035aa:	b990      	cbnz	r0, 80035d2 <HAL_DMA_Init+0xa2>
 80035ac:	2a01      	cmp	r2, #1
 80035ae:	d021      	beq.n	80035f4 <HAL_DMA_Init+0xc4>
 80035b0:	f032 0202 	bics.w	r2, r2, #2
 80035b4:	d129      	bne.n	800360a <HAL_DMA_Init+0xda>
 80035b6:	01ea      	lsls	r2, r5, #7
 80035b8:	d527      	bpl.n	800360a <HAL_DMA_Init+0xda>
 80035ba:	e01e      	b.n	80035fa <HAL_DMA_Init+0xca>
 80035bc:	f7ff feee 	bl	800339c <HAL_GetTick>
 80035c0:	1b40      	subs	r0, r0, r5
 80035c2:	2805      	cmp	r0, #5
 80035c4:	d9c6      	bls.n	8003554 <HAL_DMA_Init+0x24>
 80035c6:	2320      	movs	r3, #32
 80035c8:	6563      	str	r3, [r4, #84]	; 0x54
 80035ca:	2003      	movs	r0, #3
 80035cc:	f884 0035 	strb.w	r0, [r4, #53]	; 0x35
 80035d0:	bd70      	pop	{r4, r5, r6, pc}
 80035d2:	f5b0 5f00 	cmp.w	r0, #8192	; 0x2000
 80035d6:	d114      	bne.n	8003602 <HAL_DMA_Init+0xd2>
 80035d8:	2a03      	cmp	r2, #3
 80035da:	d816      	bhi.n	800360a <HAL_DMA_Init+0xda>
 80035dc:	a001      	add	r0, pc, #4	; (adr r0, 80035e4 <HAL_DMA_Init+0xb4>)
 80035de:	f850 f022 	ldr.w	pc, [r0, r2, lsl #2]
 80035e2:	bf00      	nop
 80035e4:	080035fb 	.word	0x080035fb
 80035e8:	080035b7 	.word	0x080035b7
 80035ec:	080035fb 	.word	0x080035fb
 80035f0:	080035f5 	.word	0x080035f5
 80035f4:	f1b5 7fc0 	cmp.w	r5, #25165824	; 0x1800000
 80035f8:	d107      	bne.n	800360a <HAL_DMA_Init+0xda>
 80035fa:	2340      	movs	r3, #64	; 0x40
 80035fc:	6563      	str	r3, [r4, #84]	; 0x54
 80035fe:	2001      	movs	r0, #1
 8003600:	e7e4      	b.n	80035cc <HAL_DMA_Init+0x9c>
 8003602:	2a02      	cmp	r2, #2
 8003604:	d9f9      	bls.n	80035fa <HAL_DMA_Init+0xca>
 8003606:	2a03      	cmp	r2, #3
 8003608:	d0d5      	beq.n	80035b6 <HAL_DMA_Init+0x86>
 800360a:	614b      	str	r3, [r1, #20]
 800360c:	4620      	mov	r0, r4
 800360e:	f7ff ff79 	bl	8003504 <DMA_CalcBaseAndBitshift>
 8003612:	6de2      	ldr	r2, [r4, #92]	; 0x5c
 8003614:	233f      	movs	r3, #63	; 0x3f
 8003616:	4093      	lsls	r3, r2
 8003618:	6083      	str	r3, [r0, #8]
 800361a:	2000      	movs	r0, #0
 800361c:	2301      	movs	r3, #1
 800361e:	6560      	str	r0, [r4, #84]	; 0x54
 8003620:	f884 3035 	strb.w	r3, [r4, #53]	; 0x35
 8003624:	e7d4      	b.n	80035d0 <HAL_DMA_Init+0xa0>
 8003626:	2001      	movs	r0, #1
 8003628:	e7d2      	b.n	80035d0 <HAL_DMA_Init+0xa0>
 800362a:	bf00      	nop
 800362c:	f010803f 	.word	0xf010803f

08003630 <HAL_DMA_DeInit>:
 8003630:	b538      	push	{r3, r4, r5, lr}
 8003632:	4605      	mov	r5, r0
 8003634:	b320      	cbz	r0, 8003680 <HAL_DMA_DeInit+0x50>
 8003636:	f890 3035 	ldrb.w	r3, [r0, #53]	; 0x35
 800363a:	2b02      	cmp	r3, #2
 800363c:	b2dc      	uxtb	r4, r3
 800363e:	d01d      	beq.n	800367c <HAL_DMA_DeInit+0x4c>
 8003640:	6803      	ldr	r3, [r0, #0]
 8003642:	681a      	ldr	r2, [r3, #0]
 8003644:	f022 0201 	bic.w	r2, r2, #1
 8003648:	2400      	movs	r4, #0
 800364a:	601a      	str	r2, [r3, #0]
 800364c:	2221      	movs	r2, #33	; 0x21
 800364e:	601c      	str	r4, [r3, #0]
 8003650:	605c      	str	r4, [r3, #4]
 8003652:	609c      	str	r4, [r3, #8]
 8003654:	60dc      	str	r4, [r3, #12]
 8003656:	611c      	str	r4, [r3, #16]
 8003658:	615a      	str	r2, [r3, #20]
 800365a:	f7ff ff53 	bl	8003504 <DMA_CalcBaseAndBitshift>
 800365e:	6dea      	ldr	r2, [r5, #92]	; 0x5c
 8003660:	233f      	movs	r3, #63	; 0x3f
 8003662:	4093      	lsls	r3, r2
 8003664:	e9c5 440f 	strd	r4, r4, [r5, #60]	; 0x3c
 8003668:	e9c5 4411 	strd	r4, r4, [r5, #68]	; 0x44
 800366c:	e9c5 4413 	strd	r4, r4, [r5, #76]	; 0x4c
 8003670:	6083      	str	r3, [r0, #8]
 8003672:	656c      	str	r4, [r5, #84]	; 0x54
 8003674:	f885 4034 	strb.w	r4, [r5, #52]	; 0x34
 8003678:	f885 4035 	strb.w	r4, [r5, #53]	; 0x35
 800367c:	4620      	mov	r0, r4
 800367e:	bd38      	pop	{r3, r4, r5, pc}
 8003680:	2401      	movs	r4, #1
 8003682:	e7fb      	b.n	800367c <HAL_DMA_DeInit+0x4c>

08003684 <HAL_DMA_Start_IT>:
 8003684:	b570      	push	{r4, r5, r6, lr}
 8003686:	f890 4034 	ldrb.w	r4, [r0, #52]	; 0x34
 800368a:	6d86      	ldr	r6, [r0, #88]	; 0x58
 800368c:	2c01      	cmp	r4, #1
 800368e:	d031      	beq.n	80036f4 <HAL_DMA_Start_IT+0x70>
 8003690:	2401      	movs	r4, #1
 8003692:	f880 4034 	strb.w	r4, [r0, #52]	; 0x34
 8003696:	f890 4035 	ldrb.w	r4, [r0, #53]	; 0x35
 800369a:	2c01      	cmp	r4, #1
 800369c:	f04f 0500 	mov.w	r5, #0
 80036a0:	f04f 0402 	mov.w	r4, #2
 80036a4:	d124      	bne.n	80036f0 <HAL_DMA_Start_IT+0x6c>
 80036a6:	f880 4035 	strb.w	r4, [r0, #53]	; 0x35
 80036aa:	6804      	ldr	r4, [r0, #0]
 80036ac:	6545      	str	r5, [r0, #84]	; 0x54
 80036ae:	6825      	ldr	r5, [r4, #0]
 80036b0:	f425 2580 	bic.w	r5, r5, #262144	; 0x40000
 80036b4:	6025      	str	r5, [r4, #0]
 80036b6:	6063      	str	r3, [r4, #4]
 80036b8:	6883      	ldr	r3, [r0, #8]
 80036ba:	2b40      	cmp	r3, #64	; 0x40
 80036bc:	bf0e      	itee	eq
 80036be:	60a2      	streq	r2, [r4, #8]
 80036c0:	60a1      	strne	r1, [r4, #8]
 80036c2:	60e2      	strne	r2, [r4, #12]
 80036c4:	6dc2      	ldr	r2, [r0, #92]	; 0x5c
 80036c6:	bf08      	it	eq
 80036c8:	60e1      	streq	r1, [r4, #12]
 80036ca:	233f      	movs	r3, #63	; 0x3f
 80036cc:	4093      	lsls	r3, r2
 80036ce:	60b3      	str	r3, [r6, #8]
 80036d0:	6823      	ldr	r3, [r4, #0]
 80036d2:	f043 0316 	orr.w	r3, r3, #22
 80036d6:	6023      	str	r3, [r4, #0]
 80036d8:	6c03      	ldr	r3, [r0, #64]	; 0x40
 80036da:	b11b      	cbz	r3, 80036e4 <HAL_DMA_Start_IT+0x60>
 80036dc:	6823      	ldr	r3, [r4, #0]
 80036de:	f043 0308 	orr.w	r3, r3, #8
 80036e2:	6023      	str	r3, [r4, #0]
 80036e4:	6823      	ldr	r3, [r4, #0]
 80036e6:	f043 0301 	orr.w	r3, r3, #1
 80036ea:	6023      	str	r3, [r4, #0]
 80036ec:	2000      	movs	r0, #0
 80036ee:	bd70      	pop	{r4, r5, r6, pc}
 80036f0:	f880 5034 	strb.w	r5, [r0, #52]	; 0x34
 80036f4:	2002      	movs	r0, #2
 80036f6:	e7fa      	b.n	80036ee <HAL_DMA_Start_IT+0x6a>

080036f8 <HAL_DMA_Abort_IT>:
 80036f8:	f890 3035 	ldrb.w	r3, [r0, #53]	; 0x35
 80036fc:	2b02      	cmp	r3, #2
 80036fe:	d003      	beq.n	8003708 <HAL_DMA_Abort_IT+0x10>
 8003700:	2380      	movs	r3, #128	; 0x80
 8003702:	6543      	str	r3, [r0, #84]	; 0x54
 8003704:	2001      	movs	r0, #1
 8003706:	4770      	bx	lr
 8003708:	6802      	ldr	r2, [r0, #0]
 800370a:	2305      	movs	r3, #5
 800370c:	f880 3035 	strb.w	r3, [r0, #53]	; 0x35
 8003710:	6813      	ldr	r3, [r2, #0]
 8003712:	f023 0301 	bic.w	r3, r3, #1
 8003716:	6013      	str	r3, [r2, #0]
 8003718:	2000      	movs	r0, #0
 800371a:	4770      	bx	lr

0800371c <HAL_DMA_IRQHandler>:
 800371c:	b5f7      	push	{r0, r1, r2, r4, r5, r6, r7, lr}
 800371e:	2300      	movs	r3, #0
 8003720:	9301      	str	r3, [sp, #4]
 8003722:	4b5c      	ldr	r3, [pc, #368]	; (8003894 <HAL_DMA_IRQHandler+0x178>)
 8003724:	6d85      	ldr	r5, [r0, #88]	; 0x58
 8003726:	681f      	ldr	r7, [r3, #0]
 8003728:	6dc3      	ldr	r3, [r0, #92]	; 0x5c
 800372a:	682e      	ldr	r6, [r5, #0]
 800372c:	2208      	movs	r2, #8
 800372e:	409a      	lsls	r2, r3
 8003730:	4232      	tst	r2, r6
 8003732:	4604      	mov	r4, r0
 8003734:	d00c      	beq.n	8003750 <HAL_DMA_IRQHandler+0x34>
 8003736:	6801      	ldr	r1, [r0, #0]
 8003738:	6808      	ldr	r0, [r1, #0]
 800373a:	0740      	lsls	r0, r0, #29
 800373c:	d508      	bpl.n	8003750 <HAL_DMA_IRQHandler+0x34>
 800373e:	6808      	ldr	r0, [r1, #0]
 8003740:	f020 0004 	bic.w	r0, r0, #4
 8003744:	6008      	str	r0, [r1, #0]
 8003746:	60aa      	str	r2, [r5, #8]
 8003748:	6d62      	ldr	r2, [r4, #84]	; 0x54
 800374a:	f042 0201 	orr.w	r2, r2, #1
 800374e:	6562      	str	r2, [r4, #84]	; 0x54
 8003750:	2201      	movs	r2, #1
 8003752:	409a      	lsls	r2, r3
 8003754:	4232      	tst	r2, r6
 8003756:	d008      	beq.n	800376a <HAL_DMA_IRQHandler+0x4e>
 8003758:	6821      	ldr	r1, [r4, #0]
 800375a:	6949      	ldr	r1, [r1, #20]
 800375c:	0609      	lsls	r1, r1, #24
 800375e:	bf41      	itttt	mi
 8003760:	60aa      	strmi	r2, [r5, #8]
 8003762:	6d62      	ldrmi	r2, [r4, #84]	; 0x54
 8003764:	f042 0202 	orrmi.w	r2, r2, #2
 8003768:	6562      	strmi	r2, [r4, #84]	; 0x54
 800376a:	2204      	movs	r2, #4
 800376c:	409a      	lsls	r2, r3
 800376e:	4232      	tst	r2, r6
 8003770:	d008      	beq.n	8003784 <HAL_DMA_IRQHandler+0x68>
 8003772:	6821      	ldr	r1, [r4, #0]
 8003774:	6809      	ldr	r1, [r1, #0]
 8003776:	0788      	lsls	r0, r1, #30
 8003778:	bf41      	itttt	mi
 800377a:	60aa      	strmi	r2, [r5, #8]
 800377c:	6d62      	ldrmi	r2, [r4, #84]	; 0x54
 800377e:	f042 0204 	orrmi.w	r2, r2, #4
 8003782:	6562      	strmi	r2, [r4, #84]	; 0x54
 8003784:	2210      	movs	r2, #16
 8003786:	409a      	lsls	r2, r3
 8003788:	4232      	tst	r2, r6
 800378a:	d010      	beq.n	80037ae <HAL_DMA_IRQHandler+0x92>
 800378c:	6823      	ldr	r3, [r4, #0]
 800378e:	6819      	ldr	r1, [r3, #0]
 8003790:	0709      	lsls	r1, r1, #28
 8003792:	d50c      	bpl.n	80037ae <HAL_DMA_IRQHandler+0x92>
 8003794:	60aa      	str	r2, [r5, #8]
 8003796:	681a      	ldr	r2, [r3, #0]
 8003798:	0350      	lsls	r0, r2, #13
 800379a:	d537      	bpl.n	800380c <HAL_DMA_IRQHandler+0xf0>
 800379c:	681b      	ldr	r3, [r3, #0]
 800379e:	0319      	lsls	r1, r3, #12
 80037a0:	d401      	bmi.n	80037a6 <HAL_DMA_IRQHandler+0x8a>
 80037a2:	6c23      	ldr	r3, [r4, #64]	; 0x40
 80037a4:	e000      	b.n	80037a8 <HAL_DMA_IRQHandler+0x8c>
 80037a6:	6ca3      	ldr	r3, [r4, #72]	; 0x48
 80037a8:	b10b      	cbz	r3, 80037ae <HAL_DMA_IRQHandler+0x92>
 80037aa:	4620      	mov	r0, r4
 80037ac:	4798      	blx	r3
 80037ae:	6de1      	ldr	r1, [r4, #92]	; 0x5c
 80037b0:	2220      	movs	r2, #32
 80037b2:	408a      	lsls	r2, r1
 80037b4:	4232      	tst	r2, r6
 80037b6:	d03a      	beq.n	800382e <HAL_DMA_IRQHandler+0x112>
 80037b8:	6823      	ldr	r3, [r4, #0]
 80037ba:	6818      	ldr	r0, [r3, #0]
 80037bc:	06c6      	lsls	r6, r0, #27
 80037be:	d536      	bpl.n	800382e <HAL_DMA_IRQHandler+0x112>
 80037c0:	60aa      	str	r2, [r5, #8]
 80037c2:	f894 2035 	ldrb.w	r2, [r4, #53]	; 0x35
 80037c6:	2a05      	cmp	r2, #5
 80037c8:	681a      	ldr	r2, [r3, #0]
 80037ca:	d127      	bne.n	800381c <HAL_DMA_IRQHandler+0x100>
 80037cc:	f022 0216 	bic.w	r2, r2, #22
 80037d0:	601a      	str	r2, [r3, #0]
 80037d2:	695a      	ldr	r2, [r3, #20]
 80037d4:	f022 0280 	bic.w	r2, r2, #128	; 0x80
 80037d8:	615a      	str	r2, [r3, #20]
 80037da:	6c22      	ldr	r2, [r4, #64]	; 0x40
 80037dc:	b90a      	cbnz	r2, 80037e2 <HAL_DMA_IRQHandler+0xc6>
 80037de:	6ca2      	ldr	r2, [r4, #72]	; 0x48
 80037e0:	b11a      	cbz	r2, 80037ea <HAL_DMA_IRQHandler+0xce>
 80037e2:	681a      	ldr	r2, [r3, #0]
 80037e4:	f022 0208 	bic.w	r2, r2, #8
 80037e8:	601a      	str	r2, [r3, #0]
 80037ea:	233f      	movs	r3, #63	; 0x3f
 80037ec:	408b      	lsls	r3, r1
 80037ee:	60ab      	str	r3, [r5, #8]
 80037f0:	2301      	movs	r3, #1
 80037f2:	f884 3035 	strb.w	r3, [r4, #53]	; 0x35
 80037f6:	2300      	movs	r3, #0
 80037f8:	f884 3034 	strb.w	r3, [r4, #52]	; 0x34
 80037fc:	6d23      	ldr	r3, [r4, #80]	; 0x50
 80037fe:	2b00      	cmp	r3, #0
 8003800:	d045      	beq.n	800388e <HAL_DMA_IRQHandler+0x172>
 8003802:	4620      	mov	r0, r4
 8003804:	b003      	add	sp, #12
 8003806:	e8bd 40f0 	ldmia.w	sp!, {r4, r5, r6, r7, lr}
 800380a:	4718      	bx	r3
 800380c:	681a      	ldr	r2, [r3, #0]
 800380e:	05d2      	lsls	r2, r2, #23
 8003810:	bf5e      	ittt	pl
 8003812:	681a      	ldrpl	r2, [r3, #0]
 8003814:	f022 0208 	bicpl.w	r2, r2, #8
 8003818:	601a      	strpl	r2, [r3, #0]
 800381a:	e7c2      	b.n	80037a2 <HAL_DMA_IRQHandler+0x86>
 800381c:	0350      	lsls	r0, r2, #13
 800381e:	d527      	bpl.n	8003870 <HAL_DMA_IRQHandler+0x154>
 8003820:	681b      	ldr	r3, [r3, #0]
 8003822:	0319      	lsls	r1, r3, #12
 8003824:	d431      	bmi.n	800388a <HAL_DMA_IRQHandler+0x16e>
 8003826:	6c63      	ldr	r3, [r4, #68]	; 0x44
 8003828:	b10b      	cbz	r3, 800382e <HAL_DMA_IRQHandler+0x112>
 800382a:	4620      	mov	r0, r4
 800382c:	4798      	blx	r3
 800382e:	6d63      	ldr	r3, [r4, #84]	; 0x54
 8003830:	b36b      	cbz	r3, 800388e <HAL_DMA_IRQHandler+0x172>
 8003832:	6d63      	ldr	r3, [r4, #84]	; 0x54
 8003834:	07da      	lsls	r2, r3, #31
 8003836:	d519      	bpl.n	800386c <HAL_DMA_IRQHandler+0x150>
 8003838:	6822      	ldr	r2, [r4, #0]
 800383a:	f44f 5316 	mov.w	r3, #9600	; 0x2580
 800383e:	fbb7 f7f3 	udiv	r7, r7, r3
 8003842:	2305      	movs	r3, #5
 8003844:	f884 3035 	strb.w	r3, [r4, #53]	; 0x35
 8003848:	6813      	ldr	r3, [r2, #0]
 800384a:	f023 0301 	bic.w	r3, r3, #1
 800384e:	6013      	str	r3, [r2, #0]
 8003850:	9b01      	ldr	r3, [sp, #4]
 8003852:	3301      	adds	r3, #1
 8003854:	42bb      	cmp	r3, r7
 8003856:	9301      	str	r3, [sp, #4]
 8003858:	d802      	bhi.n	8003860 <HAL_DMA_IRQHandler+0x144>
 800385a:	6813      	ldr	r3, [r2, #0]
 800385c:	07db      	lsls	r3, r3, #31
 800385e:	d4f7      	bmi.n	8003850 <HAL_DMA_IRQHandler+0x134>
 8003860:	2301      	movs	r3, #1
 8003862:	f884 3035 	strb.w	r3, [r4, #53]	; 0x35
 8003866:	2300      	movs	r3, #0
 8003868:	f884 3034 	strb.w	r3, [r4, #52]	; 0x34
 800386c:	6ce3      	ldr	r3, [r4, #76]	; 0x4c
 800386e:	e7c6      	b.n	80037fe <HAL_DMA_IRQHandler+0xe2>
 8003870:	681a      	ldr	r2, [r3, #0]
 8003872:	f412 7280 	ands.w	r2, r2, #256	; 0x100
 8003876:	d108      	bne.n	800388a <HAL_DMA_IRQHandler+0x16e>
 8003878:	6819      	ldr	r1, [r3, #0]
 800387a:	f021 0110 	bic.w	r1, r1, #16
 800387e:	6019      	str	r1, [r3, #0]
 8003880:	2301      	movs	r3, #1
 8003882:	f884 3035 	strb.w	r3, [r4, #53]	; 0x35
 8003886:	f884 2034 	strb.w	r2, [r4, #52]	; 0x34
 800388a:	6be3      	ldr	r3, [r4, #60]	; 0x3c
 800388c:	e7cc      	b.n	8003828 <HAL_DMA_IRQHandler+0x10c>
 800388e:	b003      	add	sp, #12
 8003890:	bdf0      	pop	{r4, r5, r6, r7, pc}
 8003892:	bf00      	nop
 8003894:	20000010 	.word	0x20000010

08003898 <HAL_GPIO_Init>:
 8003898:	e92d 4ff7 	stmdb	sp!, {r0, r1, r2, r4, r5, r6, r7, r8, r9, sl, fp, lr}
 800389c:	f8df 91a8 	ldr.w	r9, [pc, #424]	; 8003a48 <HAL_GPIO_Init+0x1b0>
 80038a0:	4a67      	ldr	r2, [pc, #412]	; (8003a40 <HAL_GPIO_Init+0x1a8>)
 80038a2:	2300      	movs	r3, #0
 80038a4:	680d      	ldr	r5, [r1, #0]
 80038a6:	2401      	movs	r4, #1
 80038a8:	409c      	lsls	r4, r3
 80038aa:	ea04 0c05 	and.w	ip, r4, r5
 80038ae:	43ac      	bics	r4, r5
 80038b0:	f040 80b1 	bne.w	8003a16 <HAL_GPIO_Init+0x17e>
 80038b4:	684d      	ldr	r5, [r1, #4]
 80038b6:	f005 0403 	and.w	r4, r5, #3
 80038ba:	ea4f 0843 	mov.w	r8, r3, lsl #1
 80038be:	2603      	movs	r6, #3
 80038c0:	1e67      	subs	r7, r4, #1
 80038c2:	fa06 f608 	lsl.w	r6, r6, r8
 80038c6:	2f01      	cmp	r7, #1
 80038c8:	ea6f 0606 	mvn.w	r6, r6
 80038cc:	d834      	bhi.n	8003938 <HAL_GPIO_Init+0xa0>
 80038ce:	6887      	ldr	r7, [r0, #8]
 80038d0:	ea07 0e06 	and.w	lr, r7, r6
 80038d4:	68cf      	ldr	r7, [r1, #12]
 80038d6:	fa07 f708 	lsl.w	r7, r7, r8
 80038da:	ea47 070e 	orr.w	r7, r7, lr
 80038de:	6087      	str	r7, [r0, #8]
 80038e0:	6847      	ldr	r7, [r0, #4]
 80038e2:	ea27 0e0c 	bic.w	lr, r7, ip
 80038e6:	f3c5 1700 	ubfx	r7, r5, #4, #1
 80038ea:	409f      	lsls	r7, r3
 80038ec:	ea47 070e 	orr.w	r7, r7, lr
 80038f0:	6047      	str	r7, [r0, #4]
 80038f2:	68c7      	ldr	r7, [r0, #12]
 80038f4:	ea07 0e06 	and.w	lr, r7, r6
 80038f8:	688f      	ldr	r7, [r1, #8]
 80038fa:	fa07 f708 	lsl.w	r7, r7, r8
 80038fe:	ea47 070e 	orr.w	r7, r7, lr
 8003902:	2c02      	cmp	r4, #2
 8003904:	60c7      	str	r7, [r0, #12]
 8003906:	d119      	bne.n	800393c <HAL_GPIO_Init+0xa4>
 8003908:	ea4f 0ad3 	mov.w	sl, r3, lsr #3
 800390c:	eb00 0a8a 	add.w	sl, r0, sl, lsl #2
 8003910:	f003 0b07 	and.w	fp, r3, #7
 8003914:	f8da 7020 	ldr.w	r7, [sl, #32]
 8003918:	ea4f 0b8b 	mov.w	fp, fp, lsl #2
 800391c:	f04f 0e0f 	mov.w	lr, #15
 8003920:	fa0e fe0b 	lsl.w	lr, lr, fp
 8003924:	ea27 0e0e 	bic.w	lr, r7, lr
 8003928:	690f      	ldr	r7, [r1, #16]
 800392a:	fa07 f70b 	lsl.w	r7, r7, fp
 800392e:	ea47 070e 	orr.w	r7, r7, lr
 8003932:	f8ca 7020 	str.w	r7, [sl, #32]
 8003936:	e001      	b.n	800393c <HAL_GPIO_Init+0xa4>
 8003938:	2c03      	cmp	r4, #3
 800393a:	d1da      	bne.n	80038f2 <HAL_GPIO_Init+0x5a>
 800393c:	6807      	ldr	r7, [r0, #0]
 800393e:	fa04 f408 	lsl.w	r4, r4, r8
 8003942:	403e      	ands	r6, r7
 8003944:	4326      	orrs	r6, r4
 8003946:	f415 3f40 	tst.w	r5, #196608	; 0x30000
 800394a:	6006      	str	r6, [r0, #0]
 800394c:	d063      	beq.n	8003a16 <HAL_GPIO_Init+0x17e>
 800394e:	f04f 0a00 	mov.w	sl, #0
 8003952:	f8cd a004 	str.w	sl, [sp, #4]
 8003956:	f8d9 6044 	ldr.w	r6, [r9, #68]	; 0x44
 800395a:	4c3a      	ldr	r4, [pc, #232]	; (8003a44 <HAL_GPIO_Init+0x1ac>)
 800395c:	f446 4680 	orr.w	r6, r6, #16384	; 0x4000
 8003960:	f8c9 6044 	str.w	r6, [r9, #68]	; 0x44
 8003964:	f8d9 6044 	ldr.w	r6, [r9, #68]	; 0x44
 8003968:	f406 4680 	and.w	r6, r6, #16384	; 0x4000
 800396c:	9601      	str	r6, [sp, #4]
 800396e:	9e01      	ldr	r6, [sp, #4]
 8003970:	f023 0603 	bic.w	r6, r3, #3
 8003974:	f106 4680 	add.w	r6, r6, #1073741824	; 0x40000000
 8003978:	f506 369c 	add.w	r6, r6, #79872	; 0x13800
 800397c:	f003 0e03 	and.w	lr, r3, #3
 8003980:	f8d6 8008 	ldr.w	r8, [r6, #8]
 8003984:	ea4f 0e8e 	mov.w	lr, lr, lsl #2
 8003988:	270f      	movs	r7, #15
 800398a:	fa07 f70e 	lsl.w	r7, r7, lr
 800398e:	42a0      	cmp	r0, r4
 8003990:	ea28 0707 	bic.w	r7, r8, r7
 8003994:	d046      	beq.n	8003a24 <HAL_GPIO_Init+0x18c>
 8003996:	f504 6480 	add.w	r4, r4, #1024	; 0x400
 800399a:	42a0      	cmp	r0, r4
 800399c:	d044      	beq.n	8003a28 <HAL_GPIO_Init+0x190>
 800399e:	f504 6480 	add.w	r4, r4, #1024	; 0x400
 80039a2:	42a0      	cmp	r0, r4
 80039a4:	d042      	beq.n	8003a2c <HAL_GPIO_Init+0x194>
 80039a6:	f504 6480 	add.w	r4, r4, #1024	; 0x400
 80039aa:	42a0      	cmp	r0, r4
 80039ac:	d040      	beq.n	8003a30 <HAL_GPIO_Init+0x198>
 80039ae:	f504 6480 	add.w	r4, r4, #1024	; 0x400
 80039b2:	42a0      	cmp	r0, r4
 80039b4:	d03e      	beq.n	8003a34 <HAL_GPIO_Init+0x19c>
 80039b6:	f504 6480 	add.w	r4, r4, #1024	; 0x400
 80039ba:	42a0      	cmp	r0, r4
 80039bc:	d03c      	beq.n	8003a38 <HAL_GPIO_Init+0x1a0>
 80039be:	f504 6480 	add.w	r4, r4, #1024	; 0x400
 80039c2:	42a0      	cmp	r0, r4
 80039c4:	d03a      	beq.n	8003a3c <HAL_GPIO_Init+0x1a4>
 80039c6:	f504 6480 	add.w	r4, r4, #1024	; 0x400
 80039ca:	42a0      	cmp	r0, r4
 80039cc:	bf0c      	ite	eq
 80039ce:	2407      	moveq	r4, #7
 80039d0:	2408      	movne	r4, #8
 80039d2:	fa04 f40e 	lsl.w	r4, r4, lr
 80039d6:	433c      	orrs	r4, r7
 80039d8:	60b4      	str	r4, [r6, #8]
 80039da:	6894      	ldr	r4, [r2, #8]
 80039dc:	ea6f 060c 	mvn.w	r6, ip
 80039e0:	02ef      	lsls	r7, r5, #11
 80039e2:	bf54      	ite	pl
 80039e4:	4034      	andpl	r4, r6
 80039e6:	ea4c 0404 	orrmi.w	r4, ip, r4
 80039ea:	6094      	str	r4, [r2, #8]
 80039ec:	68d4      	ldr	r4, [r2, #12]
 80039ee:	02af      	lsls	r7, r5, #10
 80039f0:	bf54      	ite	pl
 80039f2:	4034      	andpl	r4, r6
 80039f4:	ea4c 0404 	orrmi.w	r4, ip, r4
 80039f8:	60d4      	str	r4, [r2, #12]
 80039fa:	6854      	ldr	r4, [r2, #4]
 80039fc:	03af      	lsls	r7, r5, #14
 80039fe:	bf54      	ite	pl
 8003a00:	4034      	andpl	r4, r6
 8003a02:	ea4c 0404 	orrmi.w	r4, ip, r4
 8003a06:	6054      	str	r4, [r2, #4]
 8003a08:	6814      	ldr	r4, [r2, #0]
 8003a0a:	03ed      	lsls	r5, r5, #15
 8003a0c:	bf54      	ite	pl
 8003a0e:	4034      	andpl	r4, r6
 8003a10:	ea4c 0404 	orrmi.w	r4, ip, r4
 8003a14:	6014      	str	r4, [r2, #0]
 8003a16:	3301      	adds	r3, #1
 8003a18:	2b10      	cmp	r3, #16
 8003a1a:	f47f af43 	bne.w	80038a4 <HAL_GPIO_Init+0xc>
 8003a1e:	b003      	add	sp, #12
 8003a20:	e8bd 8ff0 	ldmia.w	sp!, {r4, r5, r6, r7, r8, r9, sl, fp, pc}
 8003a24:	4654      	mov	r4, sl
 8003a26:	e7d4      	b.n	80039d2 <HAL_GPIO_Init+0x13a>
 8003a28:	2401      	movs	r4, #1
 8003a2a:	e7d2      	b.n	80039d2 <HAL_GPIO_Init+0x13a>
 8003a2c:	2402      	movs	r4, #2
 8003a2e:	e7d0      	b.n	80039d2 <HAL_GPIO_Init+0x13a>
 8003a30:	2403      	movs	r4, #3
 8003a32:	e7ce      	b.n	80039d2 <HAL_GPIO_Init+0x13a>
 8003a34:	2404      	movs	r4, #4
 8003a36:	e7cc      	b.n	80039d2 <HAL_GPIO_Init+0x13a>
 8003a38:	2405      	movs	r4, #5
 8003a3a:	e7ca      	b.n	80039d2 <HAL_GPIO_Init+0x13a>
 8003a3c:	2406      	movs	r4, #6
 8003a3e:	e7c8      	b.n	80039d2 <HAL_GPIO_Init+0x13a>
 8003a40:	40013c00 	.word	0x40013c00
 8003a44:	40020000 	.word	0x40020000
 8003a48:	40023800 	.word	0x40023800

08003a4c <HAL_GPIO_DeInit>:
 8003a4c:	e92d 4ff0 	stmdb	sp!, {r4, r5, r6, r7, r8, r9, sl, fp, lr}
 8003a50:	4c44      	ldr	r4, [pc, #272]	; (8003b64 <HAL_GPIO_DeInit+0x118>)
 8003a52:	f8df 9118 	ldr.w	r9, [pc, #280]	; 8003b6c <HAL_GPIO_DeInit+0x120>
 8003a56:	f8df a118 	ldr.w	sl, [pc, #280]	; 8003b70 <HAL_GPIO_DeInit+0x124>
 8003a5a:	f8df b118 	ldr.w	fp, [pc, #280]	; 8003b74 <HAL_GPIO_DeInit+0x128>
 8003a5e:	2200      	movs	r2, #0
 8003a60:	2301      	movs	r3, #1
 8003a62:	fa03 fe02 	lsl.w	lr, r3, r2
 8003a66:	ea3e 0301 	bics.w	r3, lr, r1
 8003a6a:	ea0e 0701 	and.w	r7, lr, r1
 8003a6e:	d166      	bne.n	8003b3e <HAL_GPIO_DeInit+0xf2>
 8003a70:	f022 0503 	bic.w	r5, r2, #3
 8003a74:	f105 4580 	add.w	r5, r5, #1073741824	; 0x40000000
 8003a78:	f505 359c 	add.w	r5, r5, #79872	; 0x13800
 8003a7c:	4b3a      	ldr	r3, [pc, #232]	; (8003b68 <HAL_GPIO_DeInit+0x11c>)
 8003a7e:	f8d5 8008 	ldr.w	r8, [r5, #8]
 8003a82:	f002 0c03 	and.w	ip, r2, #3
 8003a86:	ea4f 0c8c 	mov.w	ip, ip, lsl #2
 8003a8a:	260f      	movs	r6, #15
 8003a8c:	fa06 f60c 	lsl.w	r6, r6, ip
 8003a90:	4298      	cmp	r0, r3
 8003a92:	ea06 0808 	and.w	r8, r6, r8
 8003a96:	d057      	beq.n	8003b48 <HAL_GPIO_DeInit+0xfc>
 8003a98:	f503 6380 	add.w	r3, r3, #1024	; 0x400
 8003a9c:	4298      	cmp	r0, r3
 8003a9e:	d055      	beq.n	8003b4c <HAL_GPIO_DeInit+0x100>
 8003aa0:	f503 6380 	add.w	r3, r3, #1024	; 0x400
 8003aa4:	4298      	cmp	r0, r3
 8003aa6:	d053      	beq.n	8003b50 <HAL_GPIO_DeInit+0x104>
 8003aa8:	f503 6380 	add.w	r3, r3, #1024	; 0x400
 8003aac:	4298      	cmp	r0, r3
 8003aae:	d051      	beq.n	8003b54 <HAL_GPIO_DeInit+0x108>
 8003ab0:	f503 6380 	add.w	r3, r3, #1024	; 0x400
 8003ab4:	4298      	cmp	r0, r3
 8003ab6:	d04f      	beq.n	8003b58 <HAL_GPIO_DeInit+0x10c>
 8003ab8:	4548      	cmp	r0, r9
 8003aba:	d04f      	beq.n	8003b5c <HAL_GPIO_DeInit+0x110>
 8003abc:	4550      	cmp	r0, sl
 8003abe:	d04f      	beq.n	8003b60 <HAL_GPIO_DeInit+0x114>
 8003ac0:	4558      	cmp	r0, fp
 8003ac2:	bf0c      	ite	eq
 8003ac4:	2307      	moveq	r3, #7
 8003ac6:	2308      	movne	r3, #8
 8003ac8:	fa03 f30c 	lsl.w	r3, r3, ip
 8003acc:	4543      	cmp	r3, r8
 8003ace:	d113      	bne.n	8003af8 <HAL_GPIO_DeInit+0xac>
 8003ad0:	6823      	ldr	r3, [r4, #0]
 8003ad2:	ea23 0307 	bic.w	r3, r3, r7
 8003ad6:	6023      	str	r3, [r4, #0]
 8003ad8:	6863      	ldr	r3, [r4, #4]
 8003ada:	ea23 0307 	bic.w	r3, r3, r7
 8003ade:	6063      	str	r3, [r4, #4]
 8003ae0:	68e3      	ldr	r3, [r4, #12]
 8003ae2:	ea23 0307 	bic.w	r3, r3, r7
 8003ae6:	60e3      	str	r3, [r4, #12]
 8003ae8:	68a3      	ldr	r3, [r4, #8]
 8003aea:	ea23 0307 	bic.w	r3, r3, r7
 8003aee:	60a3      	str	r3, [r4, #8]
 8003af0:	68ab      	ldr	r3, [r5, #8]
 8003af2:	ea23 0306 	bic.w	r3, r3, r6
 8003af6:	60ab      	str	r3, [r5, #8]
 8003af8:	6805      	ldr	r5, [r0, #0]
 8003afa:	2603      	movs	r6, #3
 8003afc:	0053      	lsls	r3, r2, #1
 8003afe:	fa06 f303 	lsl.w	r3, r6, r3
 8003b02:	ea25 0503 	bic.w	r5, r5, r3
 8003b06:	6005      	str	r5, [r0, #0]
 8003b08:	fa22 f506 	lsr.w	r5, r2, r6
 8003b0c:	eb00 0585 	add.w	r5, r0, r5, lsl #2
 8003b10:	f002 0c07 	and.w	ip, r2, #7
 8003b14:	6a2e      	ldr	r6, [r5, #32]
 8003b16:	ea4f 0c8c 	mov.w	ip, ip, lsl #2
 8003b1a:	270f      	movs	r7, #15
 8003b1c:	fa07 f70c 	lsl.w	r7, r7, ip
 8003b20:	ea26 0707 	bic.w	r7, r6, r7
 8003b24:	622f      	str	r7, [r5, #32]
 8003b26:	68c5      	ldr	r5, [r0, #12]
 8003b28:	ea25 0503 	bic.w	r5, r5, r3
 8003b2c:	60c5      	str	r5, [r0, #12]
 8003b2e:	6845      	ldr	r5, [r0, #4]
 8003b30:	ea25 050e 	bic.w	r5, r5, lr
 8003b34:	6045      	str	r5, [r0, #4]
 8003b36:	6885      	ldr	r5, [r0, #8]
 8003b38:	ea25 0303 	bic.w	r3, r5, r3
 8003b3c:	6083      	str	r3, [r0, #8]
 8003b3e:	3201      	adds	r2, #1
 8003b40:	2a10      	cmp	r2, #16
 8003b42:	d18d      	bne.n	8003a60 <HAL_GPIO_DeInit+0x14>
 8003b44:	e8bd 8ff0 	ldmia.w	sp!, {r4, r5, r6, r7, r8, r9, sl, fp, pc}
 8003b48:	2300      	movs	r3, #0
 8003b4a:	e7bd      	b.n	8003ac8 <HAL_GPIO_DeInit+0x7c>
 8003b4c:	2301      	movs	r3, #1
 8003b4e:	e7bb      	b.n	8003ac8 <HAL_GPIO_DeInit+0x7c>
 8003b50:	2302      	movs	r3, #2
 8003b52:	e7b9      	b.n	8003ac8 <HAL_GPIO_DeInit+0x7c>
 8003b54:	2303      	movs	r3, #3
 8003b56:	e7b7      	b.n	8003ac8 <HAL_GPIO_DeInit+0x7c>
 8003b58:	2304      	movs	r3, #4
 8003b5a:	e7b5      	b.n	8003ac8 <HAL_GPIO_DeInit+0x7c>
 8003b5c:	2305      	movs	r3, #5
 8003b5e:	e7b3      	b.n	8003ac8 <HAL_GPIO_DeInit+0x7c>
 8003b60:	2306      	movs	r3, #6
 8003b62:	e7b1      	b.n	8003ac8 <HAL_GPIO_DeInit+0x7c>
 8003b64:	40013c00 	.word	0x40013c00
 8003b68:	40020000 	.word	0x40020000
 8003b6c:	40021400 	.word	0x40021400
 8003b70:	40021800 	.word	0x40021800
 8003b74:	40021c00 	.word	0x40021c00

08003b78 <HAL_GPIO_ReadPin>:
 8003b78:	6903      	ldr	r3, [r0, #16]
 8003b7a:	4219      	tst	r1, r3
 8003b7c:	bf14      	ite	ne
 8003b7e:	2001      	movne	r0, #1
 8003b80:	2000      	moveq	r0, #0
 8003b82:	4770      	bx	lr

08003b84 <HAL_GPIO_WritePin>:
 8003b84:	b10a      	cbz	r2, 8003b8a <HAL_GPIO_WritePin+0x6>
 8003b86:	6181      	str	r1, [r0, #24]
 8003b88:	4770      	bx	lr
 8003b8a:	0409      	lsls	r1, r1, #16
 8003b8c:	e7fb      	b.n	8003b86 <HAL_GPIO_WritePin+0x2>
	...

08003b90 <HAL_GPIO_EXTI_IRQHandler>:
 8003b90:	4a04      	ldr	r2, [pc, #16]	; (8003ba4 <HAL_GPIO_EXTI_IRQHandler+0x14>)
 8003b92:	6951      	ldr	r1, [r2, #20]
 8003b94:	4201      	tst	r1, r0
 8003b96:	b508      	push	{r3, lr}
 8003b98:	d002      	beq.n	8003ba0 <HAL_GPIO_EXTI_IRQHandler+0x10>
 8003b9a:	6150      	str	r0, [r2, #20]
 8003b9c:	f7fe fd08 	bl	80025b0 <HAL_GPIO_EXTI_Callback>
 8003ba0:	bd08      	pop	{r3, pc}
 8003ba2:	bf00      	nop
 8003ba4:	40013c00 	.word	0x40013c00

08003ba8 <HAL_HCD_HC_Init>:
 8003ba8:	e92d 43f0 	stmdb	sp!, {r4, r5, r6, r7, r8, r9, lr}
 8003bac:	4605      	mov	r5, r0
 8003bae:	b085      	sub	sp, #20
 8003bb0:	f895 42f8 	ldrb.w	r4, [r5, #760]	; 0x2f8
 8003bb4:	f89d e030 	ldrb.w	lr, [sp, #48]	; 0x30
 8003bb8:	f89d 8034 	ldrb.w	r8, [sp, #52]	; 0x34
 8003bbc:	f8bd 9038 	ldrh.w	r9, [sp, #56]	; 0x38
 8003bc0:	2c01      	cmp	r4, #1
 8003bc2:	d025      	beq.n	8003c10 <HAL_HCD_HC_Init+0x68>
 8003bc4:	2401      	movs	r4, #1
 8003bc6:	f885 42f8 	strb.w	r4, [r5, #760]	; 0x2f8
 8003bca:	242c      	movs	r4, #44	; 0x2c
 8003bcc:	fb04 5401 	mla	r4, r4, r1, r5
 8003bd0:	09d0      	lsrs	r0, r2, #7
 8003bd2:	2700      	movs	r7, #0
 8003bd4:	f002 067f 	and.w	r6, r2, #127	; 0x7f
 8003bd8:	f884 703d 	strb.w	r7, [r4, #61]	; 0x3d
 8003bdc:	f884 3038 	strb.w	r3, [r4, #56]	; 0x38
 8003be0:	f884 1039 	strb.w	r1, [r4, #57]	; 0x39
 8003be4:	f884 803f 	strb.w	r8, [r4, #63]	; 0x3f
 8003be8:	f884 603a 	strb.w	r6, [r4, #58]	; 0x3a
 8003bec:	f884 003b 	strb.w	r0, [r4, #59]	; 0x3b
 8003bf0:	f884 e03c 	strb.w	lr, [r4, #60]	; 0x3c
 8003bf4:	f8a4 9040 	strh.w	r9, [r4, #64]	; 0x40
 8003bf8:	6828      	ldr	r0, [r5, #0]
 8003bfa:	f8cd e000 	str.w	lr, [sp]
 8003bfe:	e9cd 8901 	strd	r8, r9, [sp, #4]
 8003c02:	f002 ffef 	bl	8006be4 <USB_HC_Init>
 8003c06:	f885 72f8 	strb.w	r7, [r5, #760]	; 0x2f8
 8003c0a:	b005      	add	sp, #20
 8003c0c:	e8bd 83f0 	ldmia.w	sp!, {r4, r5, r6, r7, r8, r9, pc}
 8003c10:	2002      	movs	r0, #2
 8003c12:	e7fa      	b.n	8003c0a <HAL_HCD_HC_Init+0x62>

08003c14 <HAL_HCD_HC_Halt>:
 8003c14:	b510      	push	{r4, lr}
 8003c16:	f890 32f8 	ldrb.w	r3, [r0, #760]	; 0x2f8
 8003c1a:	2b01      	cmp	r3, #1
 8003c1c:	4604      	mov	r4, r0
 8003c1e:	d009      	beq.n	8003c34 <HAL_HCD_HC_Halt+0x20>
 8003c20:	2301      	movs	r3, #1
 8003c22:	f880 32f8 	strb.w	r3, [r0, #760]	; 0x2f8
 8003c26:	6800      	ldr	r0, [r0, #0]
 8003c28:	f003 f86b 	bl	8006d02 <USB_HC_Halt>
 8003c2c:	2000      	movs	r0, #0
 8003c2e:	f884 02f8 	strb.w	r0, [r4, #760]	; 0x2f8
 8003c32:	bd10      	pop	{r4, pc}
 8003c34:	2002      	movs	r0, #2
 8003c36:	e7fc      	b.n	8003c32 <HAL_HCD_HC_Halt+0x1e>

08003c38 <HAL_HCD_Init>:
 8003c38:	e92d 41f0 	stmdb	sp!, {r4, r5, r6, r7, r8, lr}
 8003c3c:	4606      	mov	r6, r0
 8003c3e:	b08a      	sub	sp, #40	; 0x28
 8003c40:	2800      	cmp	r0, #0
 8003c42:	d043      	beq.n	8003ccc <HAL_HCD_Init+0x94>
 8003c44:	f890 32f9 	ldrb.w	r3, [r0, #761]	; 0x2f9
 8003c48:	6804      	ldr	r4, [r0, #0]
 8003c4a:	f003 02ff 	and.w	r2, r3, #255	; 0xff
 8003c4e:	b91b      	cbnz	r3, 8003c58 <HAL_HCD_Init+0x20>
 8003c50:	f880 22f8 	strb.w	r2, [r0, #760]	; 0x2f8
 8003c54:	f004 f8d2 	bl	8007dfc <HAL_HCD_MspInit>
 8003c58:	2303      	movs	r3, #3
 8003c5a:	f886 32f9 	strb.w	r3, [r6, #761]	; 0x2f9
 8003c5e:	6be3      	ldr	r3, [r4, #60]	; 0x3c
 8003c60:	4634      	mov	r4, r6
 8003c62:	f413 7380 	ands.w	r3, r3, #256	; 0x100
 8003c66:	f854 0b10 	ldr.w	r0, [r4], #16
 8003c6a:	bf08      	it	eq
 8003c6c:	6133      	streq	r3, [r6, #16]
 8003c6e:	f002 fe27 	bl	80068c0 <USB_DisableGlobalInt>
 8003c72:	cc0f      	ldmia	r4!, {r0, r1, r2, r3}
 8003c74:	466d      	mov	r5, sp
 8003c76:	c50f      	stmia	r5!, {r0, r1, r2, r3}
 8003c78:	cc0f      	ldmia	r4!, {r0, r1, r2, r3}
 8003c7a:	c50f      	stmia	r5!, {r0, r1, r2, r3}
 8003c7c:	e894 0003 	ldmia.w	r4, {r0, r1}
 8003c80:	e885 0003 	stmia.w	r5, {r0, r1}
 8003c84:	f106 0804 	add.w	r8, r6, #4
 8003c88:	4637      	mov	r7, r6
 8003c8a:	e898 000e 	ldmia.w	r8, {r1, r2, r3}
 8003c8e:	6830      	ldr	r0, [r6, #0]
 8003c90:	f002 fdd0 	bl	8006834 <USB_CoreInit>
 8003c94:	f857 0b10 	ldr.w	r0, [r7], #16
 8003c98:	2101      	movs	r1, #1
 8003c9a:	f002 fe17 	bl	80068cc <USB_SetCurrentMode>
 8003c9e:	cf0f      	ldmia	r7!, {r0, r1, r2, r3}
 8003ca0:	46ec      	mov	ip, sp
 8003ca2:	e8ac 000f 	stmia.w	ip!, {r0, r1, r2, r3}
 8003ca6:	cf0f      	ldmia	r7!, {r0, r1, r2, r3}
 8003ca8:	e8ac 000f 	stmia.w	ip!, {r0, r1, r2, r3}
 8003cac:	e894 0003 	ldmia.w	r4, {r0, r1}
 8003cb0:	e885 0003 	stmia.w	r5, {r0, r1}
 8003cb4:	e898 000e 	ldmia.w	r8, {r1, r2, r3}
 8003cb8:	6830      	ldr	r0, [r6, #0]
 8003cba:	f002 febd 	bl	8006a38 <USB_HostInit>
 8003cbe:	2301      	movs	r3, #1
 8003cc0:	f886 32f9 	strb.w	r3, [r6, #761]	; 0x2f9
 8003cc4:	2000      	movs	r0, #0
 8003cc6:	b00a      	add	sp, #40	; 0x28
 8003cc8:	e8bd 81f0 	ldmia.w	sp!, {r4, r5, r6, r7, r8, pc}
 8003ccc:	2001      	movs	r0, #1
 8003cce:	e7fa      	b.n	8003cc6 <HAL_HCD_Init+0x8e>

08003cd0 <HAL_HCD_HC_SubmitRequest>:
 8003cd0:	b4f0      	push	{r4, r5, r6, r7}
 8003cd2:	262c      	movs	r6, #44	; 0x2c
 8003cd4:	fb06 0601 	mla	r6, r6, r1, r0
 8003cd8:	f89d 7010 	ldrb.w	r7, [sp, #16]
 8003cdc:	9d05      	ldr	r5, [sp, #20]
 8003cde:	f8bd 4018 	ldrh.w	r4, [sp, #24]
 8003ce2:	f89d c01c 	ldrb.w	ip, [sp, #28]
 8003ce6:	f886 203b 	strb.w	r2, [r6, #59]	; 0x3b
 8003cea:	f886 303f 	strb.w	r3, [r6, #63]	; 0x3f
 8003cee:	b97f      	cbnz	r7, 8003d10 <HAL_HCD_HC_SubmitRequest+0x40>
 8003cf0:	2703      	movs	r7, #3
 8003cf2:	2b02      	cmp	r3, #2
 8003cf4:	f886 7042 	strb.w	r7, [r6, #66]	; 0x42
 8003cf8:	f886 c03d 	strb.w	ip, [r6, #61]	; 0x3d
 8003cfc:	d03c      	beq.n	8003d78 <HAL_HCD_HC_SubmitRequest+0xa8>
 8003cfe:	42bb      	cmp	r3, r7
 8003d00:	d03a      	beq.n	8003d78 <HAL_HCD_HC_SubmitRequest+0xa8>
 8003d02:	2b01      	cmp	r3, #1
 8003d04:	d11f      	bne.n	8003d46 <HAL_HCD_HC_SubmitRequest+0x76>
 8003d06:	232c      	movs	r3, #44	; 0x2c
 8003d08:	fb03 0301 	mla	r3, r3, r1, r0
 8003d0c:	2200      	movs	r2, #0
 8003d0e:	e030      	b.n	8003d72 <HAL_HCD_HC_SubmitRequest+0xa2>
 8003d10:	f04f 0c02 	mov.w	ip, #2
 8003d14:	f886 c042 	strb.w	ip, [r6, #66]	; 0x42
 8003d18:	2b03      	cmp	r3, #3
 8003d1a:	d814      	bhi.n	8003d46 <HAL_HCD_HC_SubmitRequest+0x76>
 8003d1c:	a601      	add	r6, pc, #4	; (adr r6, 8003d24 <HAL_HCD_HC_SubmitRequest+0x54>)
 8003d1e:	f856 f023 	ldr.w	pc, [r6, r3, lsl #2]
 8003d22:	bf00      	nop
 8003d24:	08003d35 	.word	0x08003d35
 8003d28:	08003d07 	.word	0x08003d07
 8003d2c:	08003d79 	.word	0x08003d79
 8003d30:	08003d79 	.word	0x08003d79
 8003d34:	2f01      	cmp	r7, #1
 8003d36:	d106      	bne.n	8003d46 <HAL_HCD_HC_SubmitRequest+0x76>
 8003d38:	b92a      	cbnz	r2, 8003d46 <HAL_HCD_HC_SubmitRequest+0x76>
 8003d3a:	232c      	movs	r3, #44	; 0x2c
 8003d3c:	fb03 0301 	mla	r3, r3, r1, r0
 8003d40:	b99c      	cbnz	r4, 8003d6a <HAL_HCD_HC_SubmitRequest+0x9a>
 8003d42:	f883 7055 	strb.w	r7, [r3, #85]	; 0x55
 8003d46:	222c      	movs	r2, #44	; 0x2c
 8003d48:	fb02 0301 	mla	r3, r2, r1, r0
 8003d4c:	64dc      	str	r4, [r3, #76]	; 0x4c
 8003d4e:	2400      	movs	r4, #0
 8003d50:	f883 1039 	strb.w	r1, [r3, #57]	; 0x39
 8003d54:	f8a3 4060 	strh.w	r4, [r3, #96]	; 0x60
 8003d58:	4619      	mov	r1, r3
 8003d5a:	7c02      	ldrb	r2, [r0, #16]
 8003d5c:	645d      	str	r5, [r3, #68]	; 0x44
 8003d5e:	651c      	str	r4, [r3, #80]	; 0x50
 8003d60:	6800      	ldr	r0, [r0, #0]
 8003d62:	bcf0      	pop	{r4, r5, r6, r7}
 8003d64:	3138      	adds	r1, #56	; 0x38
 8003d66:	f003 b83b 	b.w	8006de0 <USB_HC_StartXfer>
 8003d6a:	f893 6055 	ldrb.w	r6, [r3, #85]	; 0x55
 8003d6e:	2e00      	cmp	r6, #0
 8003d70:	d1e9      	bne.n	8003d46 <HAL_HCD_HC_SubmitRequest+0x76>
 8003d72:	f883 2042 	strb.w	r2, [r3, #66]	; 0x42
 8003d76:	e7e6      	b.n	8003d46 <HAL_HCD_HC_SubmitRequest+0x76>
 8003d78:	232c      	movs	r3, #44	; 0x2c
 8003d7a:	fb03 0301 	mla	r3, r3, r1, r0
 8003d7e:	b92a      	cbnz	r2, 8003d8c <HAL_HCD_HC_SubmitRequest+0xbc>
 8003d80:	f893 6055 	ldrb.w	r6, [r3, #85]	; 0x55
 8003d84:	2e00      	cmp	r6, #0
 8003d86:	d0f4      	beq.n	8003d72 <HAL_HCD_HC_SubmitRequest+0xa2>
 8003d88:	2202      	movs	r2, #2
 8003d8a:	e7f2      	b.n	8003d72 <HAL_HCD_HC_SubmitRequest+0xa2>
 8003d8c:	f893 2054 	ldrb.w	r2, [r3, #84]	; 0x54
 8003d90:	2a00      	cmp	r2, #0
 8003d92:	d1f9      	bne.n	8003d88 <HAL_HCD_HC_SubmitRequest+0xb8>
 8003d94:	e7ed      	b.n	8003d72 <HAL_HCD_HC_SubmitRequest+0xa2>
 8003d96:	bf00      	nop

08003d98 <HAL_HCD_IRQHandler>:
 8003d98:	e92d 4ff0 	stmdb	sp!, {r4, r5, r6, r7, r8, r9, sl, fp, lr}
 8003d9c:	6806      	ldr	r6, [r0, #0]
 8003d9e:	b085      	sub	sp, #20
 8003da0:	4604      	mov	r4, r0
 8003da2:	4630      	mov	r0, r6
 8003da4:	f002 fe43 	bl	8006a2e <USB_GetMode>
 8003da8:	2801      	cmp	r0, #1
 8003daa:	f040 80f7 	bne.w	8003f9c <HAL_HCD_IRQHandler+0x204>
 8003dae:	6820      	ldr	r0, [r4, #0]
 8003db0:	f002 fe39 	bl	8006a26 <USB_ReadInterrupts>
 8003db4:	2800      	cmp	r0, #0
 8003db6:	f000 80f1 	beq.w	8003f9c <HAL_HCD_IRQHandler+0x204>
 8003dba:	6820      	ldr	r0, [r4, #0]
 8003dbc:	f002 fe33 	bl	8006a26 <USB_ReadInterrupts>
 8003dc0:	0283      	lsls	r3, r0, #10
 8003dc2:	bf48      	it	mi
 8003dc4:	6823      	ldrmi	r3, [r4, #0]
 8003dc6:	6820      	ldr	r0, [r4, #0]
 8003dc8:	bf44      	itt	mi
 8003dca:	f44f 1200 	movmi.w	r2, #2097152	; 0x200000
 8003dce:	615a      	strmi	r2, [r3, #20]
 8003dd0:	f002 fe29 	bl	8006a26 <USB_ReadInterrupts>
 8003dd4:	02c7      	lsls	r7, r0, #11
 8003dd6:	bf48      	it	mi
 8003dd8:	6823      	ldrmi	r3, [r4, #0]
 8003dda:	6820      	ldr	r0, [r4, #0]
 8003ddc:	bf44      	itt	mi
 8003dde:	f44f 1280 	movmi.w	r2, #1048576	; 0x100000
 8003de2:	615a      	strmi	r2, [r3, #20]
 8003de4:	f002 fe1f 	bl	8006a26 <USB_ReadInterrupts>
 8003de8:	0145      	lsls	r5, r0, #5
 8003dea:	bf48      	it	mi
 8003dec:	6823      	ldrmi	r3, [r4, #0]
 8003dee:	6820      	ldr	r0, [r4, #0]
 8003df0:	bf44      	itt	mi
 8003df2:	f04f 6280 	movmi.w	r2, #67108864	; 0x4000000
 8003df6:	615a      	strmi	r2, [r3, #20]
 8003df8:	f002 fe15 	bl	8006a26 <USB_ReadInterrupts>
 8003dfc:	0780      	lsls	r0, r0, #30
 8003dfe:	bf48      	it	mi
 8003e00:	6823      	ldrmi	r3, [r4, #0]
 8003e02:	6820      	ldr	r0, [r4, #0]
 8003e04:	bf44      	itt	mi
 8003e06:	2202      	movmi	r2, #2
 8003e08:	615a      	strmi	r2, [r3, #20]
 8003e0a:	f002 fe0c 	bl	8006a26 <USB_ReadInterrupts>
 8003e0e:	0081      	lsls	r1, r0, #2
 8003e10:	d515      	bpl.n	8003e3e <HAL_HCD_IRQHandler+0xa6>
 8003e12:	6823      	ldr	r3, [r4, #0]
 8003e14:	f04f 5200 	mov.w	r2, #536870912	; 0x20000000
 8003e18:	615a      	str	r2, [r3, #20]
 8003e1a:	f8d6 3440 	ldr.w	r3, [r6, #1088]	; 0x440
 8003e1e:	07da      	lsls	r2, r3, #31
 8003e20:	d40d      	bmi.n	8003e3e <HAL_HCD_IRQHandler+0xa6>
 8003e22:	2110      	movs	r1, #16
 8003e24:	4630      	mov	r0, r6
 8003e26:	f002 fd81 	bl	800692c <USB_FlushTxFifo>
 8003e2a:	4630      	mov	r0, r6
 8003e2c:	f002 fda4 	bl	8006978 <USB_FlushRxFifo>
 8003e30:	6820      	ldr	r0, [r4, #0]
 8003e32:	2101      	movs	r1, #1
 8003e34:	f002 fe6c 	bl	8006b10 <USB_InitFSLSPClkSel>
 8003e38:	4620      	mov	r0, r4
 8003e3a:	f004 f83b 	bl	8007eb4 <HAL_HCD_Disconnect_Callback>
 8003e3e:	6820      	ldr	r0, [r4, #0]
 8003e40:	f002 fdf1 	bl	8006a26 <USB_ReadInterrupts>
 8003e44:	01c3      	lsls	r3, r0, #7
 8003e46:	d53d      	bpl.n	8003ec4 <HAL_HCD_IRQHandler+0x12c>
 8003e48:	6825      	ldr	r5, [r4, #0]
 8003e4a:	f8d5 3440 	ldr.w	r3, [r5, #1088]	; 0x440
 8003e4e:	9302      	str	r3, [sp, #8]
 8003e50:	f8d5 3440 	ldr.w	r3, [r5, #1088]	; 0x440
 8003e54:	9303      	str	r3, [sp, #12]
 8003e56:	9b03      	ldr	r3, [sp, #12]
 8003e58:	f023 032e 	bic.w	r3, r3, #46	; 0x2e
 8003e5c:	9303      	str	r3, [sp, #12]
 8003e5e:	9b02      	ldr	r3, [sp, #8]
 8003e60:	079f      	lsls	r7, r3, #30
 8003e62:	d509      	bpl.n	8003e78 <HAL_HCD_IRQHandler+0xe0>
 8003e64:	9b02      	ldr	r3, [sp, #8]
 8003e66:	07d8      	lsls	r0, r3, #31
 8003e68:	d502      	bpl.n	8003e70 <HAL_HCD_IRQHandler+0xd8>
 8003e6a:	4620      	mov	r0, r4
 8003e6c:	f004 f81e 	bl	8007eac <HAL_HCD_Connect_Callback>
 8003e70:	9b03      	ldr	r3, [sp, #12]
 8003e72:	f043 0302 	orr.w	r3, r3, #2
 8003e76:	9303      	str	r3, [sp, #12]
 8003e78:	9b02      	ldr	r3, [sp, #8]
 8003e7a:	0719      	lsls	r1, r3, #28
 8003e7c:	d518      	bpl.n	8003eb0 <HAL_HCD_IRQHandler+0x118>
 8003e7e:	9b03      	ldr	r3, [sp, #12]
 8003e80:	f043 0308 	orr.w	r3, r3, #8
 8003e84:	9303      	str	r3, [sp, #12]
 8003e86:	9b02      	ldr	r3, [sp, #8]
 8003e88:	075a      	lsls	r2, r3, #29
 8003e8a:	f140 8092 	bpl.w	8003fb2 <HAL_HCD_IRQHandler+0x21a>
 8003e8e:	69a1      	ldr	r1, [r4, #24]
 8003e90:	2902      	cmp	r1, #2
 8003e92:	f040 8086 	bne.w	8003fa2 <HAL_HCD_IRQHandler+0x20a>
 8003e96:	9b02      	ldr	r3, [sp, #8]
 8003e98:	6820      	ldr	r0, [r4, #0]
 8003e9a:	f403 23c0 	and.w	r3, r3, #393216	; 0x60000
 8003e9e:	f5b3 2f80 	cmp.w	r3, #262144	; 0x40000
 8003ea2:	bf18      	it	ne
 8003ea4:	2101      	movne	r1, #1
 8003ea6:	f002 fe33 	bl	8006b10 <USB_InitFSLSPClkSel>
 8003eaa:	4620      	mov	r0, r4
 8003eac:	f004 f807 	bl	8007ebe <HAL_HCD_PortEnabled_Callback>
 8003eb0:	9b02      	ldr	r3, [sp, #8]
 8003eb2:	069b      	lsls	r3, r3, #26
 8003eb4:	bf42      	ittt	mi
 8003eb6:	9b03      	ldrmi	r3, [sp, #12]
 8003eb8:	f043 0320 	orrmi.w	r3, r3, #32
 8003ebc:	9303      	strmi	r3, [sp, #12]
 8003ebe:	9b03      	ldr	r3, [sp, #12]
 8003ec0:	f8c5 3440 	str.w	r3, [r5, #1088]	; 0x440
 8003ec4:	6820      	ldr	r0, [r4, #0]
 8003ec6:	f002 fdae 	bl	8006a26 <USB_ReadInterrupts>
 8003eca:	0707      	lsls	r7, r0, #28
 8003ecc:	d505      	bpl.n	8003eda <HAL_HCD_IRQHandler+0x142>
 8003ece:	4620      	mov	r0, r4
 8003ed0:	f003 ffe8 	bl	8007ea4 <HAL_HCD_SOF_Callback>
 8003ed4:	6823      	ldr	r3, [r4, #0]
 8003ed6:	2208      	movs	r2, #8
 8003ed8:	615a      	str	r2, [r3, #20]
 8003eda:	6820      	ldr	r0, [r4, #0]
 8003edc:	f002 fda3 	bl	8006a26 <USB_ReadInterrupts>
 8003ee0:	06c5      	lsls	r5, r0, #27
 8003ee2:	d544      	bpl.n	8003f6e <HAL_HCD_IRQHandler+0x1d6>
 8003ee4:	6827      	ldr	r7, [r4, #0]
 8003ee6:	69bb      	ldr	r3, [r7, #24]
 8003ee8:	f023 0310 	bic.w	r3, r3, #16
 8003eec:	61bb      	str	r3, [r7, #24]
 8003eee:	6a3b      	ldr	r3, [r7, #32]
 8003ef0:	f3c3 4243 	ubfx	r2, r3, #17, #4
 8003ef4:	2a02      	cmp	r2, #2
 8003ef6:	d135      	bne.n	8003f64 <HAL_HCD_IRQHandler+0x1cc>
 8003ef8:	f3c3 190a 	ubfx	r9, r3, #4, #11
 8003efc:	f1b9 0f00 	cmp.w	r9, #0
 8003f00:	d030      	beq.n	8003f64 <HAL_HCD_IRQHandler+0x1cc>
 8003f02:	f003 080f 	and.w	r8, r3, #15
 8003f06:	252c      	movs	r5, #44	; 0x2c
 8003f08:	fb05 4508 	mla	r5, r5, r8, r4
 8003f0c:	6c69      	ldr	r1, [r5, #68]	; 0x44
 8003f0e:	b349      	cbz	r1, 8003f64 <HAL_HCD_IRQHandler+0x1cc>
 8003f10:	6d2b      	ldr	r3, [r5, #80]	; 0x50
 8003f12:	6cea      	ldr	r2, [r5, #76]	; 0x4c
 8003f14:	444b      	add	r3, r9
 8003f16:	4293      	cmp	r3, r2
 8003f18:	d84f      	bhi.n	8003fba <HAL_HCD_IRQHandler+0x222>
 8003f1a:	464a      	mov	r2, r9
 8003f1c:	4638      	mov	r0, r7
 8003f1e:	f002 fd62 	bl	80069e6 <USB_ReadPacket>
 8003f22:	6c6b      	ldr	r3, [r5, #68]	; 0x44
 8003f24:	f8b5 1040 	ldrh.w	r1, [r5, #64]	; 0x40
 8003f28:	444b      	add	r3, r9
 8003f2a:	646b      	str	r3, [r5, #68]	; 0x44
 8003f2c:	f507 67a0 	add.w	r7, r7, #1280	; 0x500
 8003f30:	6d2b      	ldr	r3, [r5, #80]	; 0x50
 8003f32:	ea4f 1248 	mov.w	r2, r8, lsl #5
 8003f36:	eb07 1848 	add.w	r8, r7, r8, lsl #5
 8003f3a:	444b      	add	r3, r9
 8003f3c:	4589      	cmp	r9, r1
 8003f3e:	652b      	str	r3, [r5, #80]	; 0x50
 8003f40:	f8d8 3010 	ldr.w	r3, [r8, #16]
 8003f44:	d10e      	bne.n	8003f64 <HAL_HCD_IRQHandler+0x1cc>
 8003f46:	f3c3 43c9 	ubfx	r3, r3, #19, #10
 8003f4a:	b15b      	cbz	r3, 8003f64 <HAL_HCD_IRQHandler+0x1cc>
 8003f4c:	59d3      	ldr	r3, [r2, r7]
 8003f4e:	f023 4380 	bic.w	r3, r3, #1073741824	; 0x40000000
 8003f52:	f043 4300 	orr.w	r3, r3, #2147483648	; 0x80000000
 8003f56:	51d3      	str	r3, [r2, r7]
 8003f58:	f895 3054 	ldrb.w	r3, [r5, #84]	; 0x54
 8003f5c:	f083 0301 	eor.w	r3, r3, #1
 8003f60:	f885 3054 	strb.w	r3, [r5, #84]	; 0x54
 8003f64:	6822      	ldr	r2, [r4, #0]
 8003f66:	6993      	ldr	r3, [r2, #24]
 8003f68:	f043 0310 	orr.w	r3, r3, #16
 8003f6c:	6193      	str	r3, [r2, #24]
 8003f6e:	6820      	ldr	r0, [r4, #0]
 8003f70:	f002 fd59 	bl	8006a26 <USB_ReadInterrupts>
 8003f74:	0180      	lsls	r0, r0, #6
 8003f76:	d511      	bpl.n	8003f9c <HAL_HCD_IRQHandler+0x204>
 8003f78:	6820      	ldr	r0, [r4, #0]
 8003f7a:	f002 febd 	bl	8006cf8 <USB_HC_ReadInterrupt>
 8003f7e:	f506 63a0 	add.w	r3, r6, #1280	; 0x500
 8003f82:	9001      	str	r0, [sp, #4]
 8003f84:	9300      	str	r3, [sp, #0]
 8003f86:	f04f 0900 	mov.w	r9, #0
 8003f8a:	252c      	movs	r5, #44	; 0x2c
 8003f8c:	2702      	movs	r7, #2
 8003f8e:	68a3      	ldr	r3, [r4, #8]
 8003f90:	6820      	ldr	r0, [r4, #0]
 8003f92:	454b      	cmp	r3, r9
 8003f94:	d815      	bhi.n	8003fc2 <HAL_HCD_IRQHandler+0x22a>
 8003f96:	f04f 7300 	mov.w	r3, #33554432	; 0x2000000
 8003f9a:	6143      	str	r3, [r0, #20]
 8003f9c:	b005      	add	sp, #20
 8003f9e:	e8bd 8ff0 	ldmia.w	sp!, {r4, r5, r6, r7, r8, r9, sl, fp, pc}
 8003fa2:	68e3      	ldr	r3, [r4, #12]
 8003fa4:	2b01      	cmp	r3, #1
 8003fa6:	bf04      	itt	eq
 8003fa8:	f64e 2260 	movweq	r2, #60000	; 0xea60
 8003fac:	f8c5 2404 	streq.w	r2, [r5, #1028]	; 0x404
 8003fb0:	e77b      	b.n	8003eaa <HAL_HCD_IRQHandler+0x112>
 8003fb2:	4620      	mov	r0, r4
 8003fb4:	f003 ff87 	bl	8007ec6 <HAL_HCD_PortDisabled_Callback>
 8003fb8:	e77a      	b.n	8003eb0 <HAL_HCD_IRQHandler+0x118>
 8003fba:	2304      	movs	r3, #4
 8003fbc:	f885 3060 	strb.w	r3, [r5, #96]	; 0x60
 8003fc0:	e7d0      	b.n	8003f64 <HAL_HCD_IRQHandler+0x1cc>
 8003fc2:	9a01      	ldr	r2, [sp, #4]
 8003fc4:	f009 030f 	and.w	r3, r9, #15
 8003fc8:	fa22 f303 	lsr.w	r3, r2, r3
 8003fcc:	07d9      	lsls	r1, r3, #31
 8003fce:	f140 8085 	bpl.w	80040dc <HAL_HCD_IRQHandler+0x344>
 8003fd2:	9b00      	ldr	r3, [sp, #0]
 8003fd4:	fa5f fb89 	uxtb.w	fp, r9
 8003fd8:	681a      	ldr	r2, [r3, #0]
 8003fda:	f500 6aa0 	add.w	sl, r0, #1280	; 0x500
 8003fde:	eb0a 164b 	add.w	r6, sl, fp, lsl #5
 8003fe2:	f412 4f00 	tst.w	r2, #32768	; 0x8000
 8003fe6:	ea4f 184b 	mov.w	r8, fp, lsl #5
 8003fea:	68b2      	ldr	r2, [r6, #8]
 8003fec:	f000 80e2 	beq.w	80041b4 <HAL_HCD_IRQHandler+0x41c>
 8003ff0:	0752      	lsls	r2, r2, #29
 8003ff2:	d506      	bpl.n	8004002 <HAL_HCD_IRQHandler+0x26a>
 8003ff4:	2204      	movs	r2, #4
 8003ff6:	60b2      	str	r2, [r6, #8]
 8003ff8:	f04f 0c06 	mov.w	ip, #6
 8003ffc:	fb05 420b 	mla	r2, r5, fp, r4
 8004000:	e009      	b.n	8004016 <HAL_HCD_IRQHandler+0x27e>
 8004002:	68b2      	ldr	r2, [r6, #8]
 8004004:	05d3      	lsls	r3, r2, #23
 8004006:	d50c      	bpl.n	8004022 <HAL_HCD_IRQHandler+0x28a>
 8004008:	f44f 7280 	mov.w	r2, #256	; 0x100
 800400c:	60b2      	str	r2, [r6, #8]
 800400e:	f04f 0c07 	mov.w	ip, #7
 8004012:	fb05 420b 	mla	r2, r5, fp, r4
 8004016:	f882 c061 	strb.w	ip, [r2, #97]	; 0x61
 800401a:	4659      	mov	r1, fp
 800401c:	f002 fe71 	bl	8006d02 <USB_HC_Halt>
 8004020:	e004      	b.n	800402c <HAL_HCD_IRQHandler+0x294>
 8004022:	68b2      	ldr	r2, [r6, #8]
 8004024:	0691      	lsls	r1, r2, #26
 8004026:	d50c      	bpl.n	8004042 <HAL_HCD_IRQHandler+0x2aa>
 8004028:	2220      	movs	r2, #32
 800402a:	60b2      	str	r2, [r6, #8]
 800402c:	68b2      	ldr	r2, [r6, #8]
 800402e:	0592      	lsls	r2, r2, #22
 8004030:	d521      	bpl.n	8004076 <HAL_HCD_IRQHandler+0x2de>
 8004032:	6820      	ldr	r0, [r4, #0]
 8004034:	4659      	mov	r1, fp
 8004036:	f002 fe64 	bl	8006d02 <USB_HC_Halt>
 800403a:	f44f 7200 	mov.w	r2, #512	; 0x200
 800403e:	60b2      	str	r2, [r6, #8]
 8004040:	e04c      	b.n	80040dc <HAL_HCD_IRQHandler+0x344>
 8004042:	68b2      	ldr	r2, [r6, #8]
 8004044:	0712      	lsls	r2, r2, #28
 8004046:	d506      	bpl.n	8004056 <HAL_HCD_IRQHandler+0x2be>
 8004048:	2208      	movs	r2, #8
 800404a:	60b2      	str	r2, [r6, #8]
 800404c:	f04f 0c05 	mov.w	ip, #5
 8004050:	fb05 420b 	mla	r2, r5, fp, r4
 8004054:	e7df      	b.n	8004016 <HAL_HCD_IRQHandler+0x27e>
 8004056:	68b2      	ldr	r2, [r6, #8]
 8004058:	0553      	lsls	r3, r2, #21
 800405a:	d507      	bpl.n	800406c <HAL_HCD_IRQHandler+0x2d4>
 800405c:	f44f 6280 	mov.w	r2, #1024	; 0x400
 8004060:	60b2      	str	r2, [r6, #8]
 8004062:	f04f 0c08 	mov.w	ip, #8
 8004066:	fb05 420b 	mla	r2, r5, fp, r4
 800406a:	e7d4      	b.n	8004016 <HAL_HCD_IRQHandler+0x27e>
 800406c:	68b2      	ldr	r2, [r6, #8]
 800406e:	0611      	lsls	r1, r2, #24
 8004070:	d5dc      	bpl.n	800402c <HAL_HCD_IRQHandler+0x294>
 8004072:	2280      	movs	r2, #128	; 0x80
 8004074:	e7bf      	b.n	8003ff6 <HAL_HCD_IRQHandler+0x25e>
 8004076:	68b2      	ldr	r2, [r6, #8]
 8004078:	07d3      	lsls	r3, r2, #31
 800407a:	d544      	bpl.n	8004106 <HAL_HCD_IRQHandler+0x36e>
 800407c:	6922      	ldr	r2, [r4, #16]
 800407e:	b142      	cbz	r2, 8004092 <HAL_HCD_IRQHandler+0x2fa>
 8004080:	6932      	ldr	r2, [r6, #16]
 8004082:	fb05 400b 	mla	r0, r5, fp, r4
 8004086:	f3c2 0c12 	ubfx	ip, r2, #0, #19
 800408a:	6c82      	ldr	r2, [r0, #72]	; 0x48
 800408c:	eba2 020c 	sub.w	r2, r2, ip
 8004090:	6502      	str	r2, [r0, #80]	; 0x50
 8004092:	fb05 400b 	mla	r0, r5, fp, r4
 8004096:	2201      	movs	r2, #1
 8004098:	2300      	movs	r3, #0
 800409a:	f880 2061 	strb.w	r2, [r0, #97]	; 0x61
 800409e:	65c3      	str	r3, [r0, #92]	; 0x5c
 80040a0:	60b2      	str	r2, [r6, #8]
 80040a2:	f890 203f 	ldrb.w	r2, [r0, #63]	; 0x3f
 80040a6:	f012 02fd 	ands.w	r2, r2, #253	; 0xfd
 80040aa:	d11d      	bne.n	80040e8 <HAL_HCD_IRQHandler+0x350>
 80040ac:	6820      	ldr	r0, [r4, #0]
 80040ae:	4659      	mov	r1, fp
 80040b0:	f002 fe27 	bl	8006d02 <USB_HC_Halt>
 80040b4:	2210      	movs	r2, #16
 80040b6:	60b2      	str	r2, [r6, #8]
 80040b8:	6923      	ldr	r3, [r4, #16]
 80040ba:	2b01      	cmp	r3, #1
 80040bc:	fb05 410b 	mla	r1, r5, fp, r4
 80040c0:	d106      	bne.n	80040d0 <HAL_HCD_IRQHandler+0x338>
 80040c2:	f8b1 2040 	ldrh.w	r2, [r1, #64]	; 0x40
 80040c6:	6c8b      	ldr	r3, [r1, #72]	; 0x48
 80040c8:	fbb3 f3f2 	udiv	r3, r3, r2
 80040cc:	07d8      	lsls	r0, r3, #31
 80040ce:	d505      	bpl.n	80040dc <HAL_HCD_IRQHandler+0x344>
 80040d0:	f891 3054 	ldrb.w	r3, [r1, #84]	; 0x54
 80040d4:	f083 0301 	eor.w	r3, r3, #1
 80040d8:	f881 3054 	strb.w	r3, [r1, #84]	; 0x54
 80040dc:	9b00      	ldr	r3, [sp, #0]
 80040de:	3320      	adds	r3, #32
 80040e0:	f109 0901 	add.w	r9, r9, #1
 80040e4:	9300      	str	r3, [sp, #0]
 80040e6:	e752      	b.n	8003f8e <HAL_HCD_IRQHandler+0x1f6>
 80040e8:	2a01      	cmp	r2, #1
 80040ea:	d1e5      	bne.n	80040b8 <HAL_HCD_IRQHandler+0x320>
 80040ec:	f858 300a 	ldr.w	r3, [r8, sl]
 80040f0:	f043 5300 	orr.w	r3, r3, #536870912	; 0x20000000
 80040f4:	f848 300a 	str.w	r3, [r8, sl]
 80040f8:	4659      	mov	r1, fp
 80040fa:	f880 2060 	strb.w	r2, [r0, #96]	; 0x60
 80040fe:	4620      	mov	r0, r4
 8004100:	f003 fedc 	bl	8007ebc <HAL_HCD_HC_NotifyURBChange_Callback>
 8004104:	e7d8      	b.n	80040b8 <HAL_HCD_IRQHandler+0x320>
 8004106:	68b3      	ldr	r3, [r6, #8]
 8004108:	f013 0302 	ands.w	r3, r3, #2
 800410c:	d035      	beq.n	800417a <HAL_HCD_IRQHandler+0x3e2>
 800410e:	fb05 400b 	mla	r0, r5, fp, r4
 8004112:	f890 2061 	ldrb.w	r2, [r0, #97]	; 0x61
 8004116:	2a01      	cmp	r2, #1
 8004118:	d10b      	bne.n	8004132 <HAL_HCD_IRQHandler+0x39a>
 800411a:	f880 2060 	strb.w	r2, [r0, #96]	; 0x60
 800411e:	fb05 430b 	mla	r3, r5, fp, r4
 8004122:	60b7      	str	r7, [r6, #8]
 8004124:	f893 2060 	ldrb.w	r2, [r3, #96]	; 0x60
 8004128:	4659      	mov	r1, fp
 800412a:	4620      	mov	r0, r4
 800412c:	f003 fec6 	bl	8007ebc <HAL_HCD_HC_NotifyURBChange_Callback>
 8004130:	e7d4      	b.n	80040dc <HAL_HCD_IRQHandler+0x344>
 8004132:	2a05      	cmp	r2, #5
 8004134:	d0f1      	beq.n	800411a <HAL_HCD_IRQHandler+0x382>
 8004136:	2a06      	cmp	r2, #6
 8004138:	d001      	beq.n	800413e <HAL_HCD_IRQHandler+0x3a6>
 800413a:	2a08      	cmp	r2, #8
 800413c:	d109      	bne.n	8004152 <HAL_HCD_IRQHandler+0x3ba>
 800413e:	fb05 400b 	mla	r0, r5, fp, r4
 8004142:	6dc2      	ldr	r2, [r0, #92]	; 0x5c
 8004144:	3201      	adds	r2, #1
 8004146:	2a02      	cmp	r2, #2
 8004148:	65c2      	str	r2, [r0, #92]	; 0x5c
 800414a:	d904      	bls.n	8004156 <HAL_HCD_IRQHandler+0x3be>
 800414c:	2300      	movs	r3, #0
 800414e:	65c3      	str	r3, [r0, #92]	; 0x5c
 8004150:	e011      	b.n	8004176 <HAL_HCD_IRQHandler+0x3de>
 8004152:	2a03      	cmp	r2, #3
 8004154:	d10a      	bne.n	800416c <HAL_HCD_IRQHandler+0x3d4>
 8004156:	f880 7060 	strb.w	r7, [r0, #96]	; 0x60
 800415a:	f858 200a 	ldr.w	r2, [r8, sl]
 800415e:	f022 4280 	bic.w	r2, r2, #1073741824	; 0x40000000
 8004162:	f042 4200 	orr.w	r2, r2, #2147483648	; 0x80000000
 8004166:	f848 200a 	str.w	r2, [r8, sl]
 800416a:	e7d8      	b.n	800411e <HAL_HCD_IRQHandler+0x386>
 800416c:	2a07      	cmp	r2, #7
 800416e:	d1d6      	bne.n	800411e <HAL_HCD_IRQHandler+0x386>
 8004170:	6dc2      	ldr	r2, [r0, #92]	; 0x5c
 8004172:	3201      	adds	r2, #1
 8004174:	65c2      	str	r2, [r0, #92]	; 0x5c
 8004176:	2204      	movs	r2, #4
 8004178:	e7cf      	b.n	800411a <HAL_HCD_IRQHandler+0x382>
 800417a:	68b2      	ldr	r2, [r6, #8]
 800417c:	06d2      	lsls	r2, r2, #27
 800417e:	d5ad      	bpl.n	80040dc <HAL_HCD_IRQHandler+0x344>
 8004180:	fb05 4e0b 	mla	lr, r5, fp, r4
 8004184:	6820      	ldr	r0, [r4, #0]
 8004186:	f89e 203f 	ldrb.w	r2, [lr, #63]	; 0x3f
 800418a:	2a03      	cmp	r2, #3
 800418c:	d106      	bne.n	800419c <HAL_HCD_IRQHandler+0x404>
 800418e:	f8ce 305c 	str.w	r3, [lr, #92]	; 0x5c
 8004192:	4659      	mov	r1, fp
 8004194:	f002 fdb5 	bl	8006d02 <USB_HC_Halt>
 8004198:	2210      	movs	r2, #16
 800419a:	e750      	b.n	800403e <HAL_HCD_IRQHandler+0x2a6>
 800419c:	f012 02fd 	ands.w	r2, r2, #253	; 0xfd
 80041a0:	d1fa      	bne.n	8004198 <HAL_HCD_IRQHandler+0x400>
 80041a2:	f8ce 205c 	str.w	r2, [lr, #92]	; 0x5c
 80041a6:	6922      	ldr	r2, [r4, #16]
 80041a8:	2a00      	cmp	r2, #0
 80041aa:	d1f5      	bne.n	8004198 <HAL_HCD_IRQHandler+0x400>
 80041ac:	2203      	movs	r2, #3
 80041ae:	f88e 2061 	strb.w	r2, [lr, #97]	; 0x61
 80041b2:	e7ee      	b.n	8004192 <HAL_HCD_IRQHandler+0x3fa>
 80041b4:	f012 0204 	ands.w	r2, r2, #4
 80041b8:	d007      	beq.n	80041ca <HAL_HCD_IRQHandler+0x432>
 80041ba:	2204      	movs	r2, #4
 80041bc:	60b2      	str	r2, [r6, #8]
 80041be:	fb05 430b 	mla	r3, r5, fp, r4
 80041c2:	2206      	movs	r2, #6
 80041c4:	f883 2061 	strb.w	r2, [r3, #97]	; 0x61
 80041c8:	e010      	b.n	80041ec <HAL_HCD_IRQHandler+0x454>
 80041ca:	68b3      	ldr	r3, [r6, #8]
 80041cc:	069b      	lsls	r3, r3, #26
 80041ce:	d511      	bpl.n	80041f4 <HAL_HCD_IRQHandler+0x45c>
 80041d0:	2320      	movs	r3, #32
 80041d2:	60b3      	str	r3, [r6, #8]
 80041d4:	fb05 430b 	mla	r3, r5, fp, r4
 80041d8:	f893 c03d 	ldrb.w	ip, [r3, #61]	; 0x3d
 80041dc:	f1bc 0f01 	cmp.w	ip, #1
 80041e0:	f47f af7c 	bne.w	80040dc <HAL_HCD_IRQHandler+0x344>
 80041e4:	f883 203d 	strb.w	r2, [r3, #61]	; 0x3d
 80041e8:	f883 7060 	strb.w	r7, [r3, #96]	; 0x60
 80041ec:	4659      	mov	r1, fp
 80041ee:	f002 fd88 	bl	8006d02 <USB_HC_Halt>
 80041f2:	e773      	b.n	80040dc <HAL_HCD_IRQHandler+0x344>
 80041f4:	68b3      	ldr	r3, [r6, #8]
 80041f6:	f413 7300 	ands.w	r3, r3, #512	; 0x200
 80041fa:	d003      	beq.n	8004204 <HAL_HCD_IRQHandler+0x46c>
 80041fc:	f44f 7200 	mov.w	r2, #512	; 0x200
 8004200:	60b2      	str	r2, [r6, #8]
 8004202:	e7f3      	b.n	80041ec <HAL_HCD_IRQHandler+0x454>
 8004204:	68b2      	ldr	r2, [r6, #8]
 8004206:	f012 0201 	ands.w	r2, r2, #1
 800420a:	d010      	beq.n	800422e <HAL_HCD_IRQHandler+0x496>
 800420c:	fb05 420b 	mla	r2, r5, fp, r4
 8004210:	65d3      	str	r3, [r2, #92]	; 0x5c
 8004212:	68b3      	ldr	r3, [r6, #8]
 8004214:	0659      	lsls	r1, r3, #25
 8004216:	bf41      	itttt	mi
 8004218:	f04f 0c01 	movmi.w	ip, #1
 800421c:	f882 c03d 	strbmi.w	ip, [r2, #61]	; 0x3d
 8004220:	2240      	movmi	r2, #64	; 0x40
 8004222:	60b2      	strmi	r2, [r6, #8]
 8004224:	2201      	movs	r2, #1
 8004226:	60b2      	str	r2, [r6, #8]
 8004228:	fb05 430b 	mla	r3, r5, fp, r4
 800422c:	e7ca      	b.n	80041c4 <HAL_HCD_IRQHandler+0x42c>
 800422e:	68b3      	ldr	r3, [r6, #8]
 8004230:	065b      	lsls	r3, r3, #25
 8004232:	d510      	bpl.n	8004256 <HAL_HCD_IRQHandler+0x4be>
 8004234:	fb05 4c0b 	mla	ip, r5, fp, r4
 8004238:	f04f 0e04 	mov.w	lr, #4
 800423c:	f88c e061 	strb.w	lr, [ip, #97]	; 0x61
 8004240:	f04f 0e01 	mov.w	lr, #1
 8004244:	f8cc 205c 	str.w	r2, [ip, #92]	; 0x5c
 8004248:	f88c e03d 	strb.w	lr, [ip, #61]	; 0x3d
 800424c:	4659      	mov	r1, fp
 800424e:	f002 fd58 	bl	8006d02 <USB_HC_Halt>
 8004252:	2240      	movs	r2, #64	; 0x40
 8004254:	e6f3      	b.n	800403e <HAL_HCD_IRQHandler+0x2a6>
 8004256:	68b2      	ldr	r2, [r6, #8]
 8004258:	0711      	lsls	r1, r2, #28
 800425a:	d505      	bpl.n	8004268 <HAL_HCD_IRQHandler+0x4d0>
 800425c:	2208      	movs	r2, #8
 800425e:	60b2      	str	r2, [r6, #8]
 8004260:	fb05 430b 	mla	r3, r5, fp, r4
 8004264:	2205      	movs	r2, #5
 8004266:	e7ad      	b.n	80041c4 <HAL_HCD_IRQHandler+0x42c>
 8004268:	68b2      	ldr	r2, [r6, #8]
 800426a:	06d2      	lsls	r2, r2, #27
 800426c:	d514      	bpl.n	8004298 <HAL_HCD_IRQHandler+0x500>
 800426e:	fb05 420b 	mla	r2, r5, fp, r4
 8004272:	2300      	movs	r3, #0
 8004274:	65d3      	str	r3, [r2, #92]	; 0x5c
 8004276:	f892 303d 	ldrb.w	r3, [r2, #61]	; 0x3d
 800427a:	f04f 0c03 	mov.w	ip, #3
 800427e:	f882 c061 	strb.w	ip, [r2, #97]	; 0x61
 8004282:	2b00      	cmp	r3, #0
 8004284:	d185      	bne.n	8004192 <HAL_HCD_IRQHandler+0x3fa>
 8004286:	f892 303c 	ldrb.w	r3, [r2, #60]	; 0x3c
 800428a:	2b00      	cmp	r3, #0
 800428c:	d181      	bne.n	8004192 <HAL_HCD_IRQHandler+0x3fa>
 800428e:	f04f 0c01 	mov.w	ip, #1
 8004292:	f882 c03d 	strb.w	ip, [r2, #61]	; 0x3d
 8004296:	e77c      	b.n	8004192 <HAL_HCD_IRQHandler+0x3fa>
 8004298:	68b2      	ldr	r2, [r6, #8]
 800429a:	0613      	lsls	r3, r2, #24
 800429c:	d520      	bpl.n	80042e0 <HAL_HCD_IRQHandler+0x548>
 800429e:	6922      	ldr	r2, [r4, #16]
 80042a0:	b952      	cbnz	r2, 80042b8 <HAL_HCD_IRQHandler+0x520>
 80042a2:	fb05 420b 	mla	r2, r5, fp, r4
 80042a6:	f04f 0c06 	mov.w	ip, #6
 80042aa:	f882 c061 	strb.w	ip, [r2, #97]	; 0x61
 80042ae:	4659      	mov	r1, fp
 80042b0:	f002 fd27 	bl	8006d02 <USB_HC_Halt>
 80042b4:	2280      	movs	r2, #128	; 0x80
 80042b6:	e6c2      	b.n	800403e <HAL_HCD_IRQHandler+0x2a6>
 80042b8:	fb05 400b 	mla	r0, r5, fp, r4
 80042bc:	6dc2      	ldr	r2, [r0, #92]	; 0x5c
 80042be:	3201      	adds	r2, #1
 80042c0:	2a02      	cmp	r2, #2
 80042c2:	65c2      	str	r2, [r0, #92]	; 0x5c
 80042c4:	d909      	bls.n	80042da <HAL_HCD_IRQHandler+0x542>
 80042c6:	2300      	movs	r3, #0
 80042c8:	2204      	movs	r2, #4
 80042ca:	65c3      	str	r3, [r0, #92]	; 0x5c
 80042cc:	f880 2060 	strb.w	r2, [r0, #96]	; 0x60
 80042d0:	4659      	mov	r1, fp
 80042d2:	4620      	mov	r0, r4
 80042d4:	f003 fdf2 	bl	8007ebc <HAL_HCD_HC_NotifyURBChange_Callback>
 80042d8:	e7ec      	b.n	80042b4 <HAL_HCD_IRQHandler+0x51c>
 80042da:	f880 7060 	strb.w	r7, [r0, #96]	; 0x60
 80042de:	e7e9      	b.n	80042b4 <HAL_HCD_IRQHandler+0x51c>
 80042e0:	68b2      	ldr	r2, [r6, #8]
 80042e2:	0551      	lsls	r1, r2, #21
 80042e4:	d50b      	bpl.n	80042fe <HAL_HCD_IRQHandler+0x566>
 80042e6:	fb05 420b 	mla	r2, r5, fp, r4
 80042ea:	f04f 0c08 	mov.w	ip, #8
 80042ee:	f882 c061 	strb.w	ip, [r2, #97]	; 0x61
 80042f2:	4659      	mov	r1, fp
 80042f4:	f002 fd05 	bl	8006d02 <USB_HC_Halt>
 80042f8:	f44f 6280 	mov.w	r2, #1024	; 0x400
 80042fc:	e69f      	b.n	800403e <HAL_HCD_IRQHandler+0x2a6>
 80042fe:	68b2      	ldr	r2, [r6, #8]
 8004300:	0792      	lsls	r2, r2, #30
 8004302:	f57f aeeb 	bpl.w	80040dc <HAL_HCD_IRQHandler+0x344>
 8004306:	fb05 420b 	mla	r2, r5, fp, r4
 800430a:	f892 0061 	ldrb.w	r0, [r2, #97]	; 0x61
 800430e:	2801      	cmp	r0, #1
 8004310:	d121      	bne.n	8004356 <HAL_HCD_IRQHandler+0x5be>
 8004312:	f882 0060 	strb.w	r0, [r2, #96]	; 0x60
 8004316:	f892 003f 	ldrb.w	r0, [r2, #63]	; 0x3f
 800431a:	3802      	subs	r0, #2
 800431c:	2801      	cmp	r0, #1
 800431e:	f63f aefe 	bhi.w	800411e <HAL_HCD_IRQHandler+0x386>
 8004322:	6920      	ldr	r0, [r4, #16]
 8004324:	b930      	cbnz	r0, 8004334 <HAL_HCD_IRQHandler+0x59c>
 8004326:	f892 0055 	ldrb.w	r0, [r2, #85]	; 0x55
 800432a:	f080 0001 	eor.w	r0, r0, #1
 800432e:	f882 0055 	strb.w	r0, [r2, #85]	; 0x55
 8004332:	e6f4      	b.n	800411e <HAL_HCD_IRQHandler+0x386>
 8004334:	2801      	cmp	r0, #1
 8004336:	f47f aef2 	bne.w	800411e <HAL_HCD_IRQHandler+0x386>
 800433a:	6cd0      	ldr	r0, [r2, #76]	; 0x4c
 800433c:	2800      	cmp	r0, #0
 800433e:	f43f aeee 	beq.w	800411e <HAL_HCD_IRQHandler+0x386>
 8004342:	f8b2 c040 	ldrh.w	ip, [r2, #64]	; 0x40
 8004346:	3801      	subs	r0, #1
 8004348:	4460      	add	r0, ip
 800434a:	fbb0 f0fc 	udiv	r0, r0, ip
 800434e:	07c3      	lsls	r3, r0, #31
 8004350:	f57f aee5 	bpl.w	800411e <HAL_HCD_IRQHandler+0x386>
 8004354:	e7e7      	b.n	8004326 <HAL_HCD_IRQHandler+0x58e>
 8004356:	2803      	cmp	r0, #3
 8004358:	d102      	bne.n	8004360 <HAL_HCD_IRQHandler+0x5c8>
 800435a:	f882 7060 	strb.w	r7, [r2, #96]	; 0x60
 800435e:	e6de      	b.n	800411e <HAL_HCD_IRQHandler+0x386>
 8004360:	2804      	cmp	r0, #4
 8004362:	d0fa      	beq.n	800435a <HAL_HCD_IRQHandler+0x5c2>
 8004364:	2805      	cmp	r0, #5
 8004366:	d102      	bne.n	800436e <HAL_HCD_IRQHandler+0x5d6>
 8004368:	f882 0060 	strb.w	r0, [r2, #96]	; 0x60
 800436c:	e6d7      	b.n	800411e <HAL_HCD_IRQHandler+0x386>
 800436e:	2806      	cmp	r0, #6
 8004370:	f43f aee5 	beq.w	800413e <HAL_HCD_IRQHandler+0x3a6>
 8004374:	2808      	cmp	r0, #8
 8004376:	f47f aed2 	bne.w	800411e <HAL_HCD_IRQHandler+0x386>
 800437a:	e6e0      	b.n	800413e <HAL_HCD_IRQHandler+0x3a6>

0800437c <HAL_HCD_Start>:
 800437c:	b510      	push	{r4, lr}
 800437e:	f890 32f8 	ldrb.w	r3, [r0, #760]	; 0x2f8
 8004382:	2b01      	cmp	r3, #1
 8004384:	4604      	mov	r4, r0
 8004386:	d00c      	beq.n	80043a2 <HAL_HCD_Start+0x26>
 8004388:	2101      	movs	r1, #1
 800438a:	f880 12f8 	strb.w	r1, [r0, #760]	; 0x2f8
 800438e:	6800      	ldr	r0, [r0, #0]
 8004390:	f002 fbf8 	bl	8006b84 <USB_DriveVbus>
 8004394:	6820      	ldr	r0, [r4, #0]
 8004396:	f002 fa8d 	bl	80068b4 <USB_EnableGlobalInt>
 800439a:	2000      	movs	r0, #0
 800439c:	f884 02f8 	strb.w	r0, [r4, #760]	; 0x2f8
 80043a0:	bd10      	pop	{r4, pc}
 80043a2:	2002      	movs	r0, #2
 80043a4:	e7fc      	b.n	80043a0 <HAL_HCD_Start+0x24>

080043a6 <HAL_HCD_Stop>:
 80043a6:	b510      	push	{r4, lr}
 80043a8:	f890 32f8 	ldrb.w	r3, [r0, #760]	; 0x2f8
 80043ac:	2b01      	cmp	r3, #1
 80043ae:	4604      	mov	r4, r0
 80043b0:	d009      	beq.n	80043c6 <HAL_HCD_Stop+0x20>
 80043b2:	2301      	movs	r3, #1
 80043b4:	f880 32f8 	strb.w	r3, [r0, #760]	; 0x2f8
 80043b8:	6800      	ldr	r0, [r0, #0]
 80043ba:	f002 fdb8 	bl	8006f2e <USB_StopHost>
 80043be:	2000      	movs	r0, #0
 80043c0:	f884 02f8 	strb.w	r0, [r4, #760]	; 0x2f8
 80043c4:	bd10      	pop	{r4, pc}
 80043c6:	2002      	movs	r0, #2
 80043c8:	e7fc      	b.n	80043c4 <HAL_HCD_Stop+0x1e>

080043ca <HAL_HCD_ResetPort>:
 80043ca:	6800      	ldr	r0, [r0, #0]
 80043cc:	f002 bbbc 	b.w	8006b48 <USB_ResetPort>

080043d0 <HAL_HCD_HC_GetURBState>:
 80043d0:	232c      	movs	r3, #44	; 0x2c
 80043d2:	fb03 0101 	mla	r1, r3, r1, r0
 80043d6:	f891 0060 	ldrb.w	r0, [r1, #96]	; 0x60
 80043da:	4770      	bx	lr

080043dc <HAL_HCD_HC_GetXferCount>:
 80043dc:	232c      	movs	r3, #44	; 0x2c
 80043de:	fb03 0101 	mla	r1, r3, r1, r0
 80043e2:	6d08      	ldr	r0, [r1, #80]	; 0x50
 80043e4:	4770      	bx	lr

080043e6 <HAL_HCD_GetCurrentFrame>:
 80043e6:	6800      	ldr	r0, [r0, #0]
 80043e8:	f002 bbf7 	b.w	8006bda <USB_GetCurrentFrame>

080043ec <HAL_HCD_GetCurrentSpeed>:
 80043ec:	6800      	ldr	r0, [r0, #0]
 80043ee:	f002 bbe9 	b.w	8006bc4 <USB_GetHostSpeed>

080043f2 <I2C_IsAcknowledgeFailed>:
 80043f2:	6801      	ldr	r1, [r0, #0]
 80043f4:	694b      	ldr	r3, [r1, #20]
 80043f6:	f413 6380 	ands.w	r3, r3, #1024	; 0x400
 80043fa:	f04f 0200 	mov.w	r2, #0
 80043fe:	d010      	beq.n	8004422 <I2C_IsAcknowledgeFailed+0x30>
 8004400:	f46f 6380 	mvn.w	r3, #1024	; 0x400
 8004404:	614b      	str	r3, [r1, #20]
 8004406:	2320      	movs	r3, #32
 8004408:	6302      	str	r2, [r0, #48]	; 0x30
 800440a:	f880 303d 	strb.w	r3, [r0, #61]	; 0x3d
 800440e:	f880 203e 	strb.w	r2, [r0, #62]	; 0x3e
 8004412:	6c03      	ldr	r3, [r0, #64]	; 0x40
 8004414:	f880 203c 	strb.w	r2, [r0, #60]	; 0x3c
 8004418:	f043 0304 	orr.w	r3, r3, #4
 800441c:	6403      	str	r3, [r0, #64]	; 0x40
 800441e:	2001      	movs	r0, #1
 8004420:	4770      	bx	lr
 8004422:	4618      	mov	r0, r3
 8004424:	4770      	bx	lr

08004426 <I2C_WaitOnFlagUntilTimeout>:
 8004426:	e92d 46f8 	stmdb	sp!, {r3, r4, r5, r6, r7, r9, sl, lr}
 800442a:	4606      	mov	r6, r0
 800442c:	460f      	mov	r7, r1
 800442e:	4691      	mov	r9, r2
 8004430:	461d      	mov	r5, r3
 8004432:	ea4f 4a11 	mov.w	sl, r1, lsr #16
 8004436:	6833      	ldr	r3, [r6, #0]
 8004438:	f1ba 0f01 	cmp.w	sl, #1
 800443c:	bf0c      	ite	eq
 800443e:	695c      	ldreq	r4, [r3, #20]
 8004440:	699c      	ldrne	r4, [r3, #24]
 8004442:	ea27 0404 	bic.w	r4, r7, r4
 8004446:	b2a4      	uxth	r4, r4
 8004448:	fab4 f484 	clz	r4, r4
 800444c:	0964      	lsrs	r4, r4, #5
 800444e:	45a1      	cmp	r9, r4
 8004450:	d001      	beq.n	8004456 <I2C_WaitOnFlagUntilTimeout+0x30>
 8004452:	2000      	movs	r0, #0
 8004454:	e017      	b.n	8004486 <I2C_WaitOnFlagUntilTimeout+0x60>
 8004456:	1c6a      	adds	r2, r5, #1
 8004458:	d0ee      	beq.n	8004438 <I2C_WaitOnFlagUntilTimeout+0x12>
 800445a:	f7fe ff9f 	bl	800339c <HAL_GetTick>
 800445e:	9b08      	ldr	r3, [sp, #32]
 8004460:	1ac0      	subs	r0, r0, r3
 8004462:	42a8      	cmp	r0, r5
 8004464:	d801      	bhi.n	800446a <I2C_WaitOnFlagUntilTimeout+0x44>
 8004466:	2d00      	cmp	r5, #0
 8004468:	d1e5      	bne.n	8004436 <I2C_WaitOnFlagUntilTimeout+0x10>
 800446a:	2300      	movs	r3, #0
 800446c:	2220      	movs	r2, #32
 800446e:	6333      	str	r3, [r6, #48]	; 0x30
 8004470:	f886 203d 	strb.w	r2, [r6, #61]	; 0x3d
 8004474:	f886 303e 	strb.w	r3, [r6, #62]	; 0x3e
 8004478:	6c32      	ldr	r2, [r6, #64]	; 0x40
 800447a:	f886 303c 	strb.w	r3, [r6, #60]	; 0x3c
 800447e:	f042 0220 	orr.w	r2, r2, #32
 8004482:	6432      	str	r2, [r6, #64]	; 0x40
 8004484:	2001      	movs	r0, #1
 8004486:	e8bd 86f8 	ldmia.w	sp!, {r3, r4, r5, r6, r7, r9, sl, pc}

0800448a <I2C_WaitOnMasterAddressFlagUntilTimeout>:
 800448a:	e92d 41f0 	stmdb	sp!, {r4, r5, r6, r7, r8, lr}
 800448e:	4604      	mov	r4, r0
 8004490:	460f      	mov	r7, r1
 8004492:	4616      	mov	r6, r2
 8004494:	4698      	mov	r8, r3
 8004496:	6825      	ldr	r5, [r4, #0]
 8004498:	6968      	ldr	r0, [r5, #20]
 800449a:	ea27 0000 	bic.w	r0, r7, r0
 800449e:	b280      	uxth	r0, r0
 80044a0:	b1b8      	cbz	r0, 80044d2 <I2C_WaitOnMasterAddressFlagUntilTimeout+0x48>
 80044a2:	696b      	ldr	r3, [r5, #20]
 80044a4:	055a      	lsls	r2, r3, #21
 80044a6:	d516      	bpl.n	80044d6 <I2C_WaitOnMasterAddressFlagUntilTimeout+0x4c>
 80044a8:	682b      	ldr	r3, [r5, #0]
 80044aa:	f443 7300 	orr.w	r3, r3, #512	; 0x200
 80044ae:	602b      	str	r3, [r5, #0]
 80044b0:	f46f 6380 	mvn.w	r3, #1024	; 0x400
 80044b4:	616b      	str	r3, [r5, #20]
 80044b6:	2220      	movs	r2, #32
 80044b8:	2300      	movs	r3, #0
 80044ba:	6323      	str	r3, [r4, #48]	; 0x30
 80044bc:	f884 203d 	strb.w	r2, [r4, #61]	; 0x3d
 80044c0:	f884 303e 	strb.w	r3, [r4, #62]	; 0x3e
 80044c4:	6c22      	ldr	r2, [r4, #64]	; 0x40
 80044c6:	f042 0204 	orr.w	r2, r2, #4
 80044ca:	6422      	str	r2, [r4, #64]	; 0x40
 80044cc:	f884 303c 	strb.w	r3, [r4, #60]	; 0x3c
 80044d0:	2001      	movs	r0, #1
 80044d2:	e8bd 81f0 	ldmia.w	sp!, {r4, r5, r6, r7, r8, pc}
 80044d6:	1c73      	adds	r3, r6, #1
 80044d8:	d0de      	beq.n	8004498 <I2C_WaitOnMasterAddressFlagUntilTimeout+0xe>
 80044da:	f7fe ff5f 	bl	800339c <HAL_GetTick>
 80044de:	eba0 0008 	sub.w	r0, r0, r8
 80044e2:	42b0      	cmp	r0, r6
 80044e4:	d801      	bhi.n	80044ea <I2C_WaitOnMasterAddressFlagUntilTimeout+0x60>
 80044e6:	2e00      	cmp	r6, #0
 80044e8:	d1d5      	bne.n	8004496 <I2C_WaitOnMasterAddressFlagUntilTimeout+0xc>
 80044ea:	2300      	movs	r3, #0
 80044ec:	2220      	movs	r2, #32
 80044ee:	6323      	str	r3, [r4, #48]	; 0x30
 80044f0:	f884 203d 	strb.w	r2, [r4, #61]	; 0x3d
 80044f4:	f884 303e 	strb.w	r3, [r4, #62]	; 0x3e
 80044f8:	6c22      	ldr	r2, [r4, #64]	; 0x40
 80044fa:	f042 0220 	orr.w	r2, r2, #32
 80044fe:	e7e4      	b.n	80044ca <I2C_WaitOnMasterAddressFlagUntilTimeout+0x40>

08004500 <I2C_WaitOnRXNEFlagUntilTimeout>:
 8004500:	b570      	push	{r4, r5, r6, lr}
 8004502:	4604      	mov	r4, r0
 8004504:	460d      	mov	r5, r1
 8004506:	4616      	mov	r6, r2
 8004508:	6821      	ldr	r1, [r4, #0]
 800450a:	694b      	ldr	r3, [r1, #20]
 800450c:	f013 0340 	ands.w	r3, r3, #64	; 0x40
 8004510:	d001      	beq.n	8004516 <I2C_WaitOnRXNEFlagUntilTimeout+0x16>
 8004512:	2000      	movs	r0, #0
 8004514:	e010      	b.n	8004538 <I2C_WaitOnRXNEFlagUntilTimeout+0x38>
 8004516:	694a      	ldr	r2, [r1, #20]
 8004518:	06d2      	lsls	r2, r2, #27
 800451a:	d50e      	bpl.n	800453a <I2C_WaitOnRXNEFlagUntilTimeout+0x3a>
 800451c:	f06f 0210 	mvn.w	r2, #16
 8004520:	614a      	str	r2, [r1, #20]
 8004522:	2220      	movs	r2, #32
 8004524:	6323      	str	r3, [r4, #48]	; 0x30
 8004526:	f884 203d 	strb.w	r2, [r4, #61]	; 0x3d
 800452a:	f884 303e 	strb.w	r3, [r4, #62]	; 0x3e
 800452e:	6c22      	ldr	r2, [r4, #64]	; 0x40
 8004530:	6422      	str	r2, [r4, #64]	; 0x40
 8004532:	f884 303c 	strb.w	r3, [r4, #60]	; 0x3c
 8004536:	2001      	movs	r0, #1
 8004538:	bd70      	pop	{r4, r5, r6, pc}
 800453a:	f7fe ff2f 	bl	800339c <HAL_GetTick>
 800453e:	1b80      	subs	r0, r0, r6
 8004540:	42a8      	cmp	r0, r5
 8004542:	d801      	bhi.n	8004548 <I2C_WaitOnRXNEFlagUntilTimeout+0x48>
 8004544:	2d00      	cmp	r5, #0
 8004546:	d1df      	bne.n	8004508 <I2C_WaitOnRXNEFlagUntilTimeout+0x8>
 8004548:	2300      	movs	r3, #0
 800454a:	2220      	movs	r2, #32
 800454c:	6323      	str	r3, [r4, #48]	; 0x30
 800454e:	f884 203d 	strb.w	r2, [r4, #61]	; 0x3d
 8004552:	f884 303e 	strb.w	r3, [r4, #62]	; 0x3e
 8004556:	6c22      	ldr	r2, [r4, #64]	; 0x40
 8004558:	f042 0220 	orr.w	r2, r2, #32
 800455c:	e7e8      	b.n	8004530 <I2C_WaitOnRXNEFlagUntilTimeout+0x30>

0800455e <I2C_WaitOnBTFFlagUntilTimeout>:
 800455e:	b570      	push	{r4, r5, r6, lr}
 8004560:	4604      	mov	r4, r0
 8004562:	460d      	mov	r5, r1
 8004564:	4616      	mov	r6, r2
 8004566:	6823      	ldr	r3, [r4, #0]
 8004568:	695b      	ldr	r3, [r3, #20]
 800456a:	075b      	lsls	r3, r3, #29
 800456c:	d501      	bpl.n	8004572 <I2C_WaitOnBTFFlagUntilTimeout+0x14>
 800456e:	2000      	movs	r0, #0
 8004570:	bd70      	pop	{r4, r5, r6, pc}
 8004572:	4620      	mov	r0, r4
 8004574:	f7ff ff3d 	bl	80043f2 <I2C_IsAcknowledgeFailed>
 8004578:	b9a8      	cbnz	r0, 80045a6 <I2C_WaitOnBTFFlagUntilTimeout+0x48>
 800457a:	1c6a      	adds	r2, r5, #1
 800457c:	d0f3      	beq.n	8004566 <I2C_WaitOnBTFFlagUntilTimeout+0x8>
 800457e:	f7fe ff0d 	bl	800339c <HAL_GetTick>
 8004582:	1b80      	subs	r0, r0, r6
 8004584:	42a8      	cmp	r0, r5
 8004586:	d801      	bhi.n	800458c <I2C_WaitOnBTFFlagUntilTimeout+0x2e>
 8004588:	2d00      	cmp	r5, #0
 800458a:	d1ec      	bne.n	8004566 <I2C_WaitOnBTFFlagUntilTimeout+0x8>
 800458c:	2300      	movs	r3, #0
 800458e:	2220      	movs	r2, #32
 8004590:	6323      	str	r3, [r4, #48]	; 0x30
 8004592:	f884 203d 	strb.w	r2, [r4, #61]	; 0x3d
 8004596:	f884 303e 	strb.w	r3, [r4, #62]	; 0x3e
 800459a:	6c22      	ldr	r2, [r4, #64]	; 0x40
 800459c:	f884 303c 	strb.w	r3, [r4, #60]	; 0x3c
 80045a0:	f042 0220 	orr.w	r2, r2, #32
 80045a4:	6422      	str	r2, [r4, #64]	; 0x40
 80045a6:	2001      	movs	r0, #1
 80045a8:	e7e2      	b.n	8004570 <I2C_WaitOnBTFFlagUntilTimeout+0x12>

080045aa <I2C_WaitOnTXEFlagUntilTimeout>:
 80045aa:	b570      	push	{r4, r5, r6, lr}
 80045ac:	4604      	mov	r4, r0
 80045ae:	460d      	mov	r5, r1
 80045b0:	4616      	mov	r6, r2
 80045b2:	6823      	ldr	r3, [r4, #0]
 80045b4:	695b      	ldr	r3, [r3, #20]
 80045b6:	061b      	lsls	r3, r3, #24
 80045b8:	d501      	bpl.n	80045be <I2C_WaitOnTXEFlagUntilTimeout+0x14>
 80045ba:	2000      	movs	r0, #0
 80045bc:	bd70      	pop	{r4, r5, r6, pc}
 80045be:	4620      	mov	r0, r4
 80045c0:	f7ff ff17 	bl	80043f2 <I2C_IsAcknowledgeFailed>
 80045c4:	b9a8      	cbnz	r0, 80045f2 <I2C_WaitOnTXEFlagUntilTimeout+0x48>
 80045c6:	1c6a      	adds	r2, r5, #1
 80045c8:	d0f3      	beq.n	80045b2 <I2C_WaitOnTXEFlagUntilTimeout+0x8>
 80045ca:	f7fe fee7 	bl	800339c <HAL_GetTick>
 80045ce:	1b80      	subs	r0, r0, r6
 80045d0:	42a8      	cmp	r0, r5
 80045d2:	d801      	bhi.n	80045d8 <I2C_WaitOnTXEFlagUntilTimeout+0x2e>
 80045d4:	2d00      	cmp	r5, #0
 80045d6:	d1ec      	bne.n	80045b2 <I2C_WaitOnTXEFlagUntilTimeout+0x8>
 80045d8:	2300      	movs	r3, #0
 80045da:	2220      	movs	r2, #32
 80045dc:	6323      	str	r3, [r4, #48]	; 0x30
 80045de:	f884 203d 	strb.w	r2, [r4, #61]	; 0x3d
 80045e2:	f884 303e 	strb.w	r3, [r4, #62]	; 0x3e
 80045e6:	6c22      	ldr	r2, [r4, #64]	; 0x40
 80045e8:	f884 303c 	strb.w	r3, [r4, #60]	; 0x3c
 80045ec:	f042 0220 	orr.w	r2, r2, #32
 80045f0:	6422      	str	r2, [r4, #64]	; 0x40
 80045f2:	2001      	movs	r0, #1
 80045f4:	e7e2      	b.n	80045bc <I2C_WaitOnTXEFlagUntilTimeout+0x12>
	...

080045f8 <I2C_RequestMemoryWrite>:
 80045f8:	e92d 43f0 	stmdb	sp!, {r4, r5, r6, r7, r8, r9, lr}
 80045fc:	4615      	mov	r5, r2
 80045fe:	6802      	ldr	r2, [r0, #0]
 8004600:	b085      	sub	sp, #20
 8004602:	e9dd 780c 	ldrd	r7, r8, [sp, #48]	; 0x30
 8004606:	4699      	mov	r9, r3
 8004608:	6813      	ldr	r3, [r2, #0]
 800460a:	f443 7380 	orr.w	r3, r3, #256	; 0x100
 800460e:	6013      	str	r3, [r2, #0]
 8004610:	460e      	mov	r6, r1
 8004612:	463b      	mov	r3, r7
 8004614:	f8cd 8000 	str.w	r8, [sp]
 8004618:	2200      	movs	r2, #0
 800461a:	f04f 1101 	mov.w	r1, #65537	; 0x10001
 800461e:	4604      	mov	r4, r0
 8004620:	f7ff ff01 	bl	8004426 <I2C_WaitOnFlagUntilTimeout>
 8004624:	6823      	ldr	r3, [r4, #0]
 8004626:	b138      	cbz	r0, 8004638 <I2C_RequestMemoryWrite+0x40>
 8004628:	681b      	ldr	r3, [r3, #0]
 800462a:	05db      	lsls	r3, r3, #23
 800462c:	d502      	bpl.n	8004634 <I2C_RequestMemoryWrite+0x3c>
 800462e:	f44f 7300 	mov.w	r3, #512	; 0x200
 8004632:	6423      	str	r3, [r4, #64]	; 0x40
 8004634:	2003      	movs	r0, #3
 8004636:	e00a      	b.n	800464e <I2C_RequestMemoryWrite+0x56>
 8004638:	f006 06fe 	and.w	r6, r6, #254	; 0xfe
 800463c:	611e      	str	r6, [r3, #16]
 800463e:	4919      	ldr	r1, [pc, #100]	; (80046a4 <I2C_RequestMemoryWrite+0xac>)
 8004640:	4643      	mov	r3, r8
 8004642:	463a      	mov	r2, r7
 8004644:	4620      	mov	r0, r4
 8004646:	f7ff ff20 	bl	800448a <I2C_WaitOnMasterAddressFlagUntilTimeout>
 800464a:	b118      	cbz	r0, 8004654 <I2C_RequestMemoryWrite+0x5c>
 800464c:	2001      	movs	r0, #1
 800464e:	b005      	add	sp, #20
 8004650:	e8bd 83f0 	ldmia.w	sp!, {r4, r5, r6, r7, r8, r9, pc}
 8004654:	6823      	ldr	r3, [r4, #0]
 8004656:	9003      	str	r0, [sp, #12]
 8004658:	695a      	ldr	r2, [r3, #20]
 800465a:	9203      	str	r2, [sp, #12]
 800465c:	699b      	ldr	r3, [r3, #24]
 800465e:	9303      	str	r3, [sp, #12]
 8004660:	4642      	mov	r2, r8
 8004662:	4639      	mov	r1, r7
 8004664:	4620      	mov	r0, r4
 8004666:	9b03      	ldr	r3, [sp, #12]
 8004668:	f7ff ff9f 	bl	80045aa <I2C_WaitOnTXEFlagUntilTimeout>
 800466c:	b140      	cbz	r0, 8004680 <I2C_RequestMemoryWrite+0x88>
 800466e:	6c23      	ldr	r3, [r4, #64]	; 0x40
 8004670:	2b04      	cmp	r3, #4
 8004672:	bf01      	itttt	eq
 8004674:	6822      	ldreq	r2, [r4, #0]
 8004676:	6813      	ldreq	r3, [r2, #0]
 8004678:	f443 7300 	orreq.w	r3, r3, #512	; 0x200
 800467c:	6013      	streq	r3, [r2, #0]
 800467e:	e7e5      	b.n	800464c <I2C_RequestMemoryWrite+0x54>
 8004680:	f1b9 0f01 	cmp.w	r9, #1
 8004684:	6823      	ldr	r3, [r4, #0]
 8004686:	d102      	bne.n	800468e <I2C_RequestMemoryWrite+0x96>
 8004688:	b2ed      	uxtb	r5, r5
 800468a:	611d      	str	r5, [r3, #16]
 800468c:	e7df      	b.n	800464e <I2C_RequestMemoryWrite+0x56>
 800468e:	0a2a      	lsrs	r2, r5, #8
 8004690:	611a      	str	r2, [r3, #16]
 8004692:	4639      	mov	r1, r7
 8004694:	4642      	mov	r2, r8
 8004696:	4620      	mov	r0, r4
 8004698:	f7ff ff87 	bl	80045aa <I2C_WaitOnTXEFlagUntilTimeout>
 800469c:	2800      	cmp	r0, #0
 800469e:	d1e6      	bne.n	800466e <I2C_RequestMemoryWrite+0x76>
 80046a0:	6823      	ldr	r3, [r4, #0]
 80046a2:	e7f1      	b.n	8004688 <I2C_RequestMemoryWrite+0x90>
 80046a4:	00010002 	.word	0x00010002

080046a8 <I2C_RequestMemoryRead>:
 80046a8:	e92d 47ff 	stmdb	sp!, {r0, r1, r2, r3, r4, r5, r6, r7, r8, r9, sl, lr}
 80046ac:	469a      	mov	sl, r3
 80046ae:	6803      	ldr	r3, [r0, #0]
 80046b0:	4615      	mov	r5, r2
 80046b2:	681a      	ldr	r2, [r3, #0]
 80046b4:	f442 6280 	orr.w	r2, r2, #1024	; 0x400
 80046b8:	601a      	str	r2, [r3, #0]
 80046ba:	681a      	ldr	r2, [r3, #0]
 80046bc:	e9dd 780c 	ldrd	r7, r8, [sp, #48]	; 0x30
 80046c0:	f442 7280 	orr.w	r2, r2, #256	; 0x100
 80046c4:	601a      	str	r2, [r3, #0]
 80046c6:	460e      	mov	r6, r1
 80046c8:	463b      	mov	r3, r7
 80046ca:	f8cd 8000 	str.w	r8, [sp]
 80046ce:	2200      	movs	r2, #0
 80046d0:	f04f 1101 	mov.w	r1, #65537	; 0x10001
 80046d4:	4604      	mov	r4, r0
 80046d6:	f7ff fea6 	bl	8004426 <I2C_WaitOnFlagUntilTimeout>
 80046da:	6823      	ldr	r3, [r4, #0]
 80046dc:	b148      	cbz	r0, 80046f2 <I2C_RequestMemoryRead+0x4a>
 80046de:	681b      	ldr	r3, [r3, #0]
 80046e0:	05db      	lsls	r3, r3, #23
 80046e2:	d502      	bpl.n	80046ea <I2C_RequestMemoryRead+0x42>
 80046e4:	f44f 7300 	mov.w	r3, #512	; 0x200
 80046e8:	6423      	str	r3, [r4, #64]	; 0x40
 80046ea:	2003      	movs	r0, #3
 80046ec:	b004      	add	sp, #16
 80046ee:	e8bd 87f0 	ldmia.w	sp!, {r4, r5, r6, r7, r8, r9, sl, pc}
 80046f2:	fa5f f986 	uxtb.w	r9, r6
 80046f6:	f006 06fe 	and.w	r6, r6, #254	; 0xfe
 80046fa:	611e      	str	r6, [r3, #16]
 80046fc:	492a      	ldr	r1, [pc, #168]	; (80047a8 <I2C_RequestMemoryRead+0x100>)
 80046fe:	4643      	mov	r3, r8
 8004700:	463a      	mov	r2, r7
 8004702:	4620      	mov	r0, r4
 8004704:	f7ff fec1 	bl	800448a <I2C_WaitOnMasterAddressFlagUntilTimeout>
 8004708:	b108      	cbz	r0, 800470e <I2C_RequestMemoryRead+0x66>
 800470a:	2001      	movs	r0, #1
 800470c:	e7ee      	b.n	80046ec <I2C_RequestMemoryRead+0x44>
 800470e:	6823      	ldr	r3, [r4, #0]
 8004710:	9003      	str	r0, [sp, #12]
 8004712:	695a      	ldr	r2, [r3, #20]
 8004714:	9203      	str	r2, [sp, #12]
 8004716:	699b      	ldr	r3, [r3, #24]
 8004718:	9303      	str	r3, [sp, #12]
 800471a:	4642      	mov	r2, r8
 800471c:	4639      	mov	r1, r7
 800471e:	4620      	mov	r0, r4
 8004720:	9b03      	ldr	r3, [sp, #12]
 8004722:	f7ff ff42 	bl	80045aa <I2C_WaitOnTXEFlagUntilTimeout>
 8004726:	b140      	cbz	r0, 800473a <I2C_RequestMemoryRead+0x92>
 8004728:	6c23      	ldr	r3, [r4, #64]	; 0x40
 800472a:	2b04      	cmp	r3, #4
 800472c:	bf01      	itttt	eq
 800472e:	6822      	ldreq	r2, [r4, #0]
 8004730:	6813      	ldreq	r3, [r2, #0]
 8004732:	f443 7300 	orreq.w	r3, r3, #512	; 0x200
 8004736:	6013      	streq	r3, [r2, #0]
 8004738:	e7e7      	b.n	800470a <I2C_RequestMemoryRead+0x62>
 800473a:	f1ba 0f01 	cmp.w	sl, #1
 800473e:	6823      	ldr	r3, [r4, #0]
 8004740:	d11a      	bne.n	8004778 <I2C_RequestMemoryRead+0xd0>
 8004742:	b2ed      	uxtb	r5, r5
 8004744:	611d      	str	r5, [r3, #16]
 8004746:	4642      	mov	r2, r8
 8004748:	4639      	mov	r1, r7
 800474a:	4620      	mov	r0, r4
 800474c:	f7ff ff2d 	bl	80045aa <I2C_WaitOnTXEFlagUntilTimeout>
 8004750:	2800      	cmp	r0, #0
 8004752:	d1e9      	bne.n	8004728 <I2C_RequestMemoryRead+0x80>
 8004754:	6822      	ldr	r2, [r4, #0]
 8004756:	6813      	ldr	r3, [r2, #0]
 8004758:	f443 7380 	orr.w	r3, r3, #256	; 0x100
 800475c:	6013      	str	r3, [r2, #0]
 800475e:	f04f 1101 	mov.w	r1, #65537	; 0x10001
 8004762:	4602      	mov	r2, r0
 8004764:	f8cd 8000 	str.w	r8, [sp]
 8004768:	463b      	mov	r3, r7
 800476a:	4620      	mov	r0, r4
 800476c:	f7ff fe5b 	bl	8004426 <I2C_WaitOnFlagUntilTimeout>
 8004770:	6822      	ldr	r2, [r4, #0]
 8004772:	b160      	cbz	r0, 800478e <I2C_RequestMemoryRead+0xe6>
 8004774:	6813      	ldr	r3, [r2, #0]
 8004776:	e7b3      	b.n	80046e0 <I2C_RequestMemoryRead+0x38>
 8004778:	0a2a      	lsrs	r2, r5, #8
 800477a:	611a      	str	r2, [r3, #16]
 800477c:	4639      	mov	r1, r7
 800477e:	4642      	mov	r2, r8
 8004780:	4620      	mov	r0, r4
 8004782:	f7ff ff12 	bl	80045aa <I2C_WaitOnTXEFlagUntilTimeout>
 8004786:	2800      	cmp	r0, #0
 8004788:	d1ce      	bne.n	8004728 <I2C_RequestMemoryRead+0x80>
 800478a:	6823      	ldr	r3, [r4, #0]
 800478c:	e7d9      	b.n	8004742 <I2C_RequestMemoryRead+0x9a>
 800478e:	f049 0301 	orr.w	r3, r9, #1
 8004792:	6113      	str	r3, [r2, #16]
 8004794:	4904      	ldr	r1, [pc, #16]	; (80047a8 <I2C_RequestMemoryRead+0x100>)
 8004796:	4643      	mov	r3, r8
 8004798:	463a      	mov	r2, r7
 800479a:	4620      	mov	r0, r4
 800479c:	f7ff fe75 	bl	800448a <I2C_WaitOnMasterAddressFlagUntilTimeout>
 80047a0:	3800      	subs	r0, #0
 80047a2:	bf18      	it	ne
 80047a4:	2001      	movne	r0, #1
 80047a6:	e7a1      	b.n	80046ec <I2C_RequestMemoryRead+0x44>
 80047a8:	00010002 	.word	0x00010002

080047ac <HAL_I2C_Init>:
 80047ac:	b570      	push	{r4, r5, r6, lr}
 80047ae:	4604      	mov	r4, r0
 80047b0:	b908      	cbnz	r0, 80047b6 <HAL_I2C_Init+0xa>
 80047b2:	2001      	movs	r0, #1
 80047b4:	bd70      	pop	{r4, r5, r6, pc}
 80047b6:	f890 303d 	ldrb.w	r3, [r0, #61]	; 0x3d
 80047ba:	f003 02ff 	and.w	r2, r3, #255	; 0xff
 80047be:	b91b      	cbnz	r3, 80047c8 <HAL_I2C_Init+0x1c>
 80047c0:	f880 203c 	strb.w	r2, [r0, #60]	; 0x3c
 80047c4:	f7fc fe36 	bl	8001434 <HAL_I2C_MspInit>
 80047c8:	2324      	movs	r3, #36	; 0x24
 80047ca:	f884 303d 	strb.w	r3, [r4, #61]	; 0x3d
 80047ce:	6823      	ldr	r3, [r4, #0]
 80047d0:	681a      	ldr	r2, [r3, #0]
 80047d2:	f022 0201 	bic.w	r2, r2, #1
 80047d6:	601a      	str	r2, [r3, #0]
 80047d8:	681a      	ldr	r2, [r3, #0]
 80047da:	f442 4200 	orr.w	r2, r2, #32768	; 0x8000
 80047de:	601a      	str	r2, [r3, #0]
 80047e0:	681a      	ldr	r2, [r3, #0]
 80047e2:	f422 4200 	bic.w	r2, r2, #32768	; 0x8000
 80047e6:	601a      	str	r2, [r3, #0]
 80047e8:	f001 f802 	bl	80057f0 <HAL_RCC_GetPCLK1Freq>
 80047ec:	4b3f      	ldr	r3, [pc, #252]	; (80048ec <HAL_I2C_Init+0x140>)
 80047ee:	6865      	ldr	r5, [r4, #4]
 80047f0:	429d      	cmp	r5, r3
 80047f2:	bf94      	ite	ls
 80047f4:	4b3e      	ldrls	r3, [pc, #248]	; (80048f0 <HAL_I2C_Init+0x144>)
 80047f6:	4b3f      	ldrhi	r3, [pc, #252]	; (80048f4 <HAL_I2C_Init+0x148>)
 80047f8:	4298      	cmp	r0, r3
 80047fa:	bf8c      	ite	hi
 80047fc:	2300      	movhi	r3, #0
 80047fe:	2301      	movls	r3, #1
 8004800:	2b00      	cmp	r3, #0
 8004802:	d1d6      	bne.n	80047b2 <HAL_I2C_Init+0x6>
 8004804:	6822      	ldr	r2, [r4, #0]
 8004806:	4e39      	ldr	r6, [pc, #228]	; (80048ec <HAL_I2C_Init+0x140>)
 8004808:	6853      	ldr	r3, [r2, #4]
 800480a:	493b      	ldr	r1, [pc, #236]	; (80048f8 <HAL_I2C_Init+0x14c>)
 800480c:	fbb0 f1f1 	udiv	r1, r0, r1
 8004810:	f023 033f 	bic.w	r3, r3, #63	; 0x3f
 8004814:	430b      	orrs	r3, r1
 8004816:	42b5      	cmp	r5, r6
 8004818:	6053      	str	r3, [r2, #4]
 800481a:	bf88      	it	hi
 800481c:	f44f 7696 	movhi.w	r6, #300	; 0x12c
 8004820:	6a13      	ldr	r3, [r2, #32]
 8004822:	bf88      	it	hi
 8004824:	4371      	mulhi	r1, r6
 8004826:	f023 033f 	bic.w	r3, r3, #63	; 0x3f
 800482a:	bf84      	itt	hi
 800482c:	f44f 767a 	movhi.w	r6, #1000	; 0x3e8
 8004830:	fbb1 f1f6 	udivhi	r1, r1, r6
 8004834:	3101      	adds	r1, #1
 8004836:	4319      	orrs	r1, r3
 8004838:	6211      	str	r1, [r2, #32]
 800483a:	69d1      	ldr	r1, [r2, #28]
 800483c:	1e43      	subs	r3, r0, #1
 800483e:	482b      	ldr	r0, [pc, #172]	; (80048ec <HAL_I2C_Init+0x140>)
 8004840:	f421 414f 	bic.w	r1, r1, #52992	; 0xcf00
 8004844:	4285      	cmp	r5, r0
 8004846:	f021 01ff 	bic.w	r1, r1, #255	; 0xff
 800484a:	d832      	bhi.n	80048b2 <HAL_I2C_Init+0x106>
 800484c:	006d      	lsls	r5, r5, #1
 800484e:	f640 70fc 	movw	r0, #4092	; 0xffc
 8004852:	fbb3 f3f5 	udiv	r3, r3, r5
 8004856:	3301      	adds	r3, #1
 8004858:	4203      	tst	r3, r0
 800485a:	d042      	beq.n	80048e2 <HAL_I2C_Init+0x136>
 800485c:	f3c3 030b 	ubfx	r3, r3, #0, #12
 8004860:	430b      	orrs	r3, r1
 8004862:	61d3      	str	r3, [r2, #28]
 8004864:	e9d4 3007 	ldrd	r3, r0, [r4, #28]
 8004868:	6811      	ldr	r1, [r2, #0]
 800486a:	4303      	orrs	r3, r0
 800486c:	f021 01c0 	bic.w	r1, r1, #192	; 0xc0
 8004870:	430b      	orrs	r3, r1
 8004872:	6013      	str	r3, [r2, #0]
 8004874:	6891      	ldr	r1, [r2, #8]
 8004876:	e9d4 0303 	ldrd	r0, r3, [r4, #12]
 800487a:	f421 4103 	bic.w	r1, r1, #33536	; 0x8300
 800487e:	4303      	orrs	r3, r0
 8004880:	f021 01ff 	bic.w	r1, r1, #255	; 0xff
 8004884:	430b      	orrs	r3, r1
 8004886:	6093      	str	r3, [r2, #8]
 8004888:	e9d4 3005 	ldrd	r3, r0, [r4, #20]
 800488c:	68d1      	ldr	r1, [r2, #12]
 800488e:	4303      	orrs	r3, r0
 8004890:	f021 01ff 	bic.w	r1, r1, #255	; 0xff
 8004894:	430b      	orrs	r3, r1
 8004896:	60d3      	str	r3, [r2, #12]
 8004898:	6813      	ldr	r3, [r2, #0]
 800489a:	f043 0301 	orr.w	r3, r3, #1
 800489e:	6013      	str	r3, [r2, #0]
 80048a0:	2000      	movs	r0, #0
 80048a2:	2320      	movs	r3, #32
 80048a4:	6420      	str	r0, [r4, #64]	; 0x40
 80048a6:	f884 303d 	strb.w	r3, [r4, #61]	; 0x3d
 80048aa:	6320      	str	r0, [r4, #48]	; 0x30
 80048ac:	f884 003e 	strb.w	r0, [r4, #62]	; 0x3e
 80048b0:	e780      	b.n	80047b4 <HAL_I2C_Init+0x8>
 80048b2:	68a0      	ldr	r0, [r4, #8]
 80048b4:	b950      	cbnz	r0, 80048cc <HAL_I2C_Init+0x120>
 80048b6:	eb05 0545 	add.w	r5, r5, r5, lsl #1
 80048ba:	fbb3 f3f5 	udiv	r3, r3, r5
 80048be:	3301      	adds	r3, #1
 80048c0:	f3c3 030b 	ubfx	r3, r3, #0, #12
 80048c4:	b17b      	cbz	r3, 80048e6 <HAL_I2C_Init+0x13a>
 80048c6:	f443 4300 	orr.w	r3, r3, #32768	; 0x8000
 80048ca:	e7c9      	b.n	8004860 <HAL_I2C_Init+0xb4>
 80048cc:	2019      	movs	r0, #25
 80048ce:	4345      	muls	r5, r0
 80048d0:	fbb3 f3f5 	udiv	r3, r3, r5
 80048d4:	3301      	adds	r3, #1
 80048d6:	f3c3 030b 	ubfx	r3, r3, #0, #12
 80048da:	b123      	cbz	r3, 80048e6 <HAL_I2C_Init+0x13a>
 80048dc:	f443 4340 	orr.w	r3, r3, #49152	; 0xc000
 80048e0:	e7be      	b.n	8004860 <HAL_I2C_Init+0xb4>
 80048e2:	2304      	movs	r3, #4
 80048e4:	e7bc      	b.n	8004860 <HAL_I2C_Init+0xb4>
 80048e6:	2301      	movs	r3, #1
 80048e8:	e7ba      	b.n	8004860 <HAL_I2C_Init+0xb4>
 80048ea:	bf00      	nop
 80048ec:	000186a0 	.word	0x000186a0
 80048f0:	001e847f 	.word	0x001e847f
 80048f4:	003d08ff 	.word	0x003d08ff
 80048f8:	000f4240 	.word	0x000f4240

080048fc <HAL_I2C_DeInit>:
 80048fc:	b510      	push	{r4, lr}
 80048fe:	4604      	mov	r4, r0
 8004900:	b198      	cbz	r0, 800492a <HAL_I2C_DeInit+0x2e>
 8004902:	6802      	ldr	r2, [r0, #0]
 8004904:	2324      	movs	r3, #36	; 0x24
 8004906:	f880 303d 	strb.w	r3, [r0, #61]	; 0x3d
 800490a:	6813      	ldr	r3, [r2, #0]
 800490c:	f023 0301 	bic.w	r3, r3, #1
 8004910:	6013      	str	r3, [r2, #0]
 8004912:	f7fc fdc7 	bl	80014a4 <HAL_I2C_MspDeInit>
 8004916:	2000      	movs	r0, #0
 8004918:	6420      	str	r0, [r4, #64]	; 0x40
 800491a:	f884 003c 	strb.w	r0, [r4, #60]	; 0x3c
 800491e:	f884 003d 	strb.w	r0, [r4, #61]	; 0x3d
 8004922:	6320      	str	r0, [r4, #48]	; 0x30
 8004924:	f884 003e 	strb.w	r0, [r4, #62]	; 0x3e
 8004928:	bd10      	pop	{r4, pc}
 800492a:	2001      	movs	r0, #1
 800492c:	e7fc      	b.n	8004928 <HAL_I2C_DeInit+0x2c>
	...

08004930 <HAL_I2C_Mem_Write>:
 8004930:	e92d 43f7 	stmdb	sp!, {r0, r1, r2, r4, r5, r6, r7, r8, r9, lr}
 8004934:	4604      	mov	r4, r0
 8004936:	4699      	mov	r9, r3
 8004938:	9e0c      	ldr	r6, [sp, #48]	; 0x30
 800493a:	460f      	mov	r7, r1
 800493c:	4690      	mov	r8, r2
 800493e:	f7fe fd2d 	bl	800339c <HAL_GetTick>
 8004942:	f894 303d 	ldrb.w	r3, [r4, #61]	; 0x3d
 8004946:	2b20      	cmp	r3, #32
 8004948:	4605      	mov	r5, r0
 800494a:	d003      	beq.n	8004954 <HAL_I2C_Mem_Write+0x24>
 800494c:	2002      	movs	r0, #2
 800494e:	b003      	add	sp, #12
 8004950:	e8bd 83f0 	ldmia.w	sp!, {r4, r5, r6, r7, r8, r9, pc}
 8004954:	9000      	str	r0, [sp, #0]
 8004956:	493c      	ldr	r1, [pc, #240]	; (8004a48 <HAL_I2C_Mem_Write+0x118>)
 8004958:	2319      	movs	r3, #25
 800495a:	2201      	movs	r2, #1
 800495c:	4620      	mov	r0, r4
 800495e:	f7ff fd62 	bl	8004426 <I2C_WaitOnFlagUntilTimeout>
 8004962:	2800      	cmp	r0, #0
 8004964:	d1f2      	bne.n	800494c <HAL_I2C_Mem_Write+0x1c>
 8004966:	f894 303c 	ldrb.w	r3, [r4, #60]	; 0x3c
 800496a:	2b01      	cmp	r3, #1
 800496c:	d0ee      	beq.n	800494c <HAL_I2C_Mem_Write+0x1c>
 800496e:	6820      	ldr	r0, [r4, #0]
 8004970:	2301      	movs	r3, #1
 8004972:	f884 303c 	strb.w	r3, [r4, #60]	; 0x3c
 8004976:	6803      	ldr	r3, [r0, #0]
 8004978:	07d9      	lsls	r1, r3, #31
 800497a:	bf5e      	ittt	pl
 800497c:	6803      	ldrpl	r3, [r0, #0]
 800497e:	f043 0301 	orrpl.w	r3, r3, #1
 8004982:	6003      	strpl	r3, [r0, #0]
 8004984:	6803      	ldr	r3, [r0, #0]
 8004986:	f423 6300 	bic.w	r3, r3, #2048	; 0x800
 800498a:	6003      	str	r3, [r0, #0]
 800498c:	2321      	movs	r3, #33	; 0x21
 800498e:	f884 303d 	strb.w	r3, [r4, #61]	; 0x3d
 8004992:	2340      	movs	r3, #64	; 0x40
 8004994:	f884 303e 	strb.w	r3, [r4, #62]	; 0x3e
 8004998:	2300      	movs	r3, #0
 800499a:	6423      	str	r3, [r4, #64]	; 0x40
 800499c:	9b0a      	ldr	r3, [sp, #40]	; 0x28
 800499e:	6263      	str	r3, [r4, #36]	; 0x24
 80049a0:	f8bd 302c 	ldrh.w	r3, [sp, #44]	; 0x2c
 80049a4:	8563      	strh	r3, [r4, #42]	; 0x2a
 80049a6:	8d63      	ldrh	r3, [r4, #42]	; 0x2a
 80049a8:	8523      	strh	r3, [r4, #40]	; 0x28
 80049aa:	4b28      	ldr	r3, [pc, #160]	; (8004a4c <HAL_I2C_Mem_Write+0x11c>)
 80049ac:	62e3      	str	r3, [r4, #44]	; 0x2c
 80049ae:	e9cd 6500 	strd	r6, r5, [sp]
 80049b2:	464b      	mov	r3, r9
 80049b4:	4642      	mov	r2, r8
 80049b6:	4639      	mov	r1, r7
 80049b8:	4620      	mov	r0, r4
 80049ba:	f7ff fe1d 	bl	80045f8 <I2C_RequestMemoryWrite>
 80049be:	2800      	cmp	r0, #0
 80049c0:	d02a      	beq.n	8004a18 <HAL_I2C_Mem_Write+0xe8>
 80049c2:	2001      	movs	r0, #1
 80049c4:	e7c3      	b.n	800494e <HAL_I2C_Mem_Write+0x1e>
 80049c6:	f7ff fdf0 	bl	80045aa <I2C_WaitOnTXEFlagUntilTimeout>
 80049ca:	b140      	cbz	r0, 80049de <HAL_I2C_Mem_Write+0xae>
 80049cc:	6c23      	ldr	r3, [r4, #64]	; 0x40
 80049ce:	2b04      	cmp	r3, #4
 80049d0:	bf01      	itttt	eq
 80049d2:	6822      	ldreq	r2, [r4, #0]
 80049d4:	6813      	ldreq	r3, [r2, #0]
 80049d6:	f443 7300 	orreq.w	r3, r3, #512	; 0x200
 80049da:	6013      	streq	r3, [r2, #0]
 80049dc:	e7f1      	b.n	80049c2 <HAL_I2C_Mem_Write+0x92>
 80049de:	6a63      	ldr	r3, [r4, #36]	; 0x24
 80049e0:	6827      	ldr	r7, [r4, #0]
 80049e2:	461a      	mov	r2, r3
 80049e4:	f812 1b01 	ldrb.w	r1, [r2], #1
 80049e8:	6139      	str	r1, [r7, #16]
 80049ea:	6262      	str	r2, [r4, #36]	; 0x24
 80049ec:	8d62      	ldrh	r2, [r4, #42]	; 0x2a
 80049ee:	8d21      	ldrh	r1, [r4, #40]	; 0x28
 80049f0:	3a01      	subs	r2, #1
 80049f2:	b292      	uxth	r2, r2
 80049f4:	8562      	strh	r2, [r4, #42]	; 0x2a
 80049f6:	697a      	ldr	r2, [r7, #20]
 80049f8:	1e48      	subs	r0, r1, #1
 80049fa:	b280      	uxth	r0, r0
 80049fc:	0752      	lsls	r2, r2, #29
 80049fe:	8520      	strh	r0, [r4, #40]	; 0x28
 8004a00:	d50a      	bpl.n	8004a18 <HAL_I2C_Mem_Write+0xe8>
 8004a02:	b148      	cbz	r0, 8004a18 <HAL_I2C_Mem_Write+0xe8>
 8004a04:	785a      	ldrb	r2, [r3, #1]
 8004a06:	613a      	str	r2, [r7, #16]
 8004a08:	3302      	adds	r3, #2
 8004a0a:	6263      	str	r3, [r4, #36]	; 0x24
 8004a0c:	8d63      	ldrh	r3, [r4, #42]	; 0x2a
 8004a0e:	3b01      	subs	r3, #1
 8004a10:	3902      	subs	r1, #2
 8004a12:	b29b      	uxth	r3, r3
 8004a14:	8521      	strh	r1, [r4, #40]	; 0x28
 8004a16:	8563      	strh	r3, [r4, #42]	; 0x2a
 8004a18:	8d23      	ldrh	r3, [r4, #40]	; 0x28
 8004a1a:	462a      	mov	r2, r5
 8004a1c:	4631      	mov	r1, r6
 8004a1e:	4620      	mov	r0, r4
 8004a20:	2b00      	cmp	r3, #0
 8004a22:	d1d0      	bne.n	80049c6 <HAL_I2C_Mem_Write+0x96>
 8004a24:	f7ff fd9b 	bl	800455e <I2C_WaitOnBTFFlagUntilTimeout>
 8004a28:	2800      	cmp	r0, #0
 8004a2a:	d1cf      	bne.n	80049cc <HAL_I2C_Mem_Write+0x9c>
 8004a2c:	6822      	ldr	r2, [r4, #0]
 8004a2e:	6813      	ldr	r3, [r2, #0]
 8004a30:	f443 7300 	orr.w	r3, r3, #512	; 0x200
 8004a34:	6013      	str	r3, [r2, #0]
 8004a36:	2320      	movs	r3, #32
 8004a38:	f884 303d 	strb.w	r3, [r4, #61]	; 0x3d
 8004a3c:	f884 003c 	strb.w	r0, [r4, #60]	; 0x3c
 8004a40:	f884 003e 	strb.w	r0, [r4, #62]	; 0x3e
 8004a44:	e783      	b.n	800494e <HAL_I2C_Mem_Write+0x1e>
 8004a46:	bf00      	nop
 8004a48:	00100002 	.word	0x00100002
 8004a4c:	ffff0000 	.word	0xffff0000

08004a50 <HAL_I2C_Mem_Read>:
 8004a50:	e92d 43f0 	stmdb	sp!, {r4, r5, r6, r7, r8, r9, lr}
 8004a54:	4604      	mov	r4, r0
 8004a56:	b087      	sub	sp, #28
 8004a58:	4699      	mov	r9, r3
 8004a5a:	9f10      	ldr	r7, [sp, #64]	; 0x40
 8004a5c:	460d      	mov	r5, r1
 8004a5e:	4690      	mov	r8, r2
 8004a60:	f7fe fc9c 	bl	800339c <HAL_GetTick>
 8004a64:	f894 303d 	ldrb.w	r3, [r4, #61]	; 0x3d
 8004a68:	2b20      	cmp	r3, #32
 8004a6a:	4606      	mov	r6, r0
 8004a6c:	d004      	beq.n	8004a78 <HAL_I2C_Mem_Read+0x28>
 8004a6e:	2502      	movs	r5, #2
 8004a70:	4628      	mov	r0, r5
 8004a72:	b007      	add	sp, #28
 8004a74:	e8bd 83f0 	ldmia.w	sp!, {r4, r5, r6, r7, r8, r9, pc}
 8004a78:	9000      	str	r0, [sp, #0]
 8004a7a:	4976      	ldr	r1, [pc, #472]	; (8004c54 <HAL_I2C_Mem_Read+0x204>)
 8004a7c:	2319      	movs	r3, #25
 8004a7e:	2201      	movs	r2, #1
 8004a80:	4620      	mov	r0, r4
 8004a82:	f7ff fcd0 	bl	8004426 <I2C_WaitOnFlagUntilTimeout>
 8004a86:	2800      	cmp	r0, #0
 8004a88:	d1f1      	bne.n	8004a6e <HAL_I2C_Mem_Read+0x1e>
 8004a8a:	f894 303c 	ldrb.w	r3, [r4, #60]	; 0x3c
 8004a8e:	2b01      	cmp	r3, #1
 8004a90:	d0ed      	beq.n	8004a6e <HAL_I2C_Mem_Read+0x1e>
 8004a92:	6820      	ldr	r0, [r4, #0]
 8004a94:	2301      	movs	r3, #1
 8004a96:	f884 303c 	strb.w	r3, [r4, #60]	; 0x3c
 8004a9a:	6803      	ldr	r3, [r0, #0]
 8004a9c:	07db      	lsls	r3, r3, #31
 8004a9e:	bf5e      	ittt	pl
 8004aa0:	6803      	ldrpl	r3, [r0, #0]
 8004aa2:	f043 0301 	orrpl.w	r3, r3, #1
 8004aa6:	6003      	strpl	r3, [r0, #0]
 8004aa8:	6803      	ldr	r3, [r0, #0]
 8004aaa:	f423 6300 	bic.w	r3, r3, #2048	; 0x800
 8004aae:	6003      	str	r3, [r0, #0]
 8004ab0:	2322      	movs	r3, #34	; 0x22
 8004ab2:	f884 303d 	strb.w	r3, [r4, #61]	; 0x3d
 8004ab6:	2340      	movs	r3, #64	; 0x40
 8004ab8:	f884 303e 	strb.w	r3, [r4, #62]	; 0x3e
 8004abc:	2300      	movs	r3, #0
 8004abe:	6423      	str	r3, [r4, #64]	; 0x40
 8004ac0:	9b0e      	ldr	r3, [sp, #56]	; 0x38
 8004ac2:	6263      	str	r3, [r4, #36]	; 0x24
 8004ac4:	f8bd 303c 	ldrh.w	r3, [sp, #60]	; 0x3c
 8004ac8:	8563      	strh	r3, [r4, #42]	; 0x2a
 8004aca:	8d63      	ldrh	r3, [r4, #42]	; 0x2a
 8004acc:	8523      	strh	r3, [r4, #40]	; 0x28
 8004ace:	4b62      	ldr	r3, [pc, #392]	; (8004c58 <HAL_I2C_Mem_Read+0x208>)
 8004ad0:	62e3      	str	r3, [r4, #44]	; 0x2c
 8004ad2:	4629      	mov	r1, r5
 8004ad4:	e9cd 7600 	strd	r7, r6, [sp]
 8004ad8:	464b      	mov	r3, r9
 8004ada:	4642      	mov	r2, r8
 8004adc:	4620      	mov	r0, r4
 8004ade:	f7ff fde3 	bl	80046a8 <I2C_RequestMemoryRead>
 8004ae2:	4605      	mov	r5, r0
 8004ae4:	b108      	cbz	r0, 8004aea <HAL_I2C_Mem_Read+0x9a>
 8004ae6:	2501      	movs	r5, #1
 8004ae8:	e7c2      	b.n	8004a70 <HAL_I2C_Mem_Read+0x20>
 8004aea:	8d22      	ldrh	r2, [r4, #40]	; 0x28
 8004aec:	6823      	ldr	r3, [r4, #0]
 8004aee:	b9b2      	cbnz	r2, 8004b1e <HAL_I2C_Mem_Read+0xce>
 8004af0:	9002      	str	r0, [sp, #8]
 8004af2:	695a      	ldr	r2, [r3, #20]
 8004af4:	9202      	str	r2, [sp, #8]
 8004af6:	699a      	ldr	r2, [r3, #24]
 8004af8:	9202      	str	r2, [sp, #8]
 8004afa:	9a02      	ldr	r2, [sp, #8]
 8004afc:	681a      	ldr	r2, [r3, #0]
 8004afe:	f442 7200 	orr.w	r2, r2, #512	; 0x200
 8004b02:	601a      	str	r2, [r3, #0]
 8004b04:	f8df 8154 	ldr.w	r8, [pc, #340]	; 8004c5c <HAL_I2C_Mem_Read+0x20c>
 8004b08:	8d23      	ldrh	r3, [r4, #40]	; 0x28
 8004b0a:	2b00      	cmp	r3, #0
 8004b0c:	d12c      	bne.n	8004b68 <HAL_I2C_Mem_Read+0x118>
 8004b0e:	2220      	movs	r2, #32
 8004b10:	f884 203d 	strb.w	r2, [r4, #61]	; 0x3d
 8004b14:	f884 303c 	strb.w	r3, [r4, #60]	; 0x3c
 8004b18:	f884 303e 	strb.w	r3, [r4, #62]	; 0x3e
 8004b1c:	e7a8      	b.n	8004a70 <HAL_I2C_Mem_Read+0x20>
 8004b1e:	2a01      	cmp	r2, #1
 8004b20:	d10a      	bne.n	8004b38 <HAL_I2C_Mem_Read+0xe8>
 8004b22:	681a      	ldr	r2, [r3, #0]
 8004b24:	f422 6280 	bic.w	r2, r2, #1024	; 0x400
 8004b28:	601a      	str	r2, [r3, #0]
 8004b2a:	9003      	str	r0, [sp, #12]
 8004b2c:	695a      	ldr	r2, [r3, #20]
 8004b2e:	9203      	str	r2, [sp, #12]
 8004b30:	699a      	ldr	r2, [r3, #24]
 8004b32:	9203      	str	r2, [sp, #12]
 8004b34:	9a03      	ldr	r2, [sp, #12]
 8004b36:	e7e1      	b.n	8004afc <HAL_I2C_Mem_Read+0xac>
 8004b38:	2a02      	cmp	r2, #2
 8004b3a:	d10e      	bne.n	8004b5a <HAL_I2C_Mem_Read+0x10a>
 8004b3c:	681a      	ldr	r2, [r3, #0]
 8004b3e:	f422 6280 	bic.w	r2, r2, #1024	; 0x400
 8004b42:	601a      	str	r2, [r3, #0]
 8004b44:	681a      	ldr	r2, [r3, #0]
 8004b46:	f442 6200 	orr.w	r2, r2, #2048	; 0x800
 8004b4a:	601a      	str	r2, [r3, #0]
 8004b4c:	9004      	str	r0, [sp, #16]
 8004b4e:	695a      	ldr	r2, [r3, #20]
 8004b50:	9204      	str	r2, [sp, #16]
 8004b52:	699b      	ldr	r3, [r3, #24]
 8004b54:	9304      	str	r3, [sp, #16]
 8004b56:	9b04      	ldr	r3, [sp, #16]
 8004b58:	e7d4      	b.n	8004b04 <HAL_I2C_Mem_Read+0xb4>
 8004b5a:	9005      	str	r0, [sp, #20]
 8004b5c:	695a      	ldr	r2, [r3, #20]
 8004b5e:	9205      	str	r2, [sp, #20]
 8004b60:	699b      	ldr	r3, [r3, #24]
 8004b62:	9305      	str	r3, [sp, #20]
 8004b64:	9b05      	ldr	r3, [sp, #20]
 8004b66:	e7cd      	b.n	8004b04 <HAL_I2C_Mem_Read+0xb4>
 8004b68:	2b03      	cmp	r3, #3
 8004b6a:	d856      	bhi.n	8004c1a <HAL_I2C_Mem_Read+0x1ca>
 8004b6c:	2b01      	cmp	r3, #1
 8004b6e:	d115      	bne.n	8004b9c <HAL_I2C_Mem_Read+0x14c>
 8004b70:	4632      	mov	r2, r6
 8004b72:	4639      	mov	r1, r7
 8004b74:	4620      	mov	r0, r4
 8004b76:	f7ff fcc3 	bl	8004500 <I2C_WaitOnRXNEFlagUntilTimeout>
 8004b7a:	2800      	cmp	r0, #0
 8004b7c:	d1b3      	bne.n	8004ae6 <HAL_I2C_Mem_Read+0x96>
 8004b7e:	6823      	ldr	r3, [r4, #0]
 8004b80:	691a      	ldr	r2, [r3, #16]
 8004b82:	6a63      	ldr	r3, [r4, #36]	; 0x24
 8004b84:	701a      	strb	r2, [r3, #0]
 8004b86:	6a63      	ldr	r3, [r4, #36]	; 0x24
 8004b88:	3301      	adds	r3, #1
 8004b8a:	6263      	str	r3, [r4, #36]	; 0x24
 8004b8c:	8d23      	ldrh	r3, [r4, #40]	; 0x28
 8004b8e:	3b01      	subs	r3, #1
 8004b90:	8523      	strh	r3, [r4, #40]	; 0x28
 8004b92:	8d63      	ldrh	r3, [r4, #42]	; 0x2a
 8004b94:	3b01      	subs	r3, #1
 8004b96:	b29b      	uxth	r3, r3
 8004b98:	8563      	strh	r3, [r4, #42]	; 0x2a
 8004b9a:	e7b5      	b.n	8004b08 <HAL_I2C_Mem_Read+0xb8>
 8004b9c:	2b02      	cmp	r3, #2
 8004b9e:	9600      	str	r6, [sp, #0]
 8004ba0:	463b      	mov	r3, r7
 8004ba2:	f04f 0200 	mov.w	r2, #0
 8004ba6:	4641      	mov	r1, r8
 8004ba8:	4620      	mov	r0, r4
 8004baa:	d119      	bne.n	8004be0 <HAL_I2C_Mem_Read+0x190>
 8004bac:	f7ff fc3b 	bl	8004426 <I2C_WaitOnFlagUntilTimeout>
 8004bb0:	2800      	cmp	r0, #0
 8004bb2:	d198      	bne.n	8004ae6 <HAL_I2C_Mem_Read+0x96>
 8004bb4:	6823      	ldr	r3, [r4, #0]
 8004bb6:	681a      	ldr	r2, [r3, #0]
 8004bb8:	f442 7200 	orr.w	r2, r2, #512	; 0x200
 8004bbc:	601a      	str	r2, [r3, #0]
 8004bbe:	691a      	ldr	r2, [r3, #16]
 8004bc0:	6a63      	ldr	r3, [r4, #36]	; 0x24
 8004bc2:	701a      	strb	r2, [r3, #0]
 8004bc4:	6a62      	ldr	r2, [r4, #36]	; 0x24
 8004bc6:	1c53      	adds	r3, r2, #1
 8004bc8:	6263      	str	r3, [r4, #36]	; 0x24
 8004bca:	8d23      	ldrh	r3, [r4, #40]	; 0x28
 8004bcc:	3b01      	subs	r3, #1
 8004bce:	8523      	strh	r3, [r4, #40]	; 0x28
 8004bd0:	8d63      	ldrh	r3, [r4, #42]	; 0x2a
 8004bd2:	3b01      	subs	r3, #1
 8004bd4:	b29b      	uxth	r3, r3
 8004bd6:	8563      	strh	r3, [r4, #42]	; 0x2a
 8004bd8:	6823      	ldr	r3, [r4, #0]
 8004bda:	691b      	ldr	r3, [r3, #16]
 8004bdc:	7053      	strb	r3, [r2, #1]
 8004bde:	e7d2      	b.n	8004b86 <HAL_I2C_Mem_Read+0x136>
 8004be0:	f7ff fc21 	bl	8004426 <I2C_WaitOnFlagUntilTimeout>
 8004be4:	2800      	cmp	r0, #0
 8004be6:	f47f af7e 	bne.w	8004ae6 <HAL_I2C_Mem_Read+0x96>
 8004bea:	6823      	ldr	r3, [r4, #0]
 8004bec:	681a      	ldr	r2, [r3, #0]
 8004bee:	f422 6280 	bic.w	r2, r2, #1024	; 0x400
 8004bf2:	601a      	str	r2, [r3, #0]
 8004bf4:	691a      	ldr	r2, [r3, #16]
 8004bf6:	6a63      	ldr	r3, [r4, #36]	; 0x24
 8004bf8:	701a      	strb	r2, [r3, #0]
 8004bfa:	6a63      	ldr	r3, [r4, #36]	; 0x24
 8004bfc:	9600      	str	r6, [sp, #0]
 8004bfe:	3301      	adds	r3, #1
 8004c00:	6263      	str	r3, [r4, #36]	; 0x24
 8004c02:	8d23      	ldrh	r3, [r4, #40]	; 0x28
 8004c04:	3b01      	subs	r3, #1
 8004c06:	8523      	strh	r3, [r4, #40]	; 0x28
 8004c08:	8d63      	ldrh	r3, [r4, #42]	; 0x2a
 8004c0a:	3b01      	subs	r3, #1
 8004c0c:	b29b      	uxth	r3, r3
 8004c0e:	8563      	strh	r3, [r4, #42]	; 0x2a
 8004c10:	4602      	mov	r2, r0
 8004c12:	463b      	mov	r3, r7
 8004c14:	4641      	mov	r1, r8
 8004c16:	4620      	mov	r0, r4
 8004c18:	e7c8      	b.n	8004bac <HAL_I2C_Mem_Read+0x15c>
 8004c1a:	4632      	mov	r2, r6
 8004c1c:	4639      	mov	r1, r7
 8004c1e:	4620      	mov	r0, r4
 8004c20:	f7ff fc6e 	bl	8004500 <I2C_WaitOnRXNEFlagUntilTimeout>
 8004c24:	2800      	cmp	r0, #0
 8004c26:	f47f af5e 	bne.w	8004ae6 <HAL_I2C_Mem_Read+0x96>
 8004c2a:	6823      	ldr	r3, [r4, #0]
 8004c2c:	691a      	ldr	r2, [r3, #16]
 8004c2e:	6a63      	ldr	r3, [r4, #36]	; 0x24
 8004c30:	701a      	strb	r2, [r3, #0]
 8004c32:	6a62      	ldr	r2, [r4, #36]	; 0x24
 8004c34:	1c53      	adds	r3, r2, #1
 8004c36:	6263      	str	r3, [r4, #36]	; 0x24
 8004c38:	8d23      	ldrh	r3, [r4, #40]	; 0x28
 8004c3a:	3b01      	subs	r3, #1
 8004c3c:	8523      	strh	r3, [r4, #40]	; 0x28
 8004c3e:	8d63      	ldrh	r3, [r4, #42]	; 0x2a
 8004c40:	3b01      	subs	r3, #1
 8004c42:	b29b      	uxth	r3, r3
 8004c44:	8563      	strh	r3, [r4, #42]	; 0x2a
 8004c46:	6823      	ldr	r3, [r4, #0]
 8004c48:	6959      	ldr	r1, [r3, #20]
 8004c4a:	0749      	lsls	r1, r1, #29
 8004c4c:	f57f af5c 	bpl.w	8004b08 <HAL_I2C_Mem_Read+0xb8>
 8004c50:	e7c3      	b.n	8004bda <HAL_I2C_Mem_Read+0x18a>
 8004c52:	bf00      	nop
 8004c54:	00100002 	.word	0x00100002
 8004c58:	ffff0000 	.word	0xffff0000
 8004c5c:	00010004 	.word	0x00010004

08004c60 <HAL_I2C_GetState>:
 8004c60:	f890 003d 	ldrb.w	r0, [r0, #61]	; 0x3d
 8004c64:	4770      	bx	lr
	...

08004c68 <HAL_I2S_Init>:
 8004c68:	b5f8      	push	{r3, r4, r5, r6, r7, lr}
 8004c6a:	4604      	mov	r4, r0
 8004c6c:	2800      	cmp	r0, #0
 8004c6e:	f000 8086 	beq.w	8004d7e <HAL_I2S_Init+0x116>
 8004c72:	f890 3041 	ldrb.w	r3, [r0, #65]	; 0x41
 8004c76:	f003 02ff 	and.w	r2, r3, #255	; 0xff
 8004c7a:	b92b      	cbnz	r3, 8004c88 <HAL_I2S_Init+0x20>
 8004c7c:	4b42      	ldr	r3, [pc, #264]	; (8004d88 <HAL_I2S_Init+0x120>)
 8004c7e:	f880 2040 	strb.w	r2, [r0, #64]	; 0x40
 8004c82:	6343      	str	r3, [r0, #52]	; 0x34
 8004c84:	f7fc fc2a 	bl	80014dc <HAL_I2S_MspInit>
 8004c88:	6822      	ldr	r2, [r4, #0]
 8004c8a:	2102      	movs	r1, #2
 8004c8c:	f884 1041 	strb.w	r1, [r4, #65]	; 0x41
 8004c90:	69d3      	ldr	r3, [r2, #28]
 8004c92:	f423 637b 	bic.w	r3, r3, #4016	; 0xfb0
 8004c96:	f023 030f 	bic.w	r3, r3, #15
 8004c9a:	61d3      	str	r3, [r2, #28]
 8004c9c:	6963      	ldr	r3, [r4, #20]
 8004c9e:	6211      	str	r1, [r2, #32]
 8004ca0:	428b      	cmp	r3, r1
 8004ca2:	d06e      	beq.n	8004d82 <HAL_I2S_Init+0x11a>
 8004ca4:	68e3      	ldr	r3, [r4, #12]
 8004ca6:	2b00      	cmp	r3, #0
 8004ca8:	68a3      	ldr	r3, [r4, #8]
 8004caa:	bf0c      	ite	eq
 8004cac:	2510      	moveq	r5, #16
 8004cae:	2520      	movne	r5, #32
 8004cb0:	2001      	movs	r0, #1
 8004cb2:	2b20      	cmp	r3, #32
 8004cb4:	bf98      	it	ls
 8004cb6:	006d      	lslls	r5, r5, #1
 8004cb8:	f000 fe6a 	bl	8005990 <HAL_RCCEx_GetPeriphCLKFreq>
 8004cbc:	6923      	ldr	r3, [r4, #16]
 8004cbe:	6962      	ldr	r2, [r4, #20]
 8004cc0:	f5b3 7f00 	cmp.w	r3, #512	; 0x200
 8004cc4:	d153      	bne.n	8004d6e <HAL_I2S_Init+0x106>
 8004cc6:	68e1      	ldr	r1, [r4, #12]
 8004cc8:	230a      	movs	r3, #10
 8004cca:	2900      	cmp	r1, #0
 8004ccc:	d04d      	beq.n	8004d6a <HAL_I2S_Init+0x102>
 8004cce:	00ad      	lsls	r5, r5, #2
 8004cd0:	fbb0 f0f5 	udiv	r0, r0, r5
 8004cd4:	4343      	muls	r3, r0
 8004cd6:	fbb3 f3f2 	udiv	r3, r3, r2
 8004cda:	220a      	movs	r2, #10
 8004cdc:	3305      	adds	r3, #5
 8004cde:	fbb3 f3f2 	udiv	r3, r3, r2
 8004ce2:	f003 0201 	and.w	r2, r3, #1
 8004ce6:	085b      	lsrs	r3, r3, #1
 8004ce8:	1e99      	subs	r1, r3, #2
 8004cea:	29fd      	cmp	r1, #253	; 0xfd
 8004cec:	d843      	bhi.n	8004d76 <HAL_I2S_Init+0x10e>
 8004cee:	0212      	lsls	r2, r2, #8
 8004cf0:	4313      	orrs	r3, r2
 8004cf2:	6922      	ldr	r2, [r4, #16]
 8004cf4:	6821      	ldr	r1, [r4, #0]
 8004cf6:	4f25      	ldr	r7, [pc, #148]	; (8004d8c <HAL_I2S_Init+0x124>)
 8004cf8:	68e5      	ldr	r5, [r4, #12]
 8004cfa:	69a0      	ldr	r0, [r4, #24]
 8004cfc:	4313      	orrs	r3, r2
 8004cfe:	620b      	str	r3, [r1, #32]
 8004d00:	e9d4 6301 	ldrd	r6, r3, [r4, #4]
 8004d04:	69ca      	ldr	r2, [r1, #28]
 8004d06:	ea46 0c03 	orr.w	ip, r6, r3
 8004d0a:	403a      	ands	r2, r7
 8004d0c:	ea42 020c 	orr.w	r2, r2, ip
 8004d10:	432a      	orrs	r2, r5
 8004d12:	4302      	orrs	r2, r0
 8004d14:	f442 6200 	orr.w	r2, r2, #2048	; 0x800
 8004d18:	61ca      	str	r2, [r1, #28]
 8004d1a:	6a22      	ldr	r2, [r4, #32]
 8004d1c:	2a01      	cmp	r2, #1
 8004d1e:	d11e      	bne.n	8004d5e <HAL_I2S_Init+0xf6>
 8004d20:	4a1b      	ldr	r2, [pc, #108]	; (8004d90 <HAL_I2S_Init+0x128>)
 8004d22:	6362      	str	r2, [r4, #52]	; 0x34
 8004d24:	f8df c070 	ldr.w	ip, [pc, #112]	; 8004d98 <HAL_I2S_Init+0x130>
 8004d28:	4a1a      	ldr	r2, [pc, #104]	; (8004d94 <HAL_I2S_Init+0x12c>)
 8004d2a:	4561      	cmp	r1, ip
 8004d2c:	bf18      	it	ne
 8004d2e:	f04f 2240 	movne.w	r2, #1073758208	; 0x40004000
 8004d32:	f436 7600 	bics.w	r6, r6, #512	; 0x200
 8004d36:	69d1      	ldr	r1, [r2, #28]
 8004d38:	ea01 0107 	and.w	r1, r1, r7
 8004d3c:	61d1      	str	r1, [r2, #28]
 8004d3e:	f04f 0102 	mov.w	r1, #2
 8004d42:	6211      	str	r1, [r2, #32]
 8004d44:	bf0c      	ite	eq
 8004d46:	f44f 7680 	moveq.w	r6, #256	; 0x100
 8004d4a:	2600      	movne	r6, #0
 8004d4c:	432b      	orrs	r3, r5
 8004d4e:	69d1      	ldr	r1, [r2, #28]
 8004d50:	4333      	orrs	r3, r6
 8004d52:	4303      	orrs	r3, r0
 8004d54:	430b      	orrs	r3, r1
 8004d56:	b29b      	uxth	r3, r3
 8004d58:	f443 6300 	orr.w	r3, r3, #2048	; 0x800
 8004d5c:	61d3      	str	r3, [r2, #28]
 8004d5e:	2000      	movs	r0, #0
 8004d60:	2301      	movs	r3, #1
 8004d62:	6460      	str	r0, [r4, #68]	; 0x44
 8004d64:	f884 3041 	strb.w	r3, [r4, #65]	; 0x41
 8004d68:	bdf8      	pop	{r3, r4, r5, r6, r7, pc}
 8004d6a:	00ed      	lsls	r5, r5, #3
 8004d6c:	e7b0      	b.n	8004cd0 <HAL_I2S_Init+0x68>
 8004d6e:	fbb0 f3f5 	udiv	r3, r0, r5
 8004d72:	200a      	movs	r0, #10
 8004d74:	e7ae      	b.n	8004cd4 <HAL_I2S_Init+0x6c>
 8004d76:	6c63      	ldr	r3, [r4, #68]	; 0x44
 8004d78:	f043 0310 	orr.w	r3, r3, #16
 8004d7c:	6463      	str	r3, [r4, #68]	; 0x44
 8004d7e:	2001      	movs	r0, #1
 8004d80:	e7f2      	b.n	8004d68 <HAL_I2S_Init+0x100>
 8004d82:	2200      	movs	r2, #0
 8004d84:	e7b4      	b.n	8004cf0 <HAL_I2S_Init+0x88>
 8004d86:	bf00      	nop
 8004d88:	08004f89 	.word	0x08004f89
 8004d8c:	fffff040 	.word	0xfffff040
 8004d90:	080050b5 	.word	0x080050b5
 8004d94:	40003400 	.word	0x40003400
 8004d98:	40003800 	.word	0x40003800

08004d9c <HAL_I2S_Transmit_DMA>:
 8004d9c:	b570      	push	{r4, r5, r6, lr}
 8004d9e:	4604      	mov	r4, r0
 8004da0:	2900      	cmp	r1, #0
 8004da2:	d056      	beq.n	8004e52 <HAL_I2S_Transmit_DMA+0xb6>
 8004da4:	2a00      	cmp	r2, #0
 8004da6:	d054      	beq.n	8004e52 <HAL_I2S_Transmit_DMA+0xb6>
 8004da8:	f890 3040 	ldrb.w	r3, [r0, #64]	; 0x40
 8004dac:	2b01      	cmp	r3, #1
 8004dae:	d00b      	beq.n	8004dc8 <HAL_I2S_Transmit_DMA+0x2c>
 8004db0:	2301      	movs	r3, #1
 8004db2:	f880 3040 	strb.w	r3, [r0, #64]	; 0x40
 8004db6:	f890 3041 	ldrb.w	r3, [r0, #65]	; 0x41
 8004dba:	2b01      	cmp	r3, #1
 8004dbc:	b2dd      	uxtb	r5, r3
 8004dbe:	f04f 0300 	mov.w	r3, #0
 8004dc2:	d003      	beq.n	8004dcc <HAL_I2S_Transmit_DMA+0x30>
 8004dc4:	f880 3040 	strb.w	r3, [r0, #64]	; 0x40
 8004dc8:	2502      	movs	r5, #2
 8004dca:	e028      	b.n	8004e1e <HAL_I2S_Transmit_DMA+0x82>
 8004dcc:	2003      	movs	r0, #3
 8004dce:	6826      	ldr	r6, [r4, #0]
 8004dd0:	f884 0041 	strb.w	r0, [r4, #65]	; 0x41
 8004dd4:	6463      	str	r3, [r4, #68]	; 0x44
 8004dd6:	69f3      	ldr	r3, [r6, #28]
 8004dd8:	6261      	str	r1, [r4, #36]	; 0x24
 8004dda:	f003 0307 	and.w	r3, r3, #7
 8004dde:	4283      	cmp	r3, r0
 8004de0:	d001      	beq.n	8004de6 <HAL_I2S_Transmit_DMA+0x4a>
 8004de2:	2b05      	cmp	r3, #5
 8004de4:	d11d      	bne.n	8004e22 <HAL_I2S_Transmit_DMA+0x86>
 8004de6:	0053      	lsls	r3, r2, #1
 8004de8:	b29b      	uxth	r3, r3
 8004dea:	8523      	strh	r3, [r4, #40]	; 0x28
 8004dec:	8563      	strh	r3, [r4, #42]	; 0x2a
 8004dee:	6ba0      	ldr	r0, [r4, #56]	; 0x38
 8004df0:	4b19      	ldr	r3, [pc, #100]	; (8004e58 <HAL_I2S_Transmit_DMA+0xbc>)
 8004df2:	6403      	str	r3, [r0, #64]	; 0x40
 8004df4:	4b19      	ldr	r3, [pc, #100]	; (8004e5c <HAL_I2S_Transmit_DMA+0xc0>)
 8004df6:	63c3      	str	r3, [r0, #60]	; 0x3c
 8004df8:	4b19      	ldr	r3, [pc, #100]	; (8004e60 <HAL_I2S_Transmit_DMA+0xc4>)
 8004dfa:	64c3      	str	r3, [r0, #76]	; 0x4c
 8004dfc:	8d23      	ldrh	r3, [r4, #40]	; 0x28
 8004dfe:	f106 020c 	add.w	r2, r6, #12
 8004e02:	b29b      	uxth	r3, r3
 8004e04:	f7fe fc3e 	bl	8003684 <HAL_DMA_Start_IT>
 8004e08:	b170      	cbz	r0, 8004e28 <HAL_I2S_Transmit_DMA+0x8c>
 8004e0a:	6c63      	ldr	r3, [r4, #68]	; 0x44
 8004e0c:	f043 0308 	orr.w	r3, r3, #8
 8004e10:	6463      	str	r3, [r4, #68]	; 0x44
 8004e12:	2301      	movs	r3, #1
 8004e14:	f884 3041 	strb.w	r3, [r4, #65]	; 0x41
 8004e18:	2300      	movs	r3, #0
 8004e1a:	f884 3040 	strb.w	r3, [r4, #64]	; 0x40
 8004e1e:	4628      	mov	r0, r5
 8004e20:	bd70      	pop	{r4, r5, r6, pc}
 8004e22:	8522      	strh	r2, [r4, #40]	; 0x28
 8004e24:	8562      	strh	r2, [r4, #42]	; 0x2a
 8004e26:	e7e2      	b.n	8004dee <HAL_I2S_Transmit_DMA+0x52>
 8004e28:	6823      	ldr	r3, [r4, #0]
 8004e2a:	69da      	ldr	r2, [r3, #28]
 8004e2c:	0551      	lsls	r1, r2, #21
 8004e2e:	bf5e      	ittt	pl
 8004e30:	69da      	ldrpl	r2, [r3, #28]
 8004e32:	f442 6280 	orrpl.w	r2, r2, #1024	; 0x400
 8004e36:	61da      	strpl	r2, [r3, #28]
 8004e38:	685a      	ldr	r2, [r3, #4]
 8004e3a:	0792      	lsls	r2, r2, #30
 8004e3c:	bf58      	it	pl
 8004e3e:	685a      	ldrpl	r2, [r3, #4]
 8004e40:	f04f 0500 	mov.w	r5, #0
 8004e44:	bf5c      	itt	pl
 8004e46:	f042 0202 	orrpl.w	r2, r2, #2
 8004e4a:	605a      	strpl	r2, [r3, #4]
 8004e4c:	f884 5040 	strb.w	r5, [r4, #64]	; 0x40
 8004e50:	e7e5      	b.n	8004e1e <HAL_I2S_Transmit_DMA+0x82>
 8004e52:	2501      	movs	r5, #1
 8004e54:	e7e3      	b.n	8004e1e <HAL_I2S_Transmit_DMA+0x82>
 8004e56:	bf00      	nop
 8004e58:	08004f5d 	.word	0x08004f5d
 8004e5c:	08004f67 	.word	0x08004f67
 8004e60:	08005083 	.word	0x08005083

08004e64 <HAL_I2S_DMAPause>:
 8004e64:	f890 3040 	ldrb.w	r3, [r0, #64]	; 0x40
 8004e68:	2b01      	cmp	r3, #1
 8004e6a:	d02d      	beq.n	8004ec8 <HAL_I2S_DMAPause+0x64>
 8004e6c:	2301      	movs	r3, #1
 8004e6e:	f880 3040 	strb.w	r3, [r0, #64]	; 0x40
 8004e72:	f890 3041 	ldrb.w	r3, [r0, #65]	; 0x41
 8004e76:	2b03      	cmp	r3, #3
 8004e78:	d109      	bne.n	8004e8e <HAL_I2S_DMAPause+0x2a>
 8004e7a:	6802      	ldr	r2, [r0, #0]
 8004e7c:	6853      	ldr	r3, [r2, #4]
 8004e7e:	f023 0302 	bic.w	r3, r3, #2
 8004e82:	6053      	str	r3, [r2, #4]
 8004e84:	2300      	movs	r3, #0
 8004e86:	f880 3040 	strb.w	r3, [r0, #64]	; 0x40
 8004e8a:	4618      	mov	r0, r3
 8004e8c:	4770      	bx	lr
 8004e8e:	f890 3041 	ldrb.w	r3, [r0, #65]	; 0x41
 8004e92:	2b04      	cmp	r3, #4
 8004e94:	d104      	bne.n	8004ea0 <HAL_I2S_DMAPause+0x3c>
 8004e96:	6802      	ldr	r2, [r0, #0]
 8004e98:	6853      	ldr	r3, [r2, #4]
 8004e9a:	f023 0301 	bic.w	r3, r3, #1
 8004e9e:	e7f0      	b.n	8004e82 <HAL_I2S_DMAPause+0x1e>
 8004ea0:	f890 3041 	ldrb.w	r3, [r0, #65]	; 0x41
 8004ea4:	2b05      	cmp	r3, #5
 8004ea6:	d1ed      	bne.n	8004e84 <HAL_I2S_DMAPause+0x20>
 8004ea8:	6802      	ldr	r2, [r0, #0]
 8004eaa:	4908      	ldr	r1, [pc, #32]	; (8004ecc <HAL_I2S_DMAPause+0x68>)
 8004eac:	6853      	ldr	r3, [r2, #4]
 8004eae:	f023 0303 	bic.w	r3, r3, #3
 8004eb2:	6053      	str	r3, [r2, #4]
 8004eb4:	4b06      	ldr	r3, [pc, #24]	; (8004ed0 <HAL_I2S_DMAPause+0x6c>)
 8004eb6:	428a      	cmp	r2, r1
 8004eb8:	bf18      	it	ne
 8004eba:	f04f 2340 	movne.w	r3, #1073758208	; 0x40004000
 8004ebe:	685a      	ldr	r2, [r3, #4]
 8004ec0:	f022 0203 	bic.w	r2, r2, #3
 8004ec4:	605a      	str	r2, [r3, #4]
 8004ec6:	e7dd      	b.n	8004e84 <HAL_I2S_DMAPause+0x20>
 8004ec8:	2002      	movs	r0, #2
 8004eca:	4770      	bx	lr
 8004ecc:	40003800 	.word	0x40003800
 8004ed0:	40003400 	.word	0x40003400

08004ed4 <HAL_I2S_DMAResume>:
 8004ed4:	f890 3040 	ldrb.w	r3, [r0, #64]	; 0x40
 8004ed8:	2b01      	cmp	r3, #1
 8004eda:	d039      	beq.n	8004f50 <HAL_I2S_DMAResume+0x7c>
 8004edc:	2301      	movs	r3, #1
 8004ede:	f880 3040 	strb.w	r3, [r0, #64]	; 0x40
 8004ee2:	f890 2041 	ldrb.w	r2, [r0, #65]	; 0x41
 8004ee6:	6803      	ldr	r3, [r0, #0]
 8004ee8:	2a03      	cmp	r2, #3
 8004eea:	d10f      	bne.n	8004f0c <HAL_I2S_DMAResume+0x38>
 8004eec:	685a      	ldr	r2, [r3, #4]
 8004eee:	f042 0202 	orr.w	r2, r2, #2
 8004ef2:	605a      	str	r2, [r3, #4]
 8004ef4:	69da      	ldr	r2, [r3, #28]
 8004ef6:	0552      	lsls	r2, r2, #21
 8004ef8:	bf5e      	ittt	pl
 8004efa:	69da      	ldrpl	r2, [r3, #28]
 8004efc:	f442 6280 	orrpl.w	r2, r2, #1024	; 0x400
 8004f00:	61da      	strpl	r2, [r3, #28]
 8004f02:	2300      	movs	r3, #0
 8004f04:	f880 3040 	strb.w	r3, [r0, #64]	; 0x40
 8004f08:	4618      	mov	r0, r3
 8004f0a:	4770      	bx	lr
 8004f0c:	f890 2041 	ldrb.w	r2, [r0, #65]	; 0x41
 8004f10:	2a04      	cmp	r2, #4
 8004f12:	d103      	bne.n	8004f1c <HAL_I2S_DMAResume+0x48>
 8004f14:	685a      	ldr	r2, [r3, #4]
 8004f16:	f042 0201 	orr.w	r2, r2, #1
 8004f1a:	e7ea      	b.n	8004ef2 <HAL_I2S_DMAResume+0x1e>
 8004f1c:	f890 2041 	ldrb.w	r2, [r0, #65]	; 0x41
 8004f20:	2a05      	cmp	r2, #5
 8004f22:	d1e7      	bne.n	8004ef4 <HAL_I2S_DMAResume+0x20>
 8004f24:	685a      	ldr	r2, [r3, #4]
 8004f26:	490b      	ldr	r1, [pc, #44]	; (8004f54 <HAL_I2S_DMAResume+0x80>)
 8004f28:	f042 0203 	orr.w	r2, r2, #3
 8004f2c:	605a      	str	r2, [r3, #4]
 8004f2e:	4a0a      	ldr	r2, [pc, #40]	; (8004f58 <HAL_I2S_DMAResume+0x84>)
 8004f30:	428b      	cmp	r3, r1
 8004f32:	bf18      	it	ne
 8004f34:	f04f 2240 	movne.w	r2, #1073758208	; 0x40004000
 8004f38:	6851      	ldr	r1, [r2, #4]
 8004f3a:	f041 0103 	orr.w	r1, r1, #3
 8004f3e:	6051      	str	r1, [r2, #4]
 8004f40:	69d1      	ldr	r1, [r2, #28]
 8004f42:	0549      	lsls	r1, r1, #21
 8004f44:	bf5e      	ittt	pl
 8004f46:	69d1      	ldrpl	r1, [r2, #28]
 8004f48:	f441 6180 	orrpl.w	r1, r1, #1024	; 0x400
 8004f4c:	61d1      	strpl	r1, [r2, #28]
 8004f4e:	e7d1      	b.n	8004ef4 <HAL_I2S_DMAResume+0x20>
 8004f50:	2002      	movs	r0, #2
 8004f52:	4770      	bx	lr
 8004f54:	40003800 	.word	0x40003800
 8004f58:	40003400 	.word	0x40003400

08004f5c <I2S_DMATxHalfCplt>:
 8004f5c:	b508      	push	{r3, lr}
 8004f5e:	6b80      	ldr	r0, [r0, #56]	; 0x38
 8004f60:	f7fe f9ae 	bl	80032c0 <HAL_I2S_TxHalfCpltCallback>
 8004f64:	bd08      	pop	{r3, pc}

08004f66 <I2S_DMATxCplt>:
 8004f66:	b508      	push	{r3, lr}
 8004f68:	4603      	mov	r3, r0
 8004f6a:	6b80      	ldr	r0, [r0, #56]	; 0x38
 8004f6c:	69da      	ldr	r2, [r3, #28]
 8004f6e:	b942      	cbnz	r2, 8004f82 <I2S_DMATxCplt+0x1c>
 8004f70:	6801      	ldr	r1, [r0, #0]
 8004f72:	684b      	ldr	r3, [r1, #4]
 8004f74:	f023 0302 	bic.w	r3, r3, #2
 8004f78:	604b      	str	r3, [r1, #4]
 8004f7a:	2301      	movs	r3, #1
 8004f7c:	8542      	strh	r2, [r0, #42]	; 0x2a
 8004f7e:	f880 3041 	strb.w	r3, [r0, #65]	; 0x41
 8004f82:	f7fe f993 	bl	80032ac <HAL_I2S_TxCpltCallback>
 8004f86:	bd08      	pop	{r3, pc}

08004f88 <I2S_IRQHandler>:
 8004f88:	b51f      	push	{r0, r1, r2, r3, r4, lr}
 8004f8a:	6803      	ldr	r3, [r0, #0]
 8004f8c:	689a      	ldr	r2, [r3, #8]
 8004f8e:	9201      	str	r2, [sp, #4]
 8004f90:	f890 2041 	ldrb.w	r2, [r0, #65]	; 0x41
 8004f94:	2a04      	cmp	r2, #4
 8004f96:	4604      	mov	r4, r0
 8004f98:	d136      	bne.n	8005008 <I2S_IRQHandler+0x80>
 8004f9a:	9a01      	ldr	r2, [sp, #4]
 8004f9c:	07d1      	lsls	r1, r2, #31
 8004f9e:	d517      	bpl.n	8004fd0 <I2S_IRQHandler+0x48>
 8004fa0:	685a      	ldr	r2, [r3, #4]
 8004fa2:	0652      	lsls	r2, r2, #25
 8004fa4:	d514      	bpl.n	8004fd0 <I2S_IRQHandler+0x48>
 8004fa6:	6ac2      	ldr	r2, [r0, #44]	; 0x2c
 8004fa8:	68d9      	ldr	r1, [r3, #12]
 8004faa:	f822 1b02 	strh.w	r1, [r2], #2
 8004fae:	62c2      	str	r2, [r0, #44]	; 0x2c
 8004fb0:	8e42      	ldrh	r2, [r0, #50]	; 0x32
 8004fb2:	3a01      	subs	r2, #1
 8004fb4:	b292      	uxth	r2, r2
 8004fb6:	8642      	strh	r2, [r0, #50]	; 0x32
 8004fb8:	8e42      	ldrh	r2, [r0, #50]	; 0x32
 8004fba:	b292      	uxth	r2, r2
 8004fbc:	b942      	cbnz	r2, 8004fd0 <I2S_IRQHandler+0x48>
 8004fbe:	685a      	ldr	r2, [r3, #4]
 8004fc0:	f022 0260 	bic.w	r2, r2, #96	; 0x60
 8004fc4:	605a      	str	r2, [r3, #4]
 8004fc6:	2301      	movs	r3, #1
 8004fc8:	f880 3041 	strb.w	r3, [r0, #65]	; 0x41
 8004fcc:	f7fe f983 	bl	80032d6 <HAL_I2S_RxCpltCallback>
 8004fd0:	9b01      	ldr	r3, [sp, #4]
 8004fd2:	0659      	lsls	r1, r3, #25
 8004fd4:	d518      	bpl.n	8005008 <I2S_IRQHandler+0x80>
 8004fd6:	6823      	ldr	r3, [r4, #0]
 8004fd8:	685a      	ldr	r2, [r3, #4]
 8004fda:	0692      	lsls	r2, r2, #26
 8004fdc:	d514      	bpl.n	8005008 <I2S_IRQHandler+0x80>
 8004fde:	685a      	ldr	r2, [r3, #4]
 8004fe0:	f022 0260 	bic.w	r2, r2, #96	; 0x60
 8004fe4:	605a      	str	r2, [r3, #4]
 8004fe6:	2200      	movs	r2, #0
 8004fe8:	9202      	str	r2, [sp, #8]
 8004fea:	68da      	ldr	r2, [r3, #12]
 8004fec:	9202      	str	r2, [sp, #8]
 8004fee:	689b      	ldr	r3, [r3, #8]
 8004ff0:	9302      	str	r3, [sp, #8]
 8004ff2:	9b02      	ldr	r3, [sp, #8]
 8004ff4:	2301      	movs	r3, #1
 8004ff6:	f884 3041 	strb.w	r3, [r4, #65]	; 0x41
 8004ffa:	6c63      	ldr	r3, [r4, #68]	; 0x44
 8004ffc:	f043 0302 	orr.w	r3, r3, #2
 8005000:	6463      	str	r3, [r4, #68]	; 0x44
 8005002:	4620      	mov	r0, r4
 8005004:	f7fe f96c 	bl	80032e0 <HAL_I2S_ErrorCallback>
 8005008:	f894 3041 	ldrb.w	r3, [r4, #65]	; 0x41
 800500c:	2b03      	cmp	r3, #3
 800500e:	d136      	bne.n	800507e <I2S_IRQHandler+0xf6>
 8005010:	9b01      	ldr	r3, [sp, #4]
 8005012:	079b      	lsls	r3, r3, #30
 8005014:	d519      	bpl.n	800504a <I2S_IRQHandler+0xc2>
 8005016:	6822      	ldr	r2, [r4, #0]
 8005018:	6853      	ldr	r3, [r2, #4]
 800501a:	0618      	lsls	r0, r3, #24
 800501c:	d515      	bpl.n	800504a <I2S_IRQHandler+0xc2>
 800501e:	6a63      	ldr	r3, [r4, #36]	; 0x24
 8005020:	f833 1b02 	ldrh.w	r1, [r3], #2
 8005024:	60d1      	str	r1, [r2, #12]
 8005026:	6263      	str	r3, [r4, #36]	; 0x24
 8005028:	8d63      	ldrh	r3, [r4, #42]	; 0x2a
 800502a:	3b01      	subs	r3, #1
 800502c:	b29b      	uxth	r3, r3
 800502e:	8563      	strh	r3, [r4, #42]	; 0x2a
 8005030:	8d63      	ldrh	r3, [r4, #42]	; 0x2a
 8005032:	b29b      	uxth	r3, r3
 8005034:	b94b      	cbnz	r3, 800504a <I2S_IRQHandler+0xc2>
 8005036:	6853      	ldr	r3, [r2, #4]
 8005038:	f023 03a0 	bic.w	r3, r3, #160	; 0xa0
 800503c:	6053      	str	r3, [r2, #4]
 800503e:	2301      	movs	r3, #1
 8005040:	f884 3041 	strb.w	r3, [r4, #65]	; 0x41
 8005044:	4620      	mov	r0, r4
 8005046:	f7fe f931 	bl	80032ac <HAL_I2S_TxCpltCallback>
 800504a:	9b01      	ldr	r3, [sp, #4]
 800504c:	0719      	lsls	r1, r3, #28
 800504e:	d516      	bpl.n	800507e <I2S_IRQHandler+0xf6>
 8005050:	6823      	ldr	r3, [r4, #0]
 8005052:	685a      	ldr	r2, [r3, #4]
 8005054:	0692      	lsls	r2, r2, #26
 8005056:	d512      	bpl.n	800507e <I2S_IRQHandler+0xf6>
 8005058:	685a      	ldr	r2, [r3, #4]
 800505a:	f022 02a0 	bic.w	r2, r2, #160	; 0xa0
 800505e:	605a      	str	r2, [r3, #4]
 8005060:	2200      	movs	r2, #0
 8005062:	9203      	str	r2, [sp, #12]
 8005064:	689b      	ldr	r3, [r3, #8]
 8005066:	9303      	str	r3, [sp, #12]
 8005068:	9b03      	ldr	r3, [sp, #12]
 800506a:	2301      	movs	r3, #1
 800506c:	f884 3041 	strb.w	r3, [r4, #65]	; 0x41
 8005070:	6c63      	ldr	r3, [r4, #68]	; 0x44
 8005072:	f043 0304 	orr.w	r3, r3, #4
 8005076:	6463      	str	r3, [r4, #68]	; 0x44
 8005078:	4620      	mov	r0, r4
 800507a:	f7fe f931 	bl	80032e0 <HAL_I2S_ErrorCallback>
 800507e:	b004      	add	sp, #16
 8005080:	bd10      	pop	{r4, pc}

08005082 <I2S_DMAError>:
 8005082:	6b80      	ldr	r0, [r0, #56]	; 0x38
 8005084:	6802      	ldr	r2, [r0, #0]
 8005086:	b508      	push	{r3, lr}
 8005088:	6853      	ldr	r3, [r2, #4]
 800508a:	f023 0303 	bic.w	r3, r3, #3
 800508e:	6053      	str	r3, [r2, #4]
 8005090:	2300      	movs	r3, #0
 8005092:	8543      	strh	r3, [r0, #42]	; 0x2a
 8005094:	8643      	strh	r3, [r0, #50]	; 0x32
 8005096:	2301      	movs	r3, #1
 8005098:	f880 3041 	strb.w	r3, [r0, #65]	; 0x41
 800509c:	6c43      	ldr	r3, [r0, #68]	; 0x44
 800509e:	f043 0308 	orr.w	r3, r3, #8
 80050a2:	6443      	str	r3, [r0, #68]	; 0x44
 80050a4:	f7fe f91c 	bl	80032e0 <HAL_I2S_ErrorCallback>
 80050a8:	bd08      	pop	{r3, pc}

080050aa <HAL_I2S_GetState>:
 80050aa:	f890 0041 	ldrb.w	r0, [r0, #65]	; 0x41
 80050ae:	4770      	bx	lr

080050b0 <HAL_I2SEx_TxRxCpltCallback>:
 80050b0:	4770      	bx	lr
	...

080050b4 <HAL_I2SEx_FullDuplex_IRQHandler>:
 80050b4:	b510      	push	{r4, lr}
 80050b6:	6802      	ldr	r2, [r0, #0]
 80050b8:	498e      	ldr	r1, [pc, #568]	; (80052f4 <HAL_I2SEx_FullDuplex_IRQHandler+0x240>)
 80050ba:	6893      	ldr	r3, [r2, #8]
 80050bc:	b086      	sub	sp, #24
 80050be:	4604      	mov	r4, r0
 80050c0:	9300      	str	r3, [sp, #0]
 80050c2:	4b8d      	ldr	r3, [pc, #564]	; (80052f8 <HAL_I2SEx_FullDuplex_IRQHandler+0x244>)
 80050c4:	428a      	cmp	r2, r1
 80050c6:	bf18      	it	ne
 80050c8:	f04f 2340 	movne.w	r3, #1073758208	; 0x40004000
 80050cc:	6899      	ldr	r1, [r3, #8]
 80050ce:	9101      	str	r1, [sp, #4]
 80050d0:	6851      	ldr	r1, [r2, #4]
 80050d2:	9102      	str	r1, [sp, #8]
 80050d4:	6859      	ldr	r1, [r3, #4]
 80050d6:	9103      	str	r1, [sp, #12]
 80050d8:	6841      	ldr	r1, [r0, #4]
 80050da:	f431 7100 	bics.w	r1, r1, #512	; 0x200
 80050de:	f040 8093 	bne.w	8005208 <HAL_I2SEx_FullDuplex_IRQHandler+0x154>
 80050e2:	9b00      	ldr	r3, [sp, #0]
 80050e4:	0799      	lsls	r1, r3, #30
 80050e6:	d51a      	bpl.n	800511e <HAL_I2SEx_FullDuplex_IRQHandler+0x6a>
 80050e8:	9b02      	ldr	r3, [sp, #8]
 80050ea:	061b      	lsls	r3, r3, #24
 80050ec:	d517      	bpl.n	800511e <HAL_I2SEx_FullDuplex_IRQHandler+0x6a>
 80050ee:	6a43      	ldr	r3, [r0, #36]	; 0x24
 80050f0:	1c99      	adds	r1, r3, #2
 80050f2:	881b      	ldrh	r3, [r3, #0]
 80050f4:	6241      	str	r1, [r0, #36]	; 0x24
 80050f6:	60d3      	str	r3, [r2, #12]
 80050f8:	8d43      	ldrh	r3, [r0, #42]	; 0x2a
 80050fa:	3b01      	subs	r3, #1
 80050fc:	b29b      	uxth	r3, r3
 80050fe:	8543      	strh	r3, [r0, #42]	; 0x2a
 8005100:	8d43      	ldrh	r3, [r0, #42]	; 0x2a
 8005102:	b29b      	uxth	r3, r3
 8005104:	b95b      	cbnz	r3, 800511e <HAL_I2SEx_FullDuplex_IRQHandler+0x6a>
 8005106:	6853      	ldr	r3, [r2, #4]
 8005108:	f023 03a0 	bic.w	r3, r3, #160	; 0xa0
 800510c:	6053      	str	r3, [r2, #4]
 800510e:	8e43      	ldrh	r3, [r0, #50]	; 0x32
 8005110:	b29b      	uxth	r3, r3
 8005112:	b923      	cbnz	r3, 800511e <HAL_I2SEx_FullDuplex_IRQHandler+0x6a>
 8005114:	2301      	movs	r3, #1
 8005116:	f880 3041 	strb.w	r3, [r0, #65]	; 0x41
 800511a:	f7ff ffc9 	bl	80050b0 <HAL_I2SEx_TxRxCpltCallback>
 800511e:	9b01      	ldr	r3, [sp, #4]
 8005120:	07d8      	lsls	r0, r3, #31
 8005122:	d522      	bpl.n	800516a <HAL_I2SEx_FullDuplex_IRQHandler+0xb6>
 8005124:	9b03      	ldr	r3, [sp, #12]
 8005126:	0659      	lsls	r1, r3, #25
 8005128:	d51f      	bpl.n	800516a <HAL_I2SEx_FullDuplex_IRQHandler+0xb6>
 800512a:	6821      	ldr	r1, [r4, #0]
 800512c:	4a71      	ldr	r2, [pc, #452]	; (80052f4 <HAL_I2SEx_FullDuplex_IRQHandler+0x240>)
 800512e:	4b72      	ldr	r3, [pc, #456]	; (80052f8 <HAL_I2SEx_FullDuplex_IRQHandler+0x244>)
 8005130:	4291      	cmp	r1, r2
 8005132:	bf18      	it	ne
 8005134:	f04f 2340 	movne.w	r3, #1073758208	; 0x40004000
 8005138:	6ae2      	ldr	r2, [r4, #44]	; 0x2c
 800513a:	68d9      	ldr	r1, [r3, #12]
 800513c:	1c90      	adds	r0, r2, #2
 800513e:	62e0      	str	r0, [r4, #44]	; 0x2c
 8005140:	8011      	strh	r1, [r2, #0]
 8005142:	8e62      	ldrh	r2, [r4, #50]	; 0x32
 8005144:	3a01      	subs	r2, #1
 8005146:	b292      	uxth	r2, r2
 8005148:	8662      	strh	r2, [r4, #50]	; 0x32
 800514a:	8e62      	ldrh	r2, [r4, #50]	; 0x32
 800514c:	b292      	uxth	r2, r2
 800514e:	b962      	cbnz	r2, 800516a <HAL_I2SEx_FullDuplex_IRQHandler+0xb6>
 8005150:	685a      	ldr	r2, [r3, #4]
 8005152:	f022 0260 	bic.w	r2, r2, #96	; 0x60
 8005156:	605a      	str	r2, [r3, #4]
 8005158:	8d63      	ldrh	r3, [r4, #42]	; 0x2a
 800515a:	b29b      	uxth	r3, r3
 800515c:	b92b      	cbnz	r3, 800516a <HAL_I2SEx_FullDuplex_IRQHandler+0xb6>
 800515e:	2301      	movs	r3, #1
 8005160:	f884 3041 	strb.w	r3, [r4, #65]	; 0x41
 8005164:	4620      	mov	r0, r4
 8005166:	f7ff ffa3 	bl	80050b0 <HAL_I2SEx_TxRxCpltCallback>
 800516a:	9b01      	ldr	r3, [sp, #4]
 800516c:	065a      	lsls	r2, r3, #25
 800516e:	d522      	bpl.n	80051b6 <HAL_I2SEx_FullDuplex_IRQHandler+0x102>
 8005170:	9b03      	ldr	r3, [sp, #12]
 8005172:	069b      	lsls	r3, r3, #26
 8005174:	d51f      	bpl.n	80051b6 <HAL_I2SEx_FullDuplex_IRQHandler+0x102>
 8005176:	6823      	ldr	r3, [r4, #0]
 8005178:	495e      	ldr	r1, [pc, #376]	; (80052f4 <HAL_I2SEx_FullDuplex_IRQHandler+0x240>)
 800517a:	4a5f      	ldr	r2, [pc, #380]	; (80052f8 <HAL_I2SEx_FullDuplex_IRQHandler+0x244>)
 800517c:	428b      	cmp	r3, r1
 800517e:	bf18      	it	ne
 8005180:	f04f 2240 	movne.w	r2, #1073758208	; 0x40004000
 8005184:	4620      	mov	r0, r4
 8005186:	6851      	ldr	r1, [r2, #4]
 8005188:	f021 0160 	bic.w	r1, r1, #96	; 0x60
 800518c:	6051      	str	r1, [r2, #4]
 800518e:	685a      	ldr	r2, [r3, #4]
 8005190:	f022 02a0 	bic.w	r2, r2, #160	; 0xa0
 8005194:	605a      	str	r2, [r3, #4]
 8005196:	2200      	movs	r2, #0
 8005198:	9204      	str	r2, [sp, #16]
 800519a:	68da      	ldr	r2, [r3, #12]
 800519c:	9204      	str	r2, [sp, #16]
 800519e:	689b      	ldr	r3, [r3, #8]
 80051a0:	9304      	str	r3, [sp, #16]
 80051a2:	9b04      	ldr	r3, [sp, #16]
 80051a4:	2301      	movs	r3, #1
 80051a6:	f884 3041 	strb.w	r3, [r4, #65]	; 0x41
 80051aa:	6c63      	ldr	r3, [r4, #68]	; 0x44
 80051ac:	f043 0302 	orr.w	r3, r3, #2
 80051b0:	6463      	str	r3, [r4, #68]	; 0x44
 80051b2:	f7fe f895 	bl	80032e0 <HAL_I2S_ErrorCallback>
 80051b6:	9b00      	ldr	r3, [sp, #0]
 80051b8:	0718      	lsls	r0, r3, #28
 80051ba:	f140 8098 	bpl.w	80052ee <HAL_I2SEx_FullDuplex_IRQHandler+0x23a>
 80051be:	9b02      	ldr	r3, [sp, #8]
 80051c0:	0699      	lsls	r1, r3, #26
 80051c2:	f140 8094 	bpl.w	80052ee <HAL_I2SEx_FullDuplex_IRQHandler+0x23a>
 80051c6:	6823      	ldr	r3, [r4, #0]
 80051c8:	494a      	ldr	r1, [pc, #296]	; (80052f4 <HAL_I2SEx_FullDuplex_IRQHandler+0x240>)
 80051ca:	685a      	ldr	r2, [r3, #4]
 80051cc:	f022 02a0 	bic.w	r2, r2, #160	; 0xa0
 80051d0:	605a      	str	r2, [r3, #4]
 80051d2:	4a49      	ldr	r2, [pc, #292]	; (80052f8 <HAL_I2SEx_FullDuplex_IRQHandler+0x244>)
 80051d4:	428b      	cmp	r3, r1
 80051d6:	bf18      	it	ne
 80051d8:	f04f 2240 	movne.w	r2, #1073758208	; 0x40004000
 80051dc:	6851      	ldr	r1, [r2, #4]
 80051de:	f021 0160 	bic.w	r1, r1, #96	; 0x60
 80051e2:	6051      	str	r1, [r2, #4]
 80051e4:	2200      	movs	r2, #0
 80051e6:	9205      	str	r2, [sp, #20]
 80051e8:	689b      	ldr	r3, [r3, #8]
 80051ea:	9305      	str	r3, [sp, #20]
 80051ec:	9b05      	ldr	r3, [sp, #20]
 80051ee:	2301      	movs	r3, #1
 80051f0:	f884 3041 	strb.w	r3, [r4, #65]	; 0x41
 80051f4:	6c63      	ldr	r3, [r4, #68]	; 0x44
 80051f6:	4620      	mov	r0, r4
 80051f8:	f043 0304 	orr.w	r3, r3, #4
 80051fc:	6463      	str	r3, [r4, #68]	; 0x44
 80051fe:	b006      	add	sp, #24
 8005200:	e8bd 4010 	ldmia.w	sp!, {r4, lr}
 8005204:	f7fe b86c 	b.w	80032e0 <HAL_I2S_ErrorCallback>
 8005208:	9a01      	ldr	r2, [sp, #4]
 800520a:	0792      	lsls	r2, r2, #30
 800520c:	d51a      	bpl.n	8005244 <HAL_I2SEx_FullDuplex_IRQHandler+0x190>
 800520e:	9a03      	ldr	r2, [sp, #12]
 8005210:	0611      	lsls	r1, r2, #24
 8005212:	d517      	bpl.n	8005244 <HAL_I2SEx_FullDuplex_IRQHandler+0x190>
 8005214:	6a42      	ldr	r2, [r0, #36]	; 0x24
 8005216:	1c91      	adds	r1, r2, #2
 8005218:	8812      	ldrh	r2, [r2, #0]
 800521a:	6241      	str	r1, [r0, #36]	; 0x24
 800521c:	60da      	str	r2, [r3, #12]
 800521e:	8d42      	ldrh	r2, [r0, #42]	; 0x2a
 8005220:	3a01      	subs	r2, #1
 8005222:	b292      	uxth	r2, r2
 8005224:	8542      	strh	r2, [r0, #42]	; 0x2a
 8005226:	8d42      	ldrh	r2, [r0, #42]	; 0x2a
 8005228:	b292      	uxth	r2, r2
 800522a:	b95a      	cbnz	r2, 8005244 <HAL_I2SEx_FullDuplex_IRQHandler+0x190>
 800522c:	685a      	ldr	r2, [r3, #4]
 800522e:	f022 02a0 	bic.w	r2, r2, #160	; 0xa0
 8005232:	605a      	str	r2, [r3, #4]
 8005234:	8e43      	ldrh	r3, [r0, #50]	; 0x32
 8005236:	b29b      	uxth	r3, r3
 8005238:	b923      	cbnz	r3, 8005244 <HAL_I2SEx_FullDuplex_IRQHandler+0x190>
 800523a:	2301      	movs	r3, #1
 800523c:	f880 3041 	strb.w	r3, [r0, #65]	; 0x41
 8005240:	f7ff ff36 	bl	80050b0 <HAL_I2SEx_TxRxCpltCallback>
 8005244:	9b00      	ldr	r3, [sp, #0]
 8005246:	07da      	lsls	r2, r3, #31
 8005248:	d51c      	bpl.n	8005284 <HAL_I2SEx_FullDuplex_IRQHandler+0x1d0>
 800524a:	9b02      	ldr	r3, [sp, #8]
 800524c:	065b      	lsls	r3, r3, #25
 800524e:	d519      	bpl.n	8005284 <HAL_I2SEx_FullDuplex_IRQHandler+0x1d0>
 8005250:	6ae3      	ldr	r3, [r4, #44]	; 0x2c
 8005252:	6822      	ldr	r2, [r4, #0]
 8005254:	1c98      	adds	r0, r3, #2
 8005256:	68d1      	ldr	r1, [r2, #12]
 8005258:	62e0      	str	r0, [r4, #44]	; 0x2c
 800525a:	8019      	strh	r1, [r3, #0]
 800525c:	8e63      	ldrh	r3, [r4, #50]	; 0x32
 800525e:	3b01      	subs	r3, #1
 8005260:	b29b      	uxth	r3, r3
 8005262:	8663      	strh	r3, [r4, #50]	; 0x32
 8005264:	8e63      	ldrh	r3, [r4, #50]	; 0x32
 8005266:	b29b      	uxth	r3, r3
 8005268:	b963      	cbnz	r3, 8005284 <HAL_I2SEx_FullDuplex_IRQHandler+0x1d0>
 800526a:	6853      	ldr	r3, [r2, #4]
 800526c:	f023 0360 	bic.w	r3, r3, #96	; 0x60
 8005270:	6053      	str	r3, [r2, #4]
 8005272:	8d63      	ldrh	r3, [r4, #42]	; 0x2a
 8005274:	b29b      	uxth	r3, r3
 8005276:	b92b      	cbnz	r3, 8005284 <HAL_I2SEx_FullDuplex_IRQHandler+0x1d0>
 8005278:	2301      	movs	r3, #1
 800527a:	f884 3041 	strb.w	r3, [r4, #65]	; 0x41
 800527e:	4620      	mov	r0, r4
 8005280:	f7ff ff16 	bl	80050b0 <HAL_I2SEx_TxRxCpltCallback>
 8005284:	9b00      	ldr	r3, [sp, #0]
 8005286:	0658      	lsls	r0, r3, #25
 8005288:	d51b      	bpl.n	80052c2 <HAL_I2SEx_FullDuplex_IRQHandler+0x20e>
 800528a:	9b02      	ldr	r3, [sp, #8]
 800528c:	0699      	lsls	r1, r3, #26
 800528e:	d518      	bpl.n	80052c2 <HAL_I2SEx_FullDuplex_IRQHandler+0x20e>
 8005290:	6822      	ldr	r2, [r4, #0]
 8005292:	4918      	ldr	r1, [pc, #96]	; (80052f4 <HAL_I2SEx_FullDuplex_IRQHandler+0x240>)
 8005294:	6853      	ldr	r3, [r2, #4]
 8005296:	f023 0360 	bic.w	r3, r3, #96	; 0x60
 800529a:	6053      	str	r3, [r2, #4]
 800529c:	4b16      	ldr	r3, [pc, #88]	; (80052f8 <HAL_I2SEx_FullDuplex_IRQHandler+0x244>)
 800529e:	428a      	cmp	r2, r1
 80052a0:	bf18      	it	ne
 80052a2:	f04f 2340 	movne.w	r3, #1073758208	; 0x40004000
 80052a6:	4620      	mov	r0, r4
 80052a8:	685a      	ldr	r2, [r3, #4]
 80052aa:	f022 02a0 	bic.w	r2, r2, #160	; 0xa0
 80052ae:	605a      	str	r2, [r3, #4]
 80052b0:	2301      	movs	r3, #1
 80052b2:	f884 3041 	strb.w	r3, [r4, #65]	; 0x41
 80052b6:	6c63      	ldr	r3, [r4, #68]	; 0x44
 80052b8:	f043 0302 	orr.w	r3, r3, #2
 80052bc:	6463      	str	r3, [r4, #68]	; 0x44
 80052be:	f7fe f80f 	bl	80032e0 <HAL_I2S_ErrorCallback>
 80052c2:	9b01      	ldr	r3, [sp, #4]
 80052c4:	071a      	lsls	r2, r3, #28
 80052c6:	d512      	bpl.n	80052ee <HAL_I2SEx_FullDuplex_IRQHandler+0x23a>
 80052c8:	9b03      	ldr	r3, [sp, #12]
 80052ca:	069b      	lsls	r3, r3, #26
 80052cc:	d50f      	bpl.n	80052ee <HAL_I2SEx_FullDuplex_IRQHandler+0x23a>
 80052ce:	6822      	ldr	r2, [r4, #0]
 80052d0:	4908      	ldr	r1, [pc, #32]	; (80052f4 <HAL_I2SEx_FullDuplex_IRQHandler+0x240>)
 80052d2:	4b09      	ldr	r3, [pc, #36]	; (80052f8 <HAL_I2SEx_FullDuplex_IRQHandler+0x244>)
 80052d4:	428a      	cmp	r2, r1
 80052d6:	bf18      	it	ne
 80052d8:	f04f 2340 	movne.w	r3, #1073758208	; 0x40004000
 80052dc:	6859      	ldr	r1, [r3, #4]
 80052de:	f021 01a0 	bic.w	r1, r1, #160	; 0xa0
 80052e2:	6059      	str	r1, [r3, #4]
 80052e4:	6853      	ldr	r3, [r2, #4]
 80052e6:	f023 0360 	bic.w	r3, r3, #96	; 0x60
 80052ea:	6053      	str	r3, [r2, #4]
 80052ec:	e77f      	b.n	80051ee <HAL_I2SEx_FullDuplex_IRQHandler+0x13a>
 80052ee:	b006      	add	sp, #24
 80052f0:	bd10      	pop	{r4, pc}
 80052f2:	bf00      	nop
 80052f4:	40003800 	.word	0x40003800
 80052f8:	40003400 	.word	0x40003400

080052fc <HAL_RCC_OscConfig>:
 80052fc:	e92d 41f3 	stmdb	sp!, {r0, r1, r4, r5, r6, r7, r8, lr}
 8005300:	4604      	mov	r4, r0
 8005302:	b340      	cbz	r0, 8005356 <HAL_RCC_OscConfig+0x5a>
 8005304:	6803      	ldr	r3, [r0, #0]
 8005306:	07dd      	lsls	r5, r3, #31
 8005308:	d410      	bmi.n	800532c <HAL_RCC_OscConfig+0x30>
 800530a:	6823      	ldr	r3, [r4, #0]
 800530c:	0798      	lsls	r0, r3, #30
 800530e:	d45e      	bmi.n	80053ce <HAL_RCC_OscConfig+0xd2>
 8005310:	6823      	ldr	r3, [r4, #0]
 8005312:	071a      	lsls	r2, r3, #28
 8005314:	f100 80a0 	bmi.w	8005458 <HAL_RCC_OscConfig+0x15c>
 8005318:	6823      	ldr	r3, [r4, #0]
 800531a:	075b      	lsls	r3, r3, #29
 800531c:	f100 80c0 	bmi.w	80054a0 <HAL_RCC_OscConfig+0x1a4>
 8005320:	69a0      	ldr	r0, [r4, #24]
 8005322:	2800      	cmp	r0, #0
 8005324:	f040 8128 	bne.w	8005578 <HAL_RCC_OscConfig+0x27c>
 8005328:	2000      	movs	r0, #0
 800532a:	e02b      	b.n	8005384 <HAL_RCC_OscConfig+0x88>
 800532c:	4b8f      	ldr	r3, [pc, #572]	; (800556c <HAL_RCC_OscConfig+0x270>)
 800532e:	689a      	ldr	r2, [r3, #8]
 8005330:	f002 020c 	and.w	r2, r2, #12
 8005334:	2a04      	cmp	r2, #4
 8005336:	d007      	beq.n	8005348 <HAL_RCC_OscConfig+0x4c>
 8005338:	689a      	ldr	r2, [r3, #8]
 800533a:	f002 020c 	and.w	r2, r2, #12
 800533e:	2a08      	cmp	r2, #8
 8005340:	d10b      	bne.n	800535a <HAL_RCC_OscConfig+0x5e>
 8005342:	685a      	ldr	r2, [r3, #4]
 8005344:	0251      	lsls	r1, r2, #9
 8005346:	d508      	bpl.n	800535a <HAL_RCC_OscConfig+0x5e>
 8005348:	4b88      	ldr	r3, [pc, #544]	; (800556c <HAL_RCC_OscConfig+0x270>)
 800534a:	681b      	ldr	r3, [r3, #0]
 800534c:	039a      	lsls	r2, r3, #14
 800534e:	d5dc      	bpl.n	800530a <HAL_RCC_OscConfig+0xe>
 8005350:	6863      	ldr	r3, [r4, #4]
 8005352:	2b00      	cmp	r3, #0
 8005354:	d1d9      	bne.n	800530a <HAL_RCC_OscConfig+0xe>
 8005356:	2001      	movs	r0, #1
 8005358:	e014      	b.n	8005384 <HAL_RCC_OscConfig+0x88>
 800535a:	6862      	ldr	r2, [r4, #4]
 800535c:	f5b2 3f80 	cmp.w	r2, #65536	; 0x10000
 8005360:	d113      	bne.n	800538a <HAL_RCC_OscConfig+0x8e>
 8005362:	681a      	ldr	r2, [r3, #0]
 8005364:	f442 3280 	orr.w	r2, r2, #65536	; 0x10000
 8005368:	601a      	str	r2, [r3, #0]
 800536a:	f7fe f817 	bl	800339c <HAL_GetTick>
 800536e:	4e7f      	ldr	r6, [pc, #508]	; (800556c <HAL_RCC_OscConfig+0x270>)
 8005370:	4605      	mov	r5, r0
 8005372:	6833      	ldr	r3, [r6, #0]
 8005374:	039b      	lsls	r3, r3, #14
 8005376:	d4c8      	bmi.n	800530a <HAL_RCC_OscConfig+0xe>
 8005378:	f7fe f810 	bl	800339c <HAL_GetTick>
 800537c:	1b40      	subs	r0, r0, r5
 800537e:	2864      	cmp	r0, #100	; 0x64
 8005380:	d9f7      	bls.n	8005372 <HAL_RCC_OscConfig+0x76>
 8005382:	2003      	movs	r0, #3
 8005384:	b002      	add	sp, #8
 8005386:	e8bd 81f0 	ldmia.w	sp!, {r4, r5, r6, r7, r8, pc}
 800538a:	4d78      	ldr	r5, [pc, #480]	; (800556c <HAL_RCC_OscConfig+0x270>)
 800538c:	f5b2 2fa0 	cmp.w	r2, #327680	; 0x50000
 8005390:	682b      	ldr	r3, [r5, #0]
 8005392:	d107      	bne.n	80053a4 <HAL_RCC_OscConfig+0xa8>
 8005394:	f443 2380 	orr.w	r3, r3, #262144	; 0x40000
 8005398:	602b      	str	r3, [r5, #0]
 800539a:	682b      	ldr	r3, [r5, #0]
 800539c:	f443 3380 	orr.w	r3, r3, #65536	; 0x10000
 80053a0:	602b      	str	r3, [r5, #0]
 80053a2:	e7e2      	b.n	800536a <HAL_RCC_OscConfig+0x6e>
 80053a4:	f423 3380 	bic.w	r3, r3, #65536	; 0x10000
 80053a8:	602b      	str	r3, [r5, #0]
 80053aa:	682b      	ldr	r3, [r5, #0]
 80053ac:	f423 2380 	bic.w	r3, r3, #262144	; 0x40000
 80053b0:	602b      	str	r3, [r5, #0]
 80053b2:	2a00      	cmp	r2, #0
 80053b4:	d1d9      	bne.n	800536a <HAL_RCC_OscConfig+0x6e>
 80053b6:	f7fd fff1 	bl	800339c <HAL_GetTick>
 80053ba:	4606      	mov	r6, r0
 80053bc:	682b      	ldr	r3, [r5, #0]
 80053be:	039f      	lsls	r7, r3, #14
 80053c0:	d5a3      	bpl.n	800530a <HAL_RCC_OscConfig+0xe>
 80053c2:	f7fd ffeb 	bl	800339c <HAL_GetTick>
 80053c6:	1b80      	subs	r0, r0, r6
 80053c8:	2864      	cmp	r0, #100	; 0x64
 80053ca:	d9f7      	bls.n	80053bc <HAL_RCC_OscConfig+0xc0>
 80053cc:	e7d9      	b.n	8005382 <HAL_RCC_OscConfig+0x86>
 80053ce:	4b67      	ldr	r3, [pc, #412]	; (800556c <HAL_RCC_OscConfig+0x270>)
 80053d0:	689a      	ldr	r2, [r3, #8]
 80053d2:	f012 0f0c 	tst.w	r2, #12
 80053d6:	d007      	beq.n	80053e8 <HAL_RCC_OscConfig+0xec>
 80053d8:	689a      	ldr	r2, [r3, #8]
 80053da:	f002 020c 	and.w	r2, r2, #12
 80053de:	2a08      	cmp	r2, #8
 80053e0:	d111      	bne.n	8005406 <HAL_RCC_OscConfig+0x10a>
 80053e2:	685b      	ldr	r3, [r3, #4]
 80053e4:	025e      	lsls	r6, r3, #9
 80053e6:	d40e      	bmi.n	8005406 <HAL_RCC_OscConfig+0x10a>
 80053e8:	4a60      	ldr	r2, [pc, #384]	; (800556c <HAL_RCC_OscConfig+0x270>)
 80053ea:	6813      	ldr	r3, [r2, #0]
 80053ec:	079d      	lsls	r5, r3, #30
 80053ee:	d502      	bpl.n	80053f6 <HAL_RCC_OscConfig+0xfa>
 80053f0:	68e3      	ldr	r3, [r4, #12]
 80053f2:	2b01      	cmp	r3, #1
 80053f4:	d1af      	bne.n	8005356 <HAL_RCC_OscConfig+0x5a>
 80053f6:	6813      	ldr	r3, [r2, #0]
 80053f8:	6921      	ldr	r1, [r4, #16]
 80053fa:	f023 03f8 	bic.w	r3, r3, #248	; 0xf8
 80053fe:	ea43 03c1 	orr.w	r3, r3, r1, lsl #3
 8005402:	6013      	str	r3, [r2, #0]
 8005404:	e784      	b.n	8005310 <HAL_RCC_OscConfig+0x14>
 8005406:	68e2      	ldr	r2, [r4, #12]
 8005408:	4b59      	ldr	r3, [pc, #356]	; (8005570 <HAL_RCC_OscConfig+0x274>)
 800540a:	b1b2      	cbz	r2, 800543a <HAL_RCC_OscConfig+0x13e>
 800540c:	2201      	movs	r2, #1
 800540e:	601a      	str	r2, [r3, #0]
 8005410:	f7fd ffc4 	bl	800339c <HAL_GetTick>
 8005414:	4d55      	ldr	r5, [pc, #340]	; (800556c <HAL_RCC_OscConfig+0x270>)
 8005416:	4606      	mov	r6, r0
 8005418:	682b      	ldr	r3, [r5, #0]
 800541a:	0798      	lsls	r0, r3, #30
 800541c:	d507      	bpl.n	800542e <HAL_RCC_OscConfig+0x132>
 800541e:	682b      	ldr	r3, [r5, #0]
 8005420:	6922      	ldr	r2, [r4, #16]
 8005422:	f023 03f8 	bic.w	r3, r3, #248	; 0xf8
 8005426:	ea43 03c2 	orr.w	r3, r3, r2, lsl #3
 800542a:	602b      	str	r3, [r5, #0]
 800542c:	e770      	b.n	8005310 <HAL_RCC_OscConfig+0x14>
 800542e:	f7fd ffb5 	bl	800339c <HAL_GetTick>
 8005432:	1b80      	subs	r0, r0, r6
 8005434:	2802      	cmp	r0, #2
 8005436:	d9ef      	bls.n	8005418 <HAL_RCC_OscConfig+0x11c>
 8005438:	e7a3      	b.n	8005382 <HAL_RCC_OscConfig+0x86>
 800543a:	601a      	str	r2, [r3, #0]
 800543c:	f7fd ffae 	bl	800339c <HAL_GetTick>
 8005440:	4e4a      	ldr	r6, [pc, #296]	; (800556c <HAL_RCC_OscConfig+0x270>)
 8005442:	4605      	mov	r5, r0
 8005444:	6833      	ldr	r3, [r6, #0]
 8005446:	0799      	lsls	r1, r3, #30
 8005448:	f57f af62 	bpl.w	8005310 <HAL_RCC_OscConfig+0x14>
 800544c:	f7fd ffa6 	bl	800339c <HAL_GetTick>
 8005450:	1b40      	subs	r0, r0, r5
 8005452:	2802      	cmp	r0, #2
 8005454:	d9f6      	bls.n	8005444 <HAL_RCC_OscConfig+0x148>
 8005456:	e794      	b.n	8005382 <HAL_RCC_OscConfig+0x86>
 8005458:	6962      	ldr	r2, [r4, #20]
 800545a:	4b45      	ldr	r3, [pc, #276]	; (8005570 <HAL_RCC_OscConfig+0x274>)
 800545c:	b182      	cbz	r2, 8005480 <HAL_RCC_OscConfig+0x184>
 800545e:	2201      	movs	r2, #1
 8005460:	f8c3 2e80 	str.w	r2, [r3, #3712]	; 0xe80
 8005464:	f7fd ff9a 	bl	800339c <HAL_GetTick>
 8005468:	4e40      	ldr	r6, [pc, #256]	; (800556c <HAL_RCC_OscConfig+0x270>)
 800546a:	4605      	mov	r5, r0
 800546c:	6f73      	ldr	r3, [r6, #116]	; 0x74
 800546e:	079f      	lsls	r7, r3, #30
 8005470:	f53f af52 	bmi.w	8005318 <HAL_RCC_OscConfig+0x1c>
 8005474:	f7fd ff92 	bl	800339c <HAL_GetTick>
 8005478:	1b40      	subs	r0, r0, r5
 800547a:	2802      	cmp	r0, #2
 800547c:	d9f6      	bls.n	800546c <HAL_RCC_OscConfig+0x170>
 800547e:	e780      	b.n	8005382 <HAL_RCC_OscConfig+0x86>
 8005480:	f8c3 2e80 	str.w	r2, [r3, #3712]	; 0xe80
 8005484:	f7fd ff8a 	bl	800339c <HAL_GetTick>
 8005488:	4e38      	ldr	r6, [pc, #224]	; (800556c <HAL_RCC_OscConfig+0x270>)
 800548a:	4605      	mov	r5, r0
 800548c:	6f73      	ldr	r3, [r6, #116]	; 0x74
 800548e:	0798      	lsls	r0, r3, #30
 8005490:	f57f af42 	bpl.w	8005318 <HAL_RCC_OscConfig+0x1c>
 8005494:	f7fd ff82 	bl	800339c <HAL_GetTick>
 8005498:	1b40      	subs	r0, r0, r5
 800549a:	2802      	cmp	r0, #2
 800549c:	d9f6      	bls.n	800548c <HAL_RCC_OscConfig+0x190>
 800549e:	e770      	b.n	8005382 <HAL_RCC_OscConfig+0x86>
 80054a0:	4b32      	ldr	r3, [pc, #200]	; (800556c <HAL_RCC_OscConfig+0x270>)
 80054a2:	6c1a      	ldr	r2, [r3, #64]	; 0x40
 80054a4:	f012 5280 	ands.w	r2, r2, #268435456	; 0x10000000
 80054a8:	d128      	bne.n	80054fc <HAL_RCC_OscConfig+0x200>
 80054aa:	9201      	str	r2, [sp, #4]
 80054ac:	6c1a      	ldr	r2, [r3, #64]	; 0x40
 80054ae:	f042 5280 	orr.w	r2, r2, #268435456	; 0x10000000
 80054b2:	641a      	str	r2, [r3, #64]	; 0x40
 80054b4:	6c1b      	ldr	r3, [r3, #64]	; 0x40
 80054b6:	f003 5380 	and.w	r3, r3, #268435456	; 0x10000000
 80054ba:	9301      	str	r3, [sp, #4]
 80054bc:	9b01      	ldr	r3, [sp, #4]
 80054be:	2701      	movs	r7, #1
 80054c0:	4d2c      	ldr	r5, [pc, #176]	; (8005574 <HAL_RCC_OscConfig+0x278>)
 80054c2:	682b      	ldr	r3, [r5, #0]
 80054c4:	05d9      	lsls	r1, r3, #23
 80054c6:	d51b      	bpl.n	8005500 <HAL_RCC_OscConfig+0x204>
 80054c8:	68a3      	ldr	r3, [r4, #8]
 80054ca:	4d28      	ldr	r5, [pc, #160]	; (800556c <HAL_RCC_OscConfig+0x270>)
 80054cc:	2b01      	cmp	r3, #1
 80054ce:	d127      	bne.n	8005520 <HAL_RCC_OscConfig+0x224>
 80054d0:	6f2b      	ldr	r3, [r5, #112]	; 0x70
 80054d2:	f043 0301 	orr.w	r3, r3, #1
 80054d6:	672b      	str	r3, [r5, #112]	; 0x70
 80054d8:	f7fd ff60 	bl	800339c <HAL_GetTick>
 80054dc:	4e23      	ldr	r6, [pc, #140]	; (800556c <HAL_RCC_OscConfig+0x270>)
 80054de:	4605      	mov	r5, r0
 80054e0:	f241 3888 	movw	r8, #5000	; 0x1388
 80054e4:	6f33      	ldr	r3, [r6, #112]	; 0x70
 80054e6:	079b      	lsls	r3, r3, #30
 80054e8:	d539      	bpl.n	800555e <HAL_RCC_OscConfig+0x262>
 80054ea:	2f00      	cmp	r7, #0
 80054ec:	f43f af18 	beq.w	8005320 <HAL_RCC_OscConfig+0x24>
 80054f0:	4a1e      	ldr	r2, [pc, #120]	; (800556c <HAL_RCC_OscConfig+0x270>)
 80054f2:	6c13      	ldr	r3, [r2, #64]	; 0x40
 80054f4:	f023 5380 	bic.w	r3, r3, #268435456	; 0x10000000
 80054f8:	6413      	str	r3, [r2, #64]	; 0x40
 80054fa:	e711      	b.n	8005320 <HAL_RCC_OscConfig+0x24>
 80054fc:	2700      	movs	r7, #0
 80054fe:	e7df      	b.n	80054c0 <HAL_RCC_OscConfig+0x1c4>
 8005500:	682b      	ldr	r3, [r5, #0]
 8005502:	f443 7380 	orr.w	r3, r3, #256	; 0x100
 8005506:	602b      	str	r3, [r5, #0]
 8005508:	f7fd ff48 	bl	800339c <HAL_GetTick>
 800550c:	4606      	mov	r6, r0
 800550e:	682b      	ldr	r3, [r5, #0]
 8005510:	05da      	lsls	r2, r3, #23
 8005512:	d4d9      	bmi.n	80054c8 <HAL_RCC_OscConfig+0x1cc>
 8005514:	f7fd ff42 	bl	800339c <HAL_GetTick>
 8005518:	1b80      	subs	r0, r0, r6
 800551a:	2802      	cmp	r0, #2
 800551c:	d9f7      	bls.n	800550e <HAL_RCC_OscConfig+0x212>
 800551e:	e730      	b.n	8005382 <HAL_RCC_OscConfig+0x86>
 8005520:	2b05      	cmp	r3, #5
 8005522:	d104      	bne.n	800552e <HAL_RCC_OscConfig+0x232>
 8005524:	6f2b      	ldr	r3, [r5, #112]	; 0x70
 8005526:	f043 0304 	orr.w	r3, r3, #4
 800552a:	672b      	str	r3, [r5, #112]	; 0x70
 800552c:	e7d0      	b.n	80054d0 <HAL_RCC_OscConfig+0x1d4>
 800552e:	6f2a      	ldr	r2, [r5, #112]	; 0x70
 8005530:	f022 0201 	bic.w	r2, r2, #1
 8005534:	672a      	str	r2, [r5, #112]	; 0x70
 8005536:	6f2a      	ldr	r2, [r5, #112]	; 0x70
 8005538:	f022 0204 	bic.w	r2, r2, #4
 800553c:	672a      	str	r2, [r5, #112]	; 0x70
 800553e:	2b00      	cmp	r3, #0
 8005540:	d1ca      	bne.n	80054d8 <HAL_RCC_OscConfig+0x1dc>
 8005542:	f7fd ff2b 	bl	800339c <HAL_GetTick>
 8005546:	f241 3888 	movw	r8, #5000	; 0x1388
 800554a:	4606      	mov	r6, r0
 800554c:	6f2b      	ldr	r3, [r5, #112]	; 0x70
 800554e:	0798      	lsls	r0, r3, #30
 8005550:	d5cb      	bpl.n	80054ea <HAL_RCC_OscConfig+0x1ee>
 8005552:	f7fd ff23 	bl	800339c <HAL_GetTick>
 8005556:	1b80      	subs	r0, r0, r6
 8005558:	4540      	cmp	r0, r8
 800555a:	d9f7      	bls.n	800554c <HAL_RCC_OscConfig+0x250>
 800555c:	e711      	b.n	8005382 <HAL_RCC_OscConfig+0x86>
 800555e:	f7fd ff1d 	bl	800339c <HAL_GetTick>
 8005562:	1b40      	subs	r0, r0, r5
 8005564:	4540      	cmp	r0, r8
 8005566:	d9bd      	bls.n	80054e4 <HAL_RCC_OscConfig+0x1e8>
 8005568:	e70b      	b.n	8005382 <HAL_RCC_OscConfig+0x86>
 800556a:	bf00      	nop
 800556c:	40023800 	.word	0x40023800
 8005570:	42470000 	.word	0x42470000
 8005574:	40007000 	.word	0x40007000
 8005578:	4d36      	ldr	r5, [pc, #216]	; (8005654 <HAL_RCC_OscConfig+0x358>)
 800557a:	68ab      	ldr	r3, [r5, #8]
 800557c:	f003 030c 	and.w	r3, r3, #12
 8005580:	2b08      	cmp	r3, #8
 8005582:	d03d      	beq.n	8005600 <HAL_RCC_OscConfig+0x304>
 8005584:	4b34      	ldr	r3, [pc, #208]	; (8005658 <HAL_RCC_OscConfig+0x35c>)
 8005586:	2200      	movs	r2, #0
 8005588:	2802      	cmp	r0, #2
 800558a:	661a      	str	r2, [r3, #96]	; 0x60
 800558c:	d12b      	bne.n	80055e6 <HAL_RCC_OscConfig+0x2ea>
 800558e:	f7fd ff05 	bl	800339c <HAL_GetTick>
 8005592:	4606      	mov	r6, r0
 8005594:	682b      	ldr	r3, [r5, #0]
 8005596:	0199      	lsls	r1, r3, #6
 8005598:	d41f      	bmi.n	80055da <HAL_RCC_OscConfig+0x2de>
 800559a:	e9d4 3207 	ldrd	r3, r2, [r4, #28]
 800559e:	4313      	orrs	r3, r2
 80055a0:	6a62      	ldr	r2, [r4, #36]	; 0x24
 80055a2:	ea43 1382 	orr.w	r3, r3, r2, lsl #6
 80055a6:	6ae2      	ldr	r2, [r4, #44]	; 0x2c
 80055a8:	ea43 6302 	orr.w	r3, r3, r2, lsl #24
 80055ac:	6aa2      	ldr	r2, [r4, #40]	; 0x28
 80055ae:	0852      	lsrs	r2, r2, #1
 80055b0:	3a01      	subs	r2, #1
 80055b2:	ea43 4302 	orr.w	r3, r3, r2, lsl #16
 80055b6:	606b      	str	r3, [r5, #4]
 80055b8:	4b27      	ldr	r3, [pc, #156]	; (8005658 <HAL_RCC_OscConfig+0x35c>)
 80055ba:	4d26      	ldr	r5, [pc, #152]	; (8005654 <HAL_RCC_OscConfig+0x358>)
 80055bc:	2201      	movs	r2, #1
 80055be:	661a      	str	r2, [r3, #96]	; 0x60
 80055c0:	f7fd feec 	bl	800339c <HAL_GetTick>
 80055c4:	4604      	mov	r4, r0
 80055c6:	682b      	ldr	r3, [r5, #0]
 80055c8:	019a      	lsls	r2, r3, #6
 80055ca:	f53f aead 	bmi.w	8005328 <HAL_RCC_OscConfig+0x2c>
 80055ce:	f7fd fee5 	bl	800339c <HAL_GetTick>
 80055d2:	1b00      	subs	r0, r0, r4
 80055d4:	2802      	cmp	r0, #2
 80055d6:	d9f6      	bls.n	80055c6 <HAL_RCC_OscConfig+0x2ca>
 80055d8:	e6d3      	b.n	8005382 <HAL_RCC_OscConfig+0x86>
 80055da:	f7fd fedf 	bl	800339c <HAL_GetTick>
 80055de:	1b80      	subs	r0, r0, r6
 80055e0:	2802      	cmp	r0, #2
 80055e2:	d9d7      	bls.n	8005594 <HAL_RCC_OscConfig+0x298>
 80055e4:	e6cd      	b.n	8005382 <HAL_RCC_OscConfig+0x86>
 80055e6:	f7fd fed9 	bl	800339c <HAL_GetTick>
 80055ea:	4604      	mov	r4, r0
 80055ec:	682b      	ldr	r3, [r5, #0]
 80055ee:	019b      	lsls	r3, r3, #6
 80055f0:	f57f ae9a 	bpl.w	8005328 <HAL_RCC_OscConfig+0x2c>
 80055f4:	f7fd fed2 	bl	800339c <HAL_GetTick>
 80055f8:	1b00      	subs	r0, r0, r4
 80055fa:	2802      	cmp	r0, #2
 80055fc:	d9f6      	bls.n	80055ec <HAL_RCC_OscConfig+0x2f0>
 80055fe:	e6c0      	b.n	8005382 <HAL_RCC_OscConfig+0x86>
 8005600:	2801      	cmp	r0, #1
 8005602:	f43f aebf 	beq.w	8005384 <HAL_RCC_OscConfig+0x88>
 8005606:	686b      	ldr	r3, [r5, #4]
 8005608:	69e2      	ldr	r2, [r4, #28]
 800560a:	f403 0180 	and.w	r1, r3, #4194304	; 0x400000
 800560e:	4291      	cmp	r1, r2
 8005610:	f47f aea1 	bne.w	8005356 <HAL_RCC_OscConfig+0x5a>
 8005614:	6a21      	ldr	r1, [r4, #32]
 8005616:	f003 023f 	and.w	r2, r3, #63	; 0x3f
 800561a:	428a      	cmp	r2, r1
 800561c:	f47f ae9b 	bne.w	8005356 <HAL_RCC_OscConfig+0x5a>
 8005620:	6a61      	ldr	r1, [r4, #36]	; 0x24
 8005622:	f647 72c0 	movw	r2, #32704	; 0x7fc0
 8005626:	401a      	ands	r2, r3
 8005628:	ebb2 1f81 	cmp.w	r2, r1, lsl #6
 800562c:	f47f ae93 	bne.w	8005356 <HAL_RCC_OscConfig+0x5a>
 8005630:	6aa2      	ldr	r2, [r4, #40]	; 0x28
 8005632:	0852      	lsrs	r2, r2, #1
 8005634:	f403 3140 	and.w	r1, r3, #196608	; 0x30000
 8005638:	3a01      	subs	r2, #1
 800563a:	ebb1 4f02 	cmp.w	r1, r2, lsl #16
 800563e:	f47f ae8a 	bne.w	8005356 <HAL_RCC_OscConfig+0x5a>
 8005642:	6ae2      	ldr	r2, [r4, #44]	; 0x2c
 8005644:	f003 6370 	and.w	r3, r3, #251658240	; 0xf000000
 8005648:	ebb3 6f02 	cmp.w	r3, r2, lsl #24
 800564c:	f43f ae6c 	beq.w	8005328 <HAL_RCC_OscConfig+0x2c>
 8005650:	e681      	b.n	8005356 <HAL_RCC_OscConfig+0x5a>
 8005652:	bf00      	nop
 8005654:	40023800 	.word	0x40023800
 8005658:	42470000 	.word	0x42470000

0800565c <HAL_RCC_GetSysClockFreq>:
 800565c:	4913      	ldr	r1, [pc, #76]	; (80056ac <HAL_RCC_GetSysClockFreq+0x50>)
 800565e:	b508      	push	{r3, lr}
 8005660:	688b      	ldr	r3, [r1, #8]
 8005662:	f003 030c 	and.w	r3, r3, #12
 8005666:	2b04      	cmp	r3, #4
 8005668:	d01c      	beq.n	80056a4 <HAL_RCC_GetSysClockFreq+0x48>
 800566a:	2b08      	cmp	r3, #8
 800566c:	d11c      	bne.n	80056a8 <HAL_RCC_GetSysClockFreq+0x4c>
 800566e:	684a      	ldr	r2, [r1, #4]
 8005670:	684b      	ldr	r3, [r1, #4]
 8005672:	6849      	ldr	r1, [r1, #4]
 8005674:	f413 0380 	ands.w	r3, r3, #4194304	; 0x400000
 8005678:	bf14      	ite	ne
 800567a:	480d      	ldrne	r0, [pc, #52]	; (80056b0 <HAL_RCC_GetSysClockFreq+0x54>)
 800567c:	480d      	ldreq	r0, [pc, #52]	; (80056b4 <HAL_RCC_GetSysClockFreq+0x58>)
 800567e:	f3c1 1188 	ubfx	r1, r1, #6, #9
 8005682:	bf18      	it	ne
 8005684:	2300      	movne	r3, #0
 8005686:	f002 023f 	and.w	r2, r2, #63	; 0x3f
 800568a:	fba1 0100 	umull	r0, r1, r1, r0
 800568e:	f7fb fadb 	bl	8000c48 <__aeabi_uldivmod>
 8005692:	4b06      	ldr	r3, [pc, #24]	; (80056ac <HAL_RCC_GetSysClockFreq+0x50>)
 8005694:	685b      	ldr	r3, [r3, #4]
 8005696:	f3c3 4301 	ubfx	r3, r3, #16, #2
 800569a:	3301      	adds	r3, #1
 800569c:	005b      	lsls	r3, r3, #1
 800569e:	fbb0 f0f3 	udiv	r0, r0, r3
 80056a2:	bd08      	pop	{r3, pc}
 80056a4:	4802      	ldr	r0, [pc, #8]	; (80056b0 <HAL_RCC_GetSysClockFreq+0x54>)
 80056a6:	e7fc      	b.n	80056a2 <HAL_RCC_GetSysClockFreq+0x46>
 80056a8:	4802      	ldr	r0, [pc, #8]	; (80056b4 <HAL_RCC_GetSysClockFreq+0x58>)
 80056aa:	e7fa      	b.n	80056a2 <HAL_RCC_GetSysClockFreq+0x46>
 80056ac:	40023800 	.word	0x40023800
 80056b0:	007a1200 	.word	0x007a1200
 80056b4:	00f42400 	.word	0x00f42400

080056b8 <HAL_RCC_ClockConfig>:
 80056b8:	e92d 41f0 	stmdb	sp!, {r4, r5, r6, r7, r8, lr}
 80056bc:	460d      	mov	r5, r1
 80056be:	4604      	mov	r4, r0
 80056c0:	b910      	cbnz	r0, 80056c8 <HAL_RCC_ClockConfig+0x10>
 80056c2:	2001      	movs	r0, #1
 80056c4:	e8bd 81f0 	ldmia.w	sp!, {r4, r5, r6, r7, r8, pc}
 80056c8:	4b44      	ldr	r3, [pc, #272]	; (80057dc <HAL_RCC_ClockConfig+0x124>)
 80056ca:	681a      	ldr	r2, [r3, #0]
 80056cc:	f002 0207 	and.w	r2, r2, #7
 80056d0:	428a      	cmp	r2, r1
 80056d2:	d328      	bcc.n	8005726 <HAL_RCC_ClockConfig+0x6e>
 80056d4:	6822      	ldr	r2, [r4, #0]
 80056d6:	0797      	lsls	r7, r2, #30
 80056d8:	d42d      	bmi.n	8005736 <HAL_RCC_ClockConfig+0x7e>
 80056da:	07d0      	lsls	r0, r2, #31
 80056dc:	d441      	bmi.n	8005762 <HAL_RCC_ClockConfig+0xaa>
 80056de:	4b3f      	ldr	r3, [pc, #252]	; (80057dc <HAL_RCC_ClockConfig+0x124>)
 80056e0:	681a      	ldr	r2, [r3, #0]
 80056e2:	f002 0207 	and.w	r2, r2, #7
 80056e6:	42aa      	cmp	r2, r5
 80056e8:	d866      	bhi.n	80057b8 <HAL_RCC_ClockConfig+0x100>
 80056ea:	6822      	ldr	r2, [r4, #0]
 80056ec:	0751      	lsls	r1, r2, #29
 80056ee:	d46c      	bmi.n	80057ca <HAL_RCC_ClockConfig+0x112>
 80056f0:	0713      	lsls	r3, r2, #28
 80056f2:	d507      	bpl.n	8005704 <HAL_RCC_ClockConfig+0x4c>
 80056f4:	4a3a      	ldr	r2, [pc, #232]	; (80057e0 <HAL_RCC_ClockConfig+0x128>)
 80056f6:	6921      	ldr	r1, [r4, #16]
 80056f8:	6893      	ldr	r3, [r2, #8]
 80056fa:	f423 4360 	bic.w	r3, r3, #57344	; 0xe000
 80056fe:	ea43 03c1 	orr.w	r3, r3, r1, lsl #3
 8005702:	6093      	str	r3, [r2, #8]
 8005704:	f7ff ffaa 	bl	800565c <HAL_RCC_GetSysClockFreq>
 8005708:	4b35      	ldr	r3, [pc, #212]	; (80057e0 <HAL_RCC_ClockConfig+0x128>)
 800570a:	4a36      	ldr	r2, [pc, #216]	; (80057e4 <HAL_RCC_ClockConfig+0x12c>)
 800570c:	689b      	ldr	r3, [r3, #8]
 800570e:	f3c3 1303 	ubfx	r3, r3, #4, #4
 8005712:	5cd3      	ldrb	r3, [r2, r3]
 8005714:	40d8      	lsrs	r0, r3
 8005716:	4b34      	ldr	r3, [pc, #208]	; (80057e8 <HAL_RCC_ClockConfig+0x130>)
 8005718:	6018      	str	r0, [r3, #0]
 800571a:	4b34      	ldr	r3, [pc, #208]	; (80057ec <HAL_RCC_ClockConfig+0x134>)
 800571c:	6818      	ldr	r0, [r3, #0]
 800571e:	f7fd fdf3 	bl	8003308 <HAL_InitTick>
 8005722:	2000      	movs	r0, #0
 8005724:	e7ce      	b.n	80056c4 <HAL_RCC_ClockConfig+0xc>
 8005726:	b2ca      	uxtb	r2, r1
 8005728:	701a      	strb	r2, [r3, #0]
 800572a:	681b      	ldr	r3, [r3, #0]
 800572c:	f003 0307 	and.w	r3, r3, #7
 8005730:	428b      	cmp	r3, r1
 8005732:	d1c6      	bne.n	80056c2 <HAL_RCC_ClockConfig+0xa>
 8005734:	e7ce      	b.n	80056d4 <HAL_RCC_ClockConfig+0x1c>
 8005736:	4b2a      	ldr	r3, [pc, #168]	; (80057e0 <HAL_RCC_ClockConfig+0x128>)
 8005738:	f012 0f04 	tst.w	r2, #4
 800573c:	bf1e      	ittt	ne
 800573e:	6899      	ldrne	r1, [r3, #8]
 8005740:	f441 51e0 	orrne.w	r1, r1, #7168	; 0x1c00
 8005744:	6099      	strne	r1, [r3, #8]
 8005746:	0716      	lsls	r6, r2, #28
 8005748:	bf42      	ittt	mi
 800574a:	6899      	ldrmi	r1, [r3, #8]
 800574c:	f441 4160 	orrmi.w	r1, r1, #57344	; 0xe000
 8005750:	6099      	strmi	r1, [r3, #8]
 8005752:	4923      	ldr	r1, [pc, #140]	; (80057e0 <HAL_RCC_ClockConfig+0x128>)
 8005754:	68a0      	ldr	r0, [r4, #8]
 8005756:	688b      	ldr	r3, [r1, #8]
 8005758:	f023 03f0 	bic.w	r3, r3, #240	; 0xf0
 800575c:	4303      	orrs	r3, r0
 800575e:	608b      	str	r3, [r1, #8]
 8005760:	e7bb      	b.n	80056da <HAL_RCC_ClockConfig+0x22>
 8005762:	6862      	ldr	r2, [r4, #4]
 8005764:	4b1e      	ldr	r3, [pc, #120]	; (80057e0 <HAL_RCC_ClockConfig+0x128>)
 8005766:	2a01      	cmp	r2, #1
 8005768:	d11c      	bne.n	80057a4 <HAL_RCC_ClockConfig+0xec>
 800576a:	681b      	ldr	r3, [r3, #0]
 800576c:	f413 3f00 	tst.w	r3, #131072	; 0x20000
 8005770:	d0a7      	beq.n	80056c2 <HAL_RCC_ClockConfig+0xa>
 8005772:	4e1b      	ldr	r6, [pc, #108]	; (80057e0 <HAL_RCC_ClockConfig+0x128>)
 8005774:	68b3      	ldr	r3, [r6, #8]
 8005776:	f023 0303 	bic.w	r3, r3, #3
 800577a:	4313      	orrs	r3, r2
 800577c:	60b3      	str	r3, [r6, #8]
 800577e:	f7fd fe0d 	bl	800339c <HAL_GetTick>
 8005782:	f241 3888 	movw	r8, #5000	; 0x1388
 8005786:	4607      	mov	r7, r0
 8005788:	68b3      	ldr	r3, [r6, #8]
 800578a:	6862      	ldr	r2, [r4, #4]
 800578c:	f003 030c 	and.w	r3, r3, #12
 8005790:	ebb3 0f82 	cmp.w	r3, r2, lsl #2
 8005794:	d0a3      	beq.n	80056de <HAL_RCC_ClockConfig+0x26>
 8005796:	f7fd fe01 	bl	800339c <HAL_GetTick>
 800579a:	1bc0      	subs	r0, r0, r7
 800579c:	4540      	cmp	r0, r8
 800579e:	d9f3      	bls.n	8005788 <HAL_RCC_ClockConfig+0xd0>
 80057a0:	2003      	movs	r0, #3
 80057a2:	e78f      	b.n	80056c4 <HAL_RCC_ClockConfig+0xc>
 80057a4:	1e91      	subs	r1, r2, #2
 80057a6:	2901      	cmp	r1, #1
 80057a8:	681b      	ldr	r3, [r3, #0]
 80057aa:	d802      	bhi.n	80057b2 <HAL_RCC_ClockConfig+0xfa>
 80057ac:	f013 7f00 	tst.w	r3, #33554432	; 0x2000000
 80057b0:	e7de      	b.n	8005770 <HAL_RCC_ClockConfig+0xb8>
 80057b2:	f013 0f02 	tst.w	r3, #2
 80057b6:	e7db      	b.n	8005770 <HAL_RCC_ClockConfig+0xb8>
 80057b8:	b2ea      	uxtb	r2, r5
 80057ba:	701a      	strb	r2, [r3, #0]
 80057bc:	681b      	ldr	r3, [r3, #0]
 80057be:	f003 0307 	and.w	r3, r3, #7
 80057c2:	42ab      	cmp	r3, r5
 80057c4:	f47f af7d 	bne.w	80056c2 <HAL_RCC_ClockConfig+0xa>
 80057c8:	e78f      	b.n	80056ea <HAL_RCC_ClockConfig+0x32>
 80057ca:	4905      	ldr	r1, [pc, #20]	; (80057e0 <HAL_RCC_ClockConfig+0x128>)
 80057cc:	68e0      	ldr	r0, [r4, #12]
 80057ce:	688b      	ldr	r3, [r1, #8]
 80057d0:	f423 53e0 	bic.w	r3, r3, #7168	; 0x1c00
 80057d4:	4303      	orrs	r3, r0
 80057d6:	608b      	str	r3, [r1, #8]
 80057d8:	e78a      	b.n	80056f0 <HAL_RCC_ClockConfig+0x38>
 80057da:	bf00      	nop
 80057dc:	40023c00 	.word	0x40023c00
 80057e0:	40023800 	.word	0x40023800
 80057e4:	0800c985 	.word	0x0800c985
 80057e8:	20000010 	.word	0x20000010
 80057ec:	20000058 	.word	0x20000058

080057f0 <HAL_RCC_GetPCLK1Freq>:
 80057f0:	4b04      	ldr	r3, [pc, #16]	; (8005804 <HAL_RCC_GetPCLK1Freq+0x14>)
 80057f2:	4a05      	ldr	r2, [pc, #20]	; (8005808 <HAL_RCC_GetPCLK1Freq+0x18>)
 80057f4:	689b      	ldr	r3, [r3, #8]
 80057f6:	f3c3 2382 	ubfx	r3, r3, #10, #3
 80057fa:	5cd3      	ldrb	r3, [r2, r3]
 80057fc:	4a03      	ldr	r2, [pc, #12]	; (800580c <HAL_RCC_GetPCLK1Freq+0x1c>)
 80057fe:	6810      	ldr	r0, [r2, #0]
 8005800:	40d8      	lsrs	r0, r3
 8005802:	4770      	bx	lr
 8005804:	40023800 	.word	0x40023800
 8005808:	0800c995 	.word	0x0800c995
 800580c:	20000010 	.word	0x20000010

08005810 <HAL_RCC_GetPCLK2Freq>:
 8005810:	4b04      	ldr	r3, [pc, #16]	; (8005824 <HAL_RCC_GetPCLK2Freq+0x14>)
 8005812:	4a05      	ldr	r2, [pc, #20]	; (8005828 <HAL_RCC_GetPCLK2Freq+0x18>)
 8005814:	689b      	ldr	r3, [r3, #8]
 8005816:	f3c3 3342 	ubfx	r3, r3, #13, #3
 800581a:	5cd3      	ldrb	r3, [r2, r3]
 800581c:	4a03      	ldr	r2, [pc, #12]	; (800582c <HAL_RCC_GetPCLK2Freq+0x1c>)
 800581e:	6810      	ldr	r0, [r2, #0]
 8005820:	40d8      	lsrs	r0, r3
 8005822:	4770      	bx	lr
 8005824:	40023800 	.word	0x40023800
 8005828:	0800c995 	.word	0x0800c995
 800582c:	20000010 	.word	0x20000010

08005830 <HAL_RCCEx_PeriphCLKConfig>:
 8005830:	6803      	ldr	r3, [r0, #0]
 8005832:	f013 0f05 	tst.w	r3, #5
 8005836:	b5f7      	push	{r0, r1, r2, r4, r5, r6, r7, lr}
 8005838:	4604      	mov	r4, r0
 800583a:	d105      	bne.n	8005848 <HAL_RCCEx_PeriphCLKConfig+0x18>
 800583c:	6823      	ldr	r3, [r4, #0]
 800583e:	f013 0302 	ands.w	r3, r3, #2
 8005842:	d12a      	bne.n	800589a <HAL_RCCEx_PeriphCLKConfig+0x6a>
 8005844:	2000      	movs	r0, #0
 8005846:	e026      	b.n	8005896 <HAL_RCCEx_PeriphCLKConfig+0x66>
 8005848:	4b42      	ldr	r3, [pc, #264]	; (8005954 <HAL_RCCEx_PeriphCLKConfig+0x124>)
 800584a:	4e43      	ldr	r6, [pc, #268]	; (8005958 <HAL_RCCEx_PeriphCLKConfig+0x128>)
 800584c:	2200      	movs	r2, #0
 800584e:	669a      	str	r2, [r3, #104]	; 0x68
 8005850:	f7fd fda4 	bl	800339c <HAL_GetTick>
 8005854:	4605      	mov	r5, r0
 8005856:	6833      	ldr	r3, [r6, #0]
 8005858:	011f      	lsls	r7, r3, #4
 800585a:	d416      	bmi.n	800588a <HAL_RCCEx_PeriphCLKConfig+0x5a>
 800585c:	e9d4 2301 	ldrd	r2, r3, [r4, #4]
 8005860:	071b      	lsls	r3, r3, #28
 8005862:	ea43 1382 	orr.w	r3, r3, r2, lsl #6
 8005866:	f8c6 3084 	str.w	r3, [r6, #132]	; 0x84
 800586a:	4b3a      	ldr	r3, [pc, #232]	; (8005954 <HAL_RCCEx_PeriphCLKConfig+0x124>)
 800586c:	4e3a      	ldr	r6, [pc, #232]	; (8005958 <HAL_RCCEx_PeriphCLKConfig+0x128>)
 800586e:	2201      	movs	r2, #1
 8005870:	669a      	str	r2, [r3, #104]	; 0x68
 8005872:	f7fd fd93 	bl	800339c <HAL_GetTick>
 8005876:	4605      	mov	r5, r0
 8005878:	6833      	ldr	r3, [r6, #0]
 800587a:	0118      	lsls	r0, r3, #4
 800587c:	d4de      	bmi.n	800583c <HAL_RCCEx_PeriphCLKConfig+0xc>
 800587e:	f7fd fd8d 	bl	800339c <HAL_GetTick>
 8005882:	1b40      	subs	r0, r0, r5
 8005884:	2802      	cmp	r0, #2
 8005886:	d9f7      	bls.n	8005878 <HAL_RCCEx_PeriphCLKConfig+0x48>
 8005888:	e004      	b.n	8005894 <HAL_RCCEx_PeriphCLKConfig+0x64>
 800588a:	f7fd fd87 	bl	800339c <HAL_GetTick>
 800588e:	1b40      	subs	r0, r0, r5
 8005890:	2802      	cmp	r0, #2
 8005892:	d9e0      	bls.n	8005856 <HAL_RCCEx_PeriphCLKConfig+0x26>
 8005894:	2003      	movs	r0, #3
 8005896:	b003      	add	sp, #12
 8005898:	bdf0      	pop	{r4, r5, r6, r7, pc}
 800589a:	2300      	movs	r3, #0
 800589c:	9301      	str	r3, [sp, #4]
 800589e:	4b2e      	ldr	r3, [pc, #184]	; (8005958 <HAL_RCCEx_PeriphCLKConfig+0x128>)
 80058a0:	4d2e      	ldr	r5, [pc, #184]	; (800595c <HAL_RCCEx_PeriphCLKConfig+0x12c>)
 80058a2:	6c1a      	ldr	r2, [r3, #64]	; 0x40
 80058a4:	f042 5280 	orr.w	r2, r2, #268435456	; 0x10000000
 80058a8:	641a      	str	r2, [r3, #64]	; 0x40
 80058aa:	6c1b      	ldr	r3, [r3, #64]	; 0x40
 80058ac:	f003 5380 	and.w	r3, r3, #268435456	; 0x10000000
 80058b0:	9301      	str	r3, [sp, #4]
 80058b2:	9b01      	ldr	r3, [sp, #4]
 80058b4:	682b      	ldr	r3, [r5, #0]
 80058b6:	f443 7380 	orr.w	r3, r3, #256	; 0x100
 80058ba:	602b      	str	r3, [r5, #0]
 80058bc:	f7fd fd6e 	bl	800339c <HAL_GetTick>
 80058c0:	4606      	mov	r6, r0
 80058c2:	682b      	ldr	r3, [r5, #0]
 80058c4:	05d9      	lsls	r1, r3, #23
 80058c6:	d51a      	bpl.n	80058fe <HAL_RCCEx_PeriphCLKConfig+0xce>
 80058c8:	4d23      	ldr	r5, [pc, #140]	; (8005958 <HAL_RCCEx_PeriphCLKConfig+0x128>)
 80058ca:	6f2b      	ldr	r3, [r5, #112]	; 0x70
 80058cc:	f413 7340 	ands.w	r3, r3, #768	; 0x300
 80058d0:	d11b      	bne.n	800590a <HAL_RCCEx_PeriphCLKConfig+0xda>
 80058d2:	68e3      	ldr	r3, [r4, #12]
 80058d4:	f403 7240 	and.w	r2, r3, #768	; 0x300
 80058d8:	f5b2 7f40 	cmp.w	r2, #768	; 0x300
 80058dc:	4a1e      	ldr	r2, [pc, #120]	; (8005958 <HAL_RCCEx_PeriphCLKConfig+0x128>)
 80058de:	d135      	bne.n	800594c <HAL_RCCEx_PeriphCLKConfig+0x11c>
 80058e0:	6891      	ldr	r1, [r2, #8]
 80058e2:	f023 4070 	bic.w	r0, r3, #4026531840	; 0xf0000000
 80058e6:	f421 11f8 	bic.w	r1, r1, #2031616	; 0x1f0000
 80058ea:	f420 7040 	bic.w	r0, r0, #768	; 0x300
 80058ee:	4301      	orrs	r1, r0
 80058f0:	6091      	str	r1, [r2, #8]
 80058f2:	6f11      	ldr	r1, [r2, #112]	; 0x70
 80058f4:	f3c3 030b 	ubfx	r3, r3, #0, #12
 80058f8:	430b      	orrs	r3, r1
 80058fa:	6713      	str	r3, [r2, #112]	; 0x70
 80058fc:	e7a2      	b.n	8005844 <HAL_RCCEx_PeriphCLKConfig+0x14>
 80058fe:	f7fd fd4d 	bl	800339c <HAL_GetTick>
 8005902:	1b80      	subs	r0, r0, r6
 8005904:	2802      	cmp	r0, #2
 8005906:	d9dc      	bls.n	80058c2 <HAL_RCCEx_PeriphCLKConfig+0x92>
 8005908:	e7c4      	b.n	8005894 <HAL_RCCEx_PeriphCLKConfig+0x64>
 800590a:	68e2      	ldr	r2, [r4, #12]
 800590c:	f402 7240 	and.w	r2, r2, #768	; 0x300
 8005910:	4293      	cmp	r3, r2
 8005912:	d0de      	beq.n	80058d2 <HAL_RCCEx_PeriphCLKConfig+0xa2>
 8005914:	6f2b      	ldr	r3, [r5, #112]	; 0x70
 8005916:	4a0f      	ldr	r2, [pc, #60]	; (8005954 <HAL_RCCEx_PeriphCLKConfig+0x124>)
 8005918:	2101      	movs	r1, #1
 800591a:	f8c2 1e40 	str.w	r1, [r2, #3648]	; 0xe40
 800591e:	f423 7340 	bic.w	r3, r3, #768	; 0x300
 8005922:	2100      	movs	r1, #0
 8005924:	f8c2 1e40 	str.w	r1, [r2, #3648]	; 0xe40
 8005928:	672b      	str	r3, [r5, #112]	; 0x70
 800592a:	6f2b      	ldr	r3, [r5, #112]	; 0x70
 800592c:	07da      	lsls	r2, r3, #31
 800592e:	d5d0      	bpl.n	80058d2 <HAL_RCCEx_PeriphCLKConfig+0xa2>
 8005930:	f7fd fd34 	bl	800339c <HAL_GetTick>
 8005934:	f241 3788 	movw	r7, #5000	; 0x1388
 8005938:	4606      	mov	r6, r0
 800593a:	6f2b      	ldr	r3, [r5, #112]	; 0x70
 800593c:	079b      	lsls	r3, r3, #30
 800593e:	d4c8      	bmi.n	80058d2 <HAL_RCCEx_PeriphCLKConfig+0xa2>
 8005940:	f7fd fd2c 	bl	800339c <HAL_GetTick>
 8005944:	1b80      	subs	r0, r0, r6
 8005946:	42b8      	cmp	r0, r7
 8005948:	d9f7      	bls.n	800593a <HAL_RCCEx_PeriphCLKConfig+0x10a>
 800594a:	e7a3      	b.n	8005894 <HAL_RCCEx_PeriphCLKConfig+0x64>
 800594c:	6891      	ldr	r1, [r2, #8]
 800594e:	f421 11f8 	bic.w	r1, r1, #2031616	; 0x1f0000
 8005952:	e7cd      	b.n	80058f0 <HAL_RCCEx_PeriphCLKConfig+0xc0>
 8005954:	42470000 	.word	0x42470000
 8005958:	40023800 	.word	0x40023800
 800595c:	40007000 	.word	0x40007000

08005960 <HAL_RCCEx_GetPeriphCLKConfig>:
 8005960:	4a0a      	ldr	r2, [pc, #40]	; (800598c <HAL_RCCEx_GetPeriphCLKConfig+0x2c>)
 8005962:	2303      	movs	r3, #3
 8005964:	6003      	str	r3, [r0, #0]
 8005966:	f8d2 3084 	ldr.w	r3, [r2, #132]	; 0x84
 800596a:	f3c3 1388 	ubfx	r3, r3, #6, #9
 800596e:	6043      	str	r3, [r0, #4]
 8005970:	f8d2 3084 	ldr.w	r3, [r2, #132]	; 0x84
 8005974:	f3c3 7302 	ubfx	r3, r3, #28, #3
 8005978:	6083      	str	r3, [r0, #8]
 800597a:	6891      	ldr	r1, [r2, #8]
 800597c:	6f13      	ldr	r3, [r2, #112]	; 0x70
 800597e:	f401 12f8 	and.w	r2, r1, #2031616	; 0x1f0000
 8005982:	f403 7340 	and.w	r3, r3, #768	; 0x300
 8005986:	4313      	orrs	r3, r2
 8005988:	60c3      	str	r3, [r0, #12]
 800598a:	4770      	bx	lr
 800598c:	40023800 	.word	0x40023800

08005990 <HAL_RCCEx_GetPeriphCLKFreq>:
 8005990:	2801      	cmp	r0, #1
 8005992:	d11a      	bne.n	80059ca <HAL_RCCEx_GetPeriphCLKFreq+0x3a>
 8005994:	4b0e      	ldr	r3, [pc, #56]	; (80059d0 <HAL_RCCEx_GetPeriphCLKFreq+0x40>)
 8005996:	689a      	ldr	r2, [r3, #8]
 8005998:	0211      	lsls	r1, r2, #8
 800599a:	d416      	bmi.n	80059ca <HAL_RCCEx_GetPeriphCLKFreq+0x3a>
 800599c:	685a      	ldr	r2, [r3, #4]
 800599e:	685b      	ldr	r3, [r3, #4]
 80059a0:	0252      	lsls	r2, r2, #9
 80059a2:	4a0b      	ldr	r2, [pc, #44]	; (80059d0 <HAL_RCCEx_GetPeriphCLKFreq+0x40>)
 80059a4:	bf4c      	ite	mi
 80059a6:	480b      	ldrmi	r0, [pc, #44]	; (80059d4 <HAL_RCCEx_GetPeriphCLKFreq+0x44>)
 80059a8:	480b      	ldrpl	r0, [pc, #44]	; (80059d8 <HAL_RCCEx_GetPeriphCLKFreq+0x48>)
 80059aa:	f003 033f 	and.w	r3, r3, #63	; 0x3f
 80059ae:	fbb0 f3f3 	udiv	r3, r0, r3
 80059b2:	f8d2 0084 	ldr.w	r0, [r2, #132]	; 0x84
 80059b6:	f8d2 2084 	ldr.w	r2, [r2, #132]	; 0x84
 80059ba:	f3c0 1088 	ubfx	r0, r0, #6, #9
 80059be:	4358      	muls	r0, r3
 80059c0:	f3c2 7302 	ubfx	r3, r2, #28, #3
 80059c4:	fbb0 f0f3 	udiv	r0, r0, r3
 80059c8:	4770      	bx	lr
 80059ca:	2000      	movs	r0, #0
 80059cc:	4770      	bx	lr
 80059ce:	bf00      	nop
 80059d0:	40023800 	.word	0x40023800
 80059d4:	007a1200 	.word	0x007a1200
 80059d8:	00f42400 	.word	0x00f42400

080059dc <SPI_WaitFlagStateUntilTimeout.constprop.0>:
 80059dc:	e92d 41f3 	stmdb	sp!, {r0, r1, r4, r5, r6, r7, r8, lr}
 80059e0:	461d      	mov	r5, r3
 80059e2:	4617      	mov	r7, r2
 80059e4:	4688      	mov	r8, r1
 80059e6:	4606      	mov	r6, r0
 80059e8:	f7fd fcd8 	bl	800339c <HAL_GetTick>
 80059ec:	443d      	add	r5, r7
 80059ee:	1a2c      	subs	r4, r5, r0
 80059f0:	f7fd fcd4 	bl	800339c <HAL_GetTick>
 80059f4:	4b22      	ldr	r3, [pc, #136]	; (8005a80 <SPI_WaitFlagStateUntilTimeout.constprop.0+0xa4>)
 80059f6:	681b      	ldr	r3, [r3, #0]
 80059f8:	f3c3 33cb 	ubfx	r3, r3, #15, #12
 80059fc:	4605      	mov	r5, r0
 80059fe:	4363      	muls	r3, r4
 8005a00:	6832      	ldr	r2, [r6, #0]
 8005a02:	9301      	str	r3, [sp, #4]
 8005a04:	6893      	ldr	r3, [r2, #8]
 8005a06:	ea38 0303 	bics.w	r3, r8, r3
 8005a0a:	d001      	beq.n	8005a10 <SPI_WaitFlagStateUntilTimeout.constprop.0+0x34>
 8005a0c:	2000      	movs	r0, #0
 8005a0e:	e02d      	b.n	8005a6c <SPI_WaitFlagStateUntilTimeout.constprop.0+0x90>
 8005a10:	1c7b      	adds	r3, r7, #1
 8005a12:	d0f7      	beq.n	8005a04 <SPI_WaitFlagStateUntilTimeout.constprop.0+0x28>
 8005a14:	f7fd fcc2 	bl	800339c <HAL_GetTick>
 8005a18:	1b40      	subs	r0, r0, r5
 8005a1a:	42a0      	cmp	r0, r4
 8005a1c:	d329      	bcc.n	8005a72 <SPI_WaitFlagStateUntilTimeout.constprop.0+0x96>
 8005a1e:	6833      	ldr	r3, [r6, #0]
 8005a20:	685a      	ldr	r2, [r3, #4]
 8005a22:	f022 02e0 	bic.w	r2, r2, #224	; 0xe0
 8005a26:	605a      	str	r2, [r3, #4]
 8005a28:	6872      	ldr	r2, [r6, #4]
 8005a2a:	f5b2 7f82 	cmp.w	r2, #260	; 0x104
 8005a2e:	d10a      	bne.n	8005a46 <SPI_WaitFlagStateUntilTimeout.constprop.0+0x6a>
 8005a30:	68b2      	ldr	r2, [r6, #8]
 8005a32:	f5b2 4f00 	cmp.w	r2, #32768	; 0x8000
 8005a36:	d002      	beq.n	8005a3e <SPI_WaitFlagStateUntilTimeout.constprop.0+0x62>
 8005a38:	f5b2 6f80 	cmp.w	r2, #1024	; 0x400
 8005a3c:	d103      	bne.n	8005a46 <SPI_WaitFlagStateUntilTimeout.constprop.0+0x6a>
 8005a3e:	681a      	ldr	r2, [r3, #0]
 8005a40:	f022 0240 	bic.w	r2, r2, #64	; 0x40
 8005a44:	601a      	str	r2, [r3, #0]
 8005a46:	6ab2      	ldr	r2, [r6, #40]	; 0x28
 8005a48:	f5b2 5f00 	cmp.w	r2, #8192	; 0x2000
 8005a4c:	d107      	bne.n	8005a5e <SPI_WaitFlagStateUntilTimeout.constprop.0+0x82>
 8005a4e:	681a      	ldr	r2, [r3, #0]
 8005a50:	f422 5200 	bic.w	r2, r2, #8192	; 0x2000
 8005a54:	601a      	str	r2, [r3, #0]
 8005a56:	681a      	ldr	r2, [r3, #0]
 8005a58:	f442 5200 	orr.w	r2, r2, #8192	; 0x2000
 8005a5c:	601a      	str	r2, [r3, #0]
 8005a5e:	2301      	movs	r3, #1
 8005a60:	f886 3051 	strb.w	r3, [r6, #81]	; 0x51
 8005a64:	2300      	movs	r3, #0
 8005a66:	f886 3050 	strb.w	r3, [r6, #80]	; 0x50
 8005a6a:	2003      	movs	r0, #3
 8005a6c:	b002      	add	sp, #8
 8005a6e:	e8bd 81f0 	ldmia.w	sp!, {r4, r5, r6, r7, r8, pc}
 8005a72:	9b01      	ldr	r3, [sp, #4]
 8005a74:	2b00      	cmp	r3, #0
 8005a76:	9b01      	ldr	r3, [sp, #4]
 8005a78:	bf08      	it	eq
 8005a7a:	2400      	moveq	r4, #0
 8005a7c:	3b01      	subs	r3, #1
 8005a7e:	e7bf      	b.n	8005a00 <SPI_WaitFlagStateUntilTimeout.constprop.0+0x24>
 8005a80:	20000010 	.word	0x20000010

08005a84 <SPI_EndRxTransaction>:
 8005a84:	b538      	push	{r3, r4, r5, lr}
 8005a86:	4613      	mov	r3, r2
 8005a88:	6842      	ldr	r2, [r0, #4]
 8005a8a:	f5b2 7f82 	cmp.w	r2, #260	; 0x104
 8005a8e:	4604      	mov	r4, r0
 8005a90:	d11f      	bne.n	8005ad2 <SPI_EndRxTransaction+0x4e>
 8005a92:	6882      	ldr	r2, [r0, #8]
 8005a94:	f5b2 4f00 	cmp.w	r2, #32768	; 0x8000
 8005a98:	d002      	beq.n	8005aa0 <SPI_EndRxTransaction+0x1c>
 8005a9a:	f5b2 6f80 	cmp.w	r2, #1024	; 0x400
 8005a9e:	d107      	bne.n	8005ab0 <SPI_EndRxTransaction+0x2c>
 8005aa0:	6825      	ldr	r5, [r4, #0]
 8005aa2:	6828      	ldr	r0, [r5, #0]
 8005aa4:	f5b2 6f80 	cmp.w	r2, #1024	; 0x400
 8005aa8:	f020 0040 	bic.w	r0, r0, #64	; 0x40
 8005aac:	6028      	str	r0, [r5, #0]
 8005aae:	d007      	beq.n	8005ac0 <SPI_EndRxTransaction+0x3c>
 8005ab0:	460a      	mov	r2, r1
 8005ab2:	2180      	movs	r1, #128	; 0x80
 8005ab4:	4620      	mov	r0, r4
 8005ab6:	f7ff ff91 	bl	80059dc <SPI_WaitFlagStateUntilTimeout.constprop.0>
 8005aba:	b920      	cbnz	r0, 8005ac6 <SPI_EndRxTransaction+0x42>
 8005abc:	2000      	movs	r0, #0
 8005abe:	bd38      	pop	{r3, r4, r5, pc}
 8005ac0:	460a      	mov	r2, r1
 8005ac2:	2101      	movs	r1, #1
 8005ac4:	e7f6      	b.n	8005ab4 <SPI_EndRxTransaction+0x30>
 8005ac6:	6d63      	ldr	r3, [r4, #84]	; 0x54
 8005ac8:	f043 0320 	orr.w	r3, r3, #32
 8005acc:	6563      	str	r3, [r4, #84]	; 0x54
 8005ace:	2003      	movs	r0, #3
 8005ad0:	e7f5      	b.n	8005abe <SPI_EndRxTransaction+0x3a>
 8005ad2:	460a      	mov	r2, r1
 8005ad4:	2101      	movs	r1, #1
 8005ad6:	e7ee      	b.n	8005ab6 <SPI_EndRxTransaction+0x32>

08005ad8 <SPI_EndRxTxTransaction>:
 8005ad8:	b537      	push	{r0, r1, r2, r4, r5, lr}
 8005ada:	4613      	mov	r3, r2
 8005adc:	4a12      	ldr	r2, [pc, #72]	; (8005b28 <SPI_EndRxTxTransaction+0x50>)
 8005ade:	6815      	ldr	r5, [r2, #0]
 8005ae0:	4a12      	ldr	r2, [pc, #72]	; (8005b2c <SPI_EndRxTxTransaction+0x54>)
 8005ae2:	fbb5 f5f2 	udiv	r5, r5, r2
 8005ae6:	f44f 727a 	mov.w	r2, #1000	; 0x3e8
 8005aea:	4355      	muls	r5, r2
 8005aec:	6842      	ldr	r2, [r0, #4]
 8005aee:	9501      	str	r5, [sp, #4]
 8005af0:	f5b2 7f82 	cmp.w	r2, #260	; 0x104
 8005af4:	4604      	mov	r4, r0
 8005af6:	d10b      	bne.n	8005b10 <SPI_EndRxTxTransaction+0x38>
 8005af8:	460a      	mov	r2, r1
 8005afa:	2180      	movs	r1, #128	; 0x80
 8005afc:	f7ff ff6e 	bl	80059dc <SPI_WaitFlagStateUntilTimeout.constprop.0>
 8005b00:	b178      	cbz	r0, 8005b22 <SPI_EndRxTxTransaction+0x4a>
 8005b02:	6d63      	ldr	r3, [r4, #84]	; 0x54
 8005b04:	f043 0320 	orr.w	r3, r3, #32
 8005b08:	6563      	str	r3, [r4, #84]	; 0x54
 8005b0a:	2003      	movs	r0, #3
 8005b0c:	b003      	add	sp, #12
 8005b0e:	bd30      	pop	{r4, r5, pc}
 8005b10:	9b01      	ldr	r3, [sp, #4]
 8005b12:	b133      	cbz	r3, 8005b22 <SPI_EndRxTxTransaction+0x4a>
 8005b14:	9b01      	ldr	r3, [sp, #4]
 8005b16:	3b01      	subs	r3, #1
 8005b18:	9301      	str	r3, [sp, #4]
 8005b1a:	6823      	ldr	r3, [r4, #0]
 8005b1c:	689b      	ldr	r3, [r3, #8]
 8005b1e:	061b      	lsls	r3, r3, #24
 8005b20:	d4f6      	bmi.n	8005b10 <SPI_EndRxTxTransaction+0x38>
 8005b22:	2000      	movs	r0, #0
 8005b24:	e7f2      	b.n	8005b0c <SPI_EndRxTxTransaction+0x34>
 8005b26:	bf00      	nop
 8005b28:	20000010 	.word	0x20000010
 8005b2c:	016e3600 	.word	0x016e3600

08005b30 <HAL_SPI_Init>:
 8005b30:	b510      	push	{r4, lr}
 8005b32:	4604      	mov	r4, r0
 8005b34:	2800      	cmp	r0, #0
 8005b36:	d055      	beq.n	8005be4 <HAL_SPI_Init+0xb4>
 8005b38:	6a43      	ldr	r3, [r0, #36]	; 0x24
 8005b3a:	2b00      	cmp	r3, #0
 8005b3c:	d14e      	bne.n	8005bdc <HAL_SPI_Init+0xac>
 8005b3e:	6842      	ldr	r2, [r0, #4]
 8005b40:	f5b2 7f82 	cmp.w	r2, #260	; 0x104
 8005b44:	d000      	beq.n	8005b48 <HAL_SPI_Init+0x18>
 8005b46:	61c3      	str	r3, [r0, #28]
 8005b48:	2300      	movs	r3, #0
 8005b4a:	62a3      	str	r3, [r4, #40]	; 0x28
 8005b4c:	f894 3051 	ldrb.w	r3, [r4, #81]	; 0x51
 8005b50:	f003 02ff 	and.w	r2, r3, #255	; 0xff
 8005b54:	b923      	cbnz	r3, 8005b60 <HAL_SPI_Init+0x30>
 8005b56:	f884 2050 	strb.w	r2, [r4, #80]	; 0x50
 8005b5a:	4620      	mov	r0, r4
 8005b5c:	f7fb fd42 	bl	80015e4 <HAL_SPI_MspInit>
 8005b60:	6821      	ldr	r1, [r4, #0]
 8005b62:	68a0      	ldr	r0, [r4, #8]
 8005b64:	69a2      	ldr	r2, [r4, #24]
 8005b66:	2302      	movs	r3, #2
 8005b68:	f884 3051 	strb.w	r3, [r4, #81]	; 0x51
 8005b6c:	680b      	ldr	r3, [r1, #0]
 8005b6e:	f023 0340 	bic.w	r3, r3, #64	; 0x40
 8005b72:	600b      	str	r3, [r1, #0]
 8005b74:	6863      	ldr	r3, [r4, #4]
 8005b76:	f400 4004 	and.w	r0, r0, #33792	; 0x8400
 8005b7a:	f403 7382 	and.w	r3, r3, #260	; 0x104
 8005b7e:	4303      	orrs	r3, r0
 8005b80:	68e0      	ldr	r0, [r4, #12]
 8005b82:	f400 6000 	and.w	r0, r0, #2048	; 0x800
 8005b86:	4303      	orrs	r3, r0
 8005b88:	6920      	ldr	r0, [r4, #16]
 8005b8a:	f000 0002 	and.w	r0, r0, #2
 8005b8e:	4303      	orrs	r3, r0
 8005b90:	6960      	ldr	r0, [r4, #20]
 8005b92:	f000 0001 	and.w	r0, r0, #1
 8005b96:	4303      	orrs	r3, r0
 8005b98:	f402 7000 	and.w	r0, r2, #512	; 0x200
 8005b9c:	4303      	orrs	r3, r0
 8005b9e:	69e0      	ldr	r0, [r4, #28]
 8005ba0:	f000 0038 	and.w	r0, r0, #56	; 0x38
 8005ba4:	4303      	orrs	r3, r0
 8005ba6:	6a20      	ldr	r0, [r4, #32]
 8005ba8:	f000 0080 	and.w	r0, r0, #128	; 0x80
 8005bac:	4303      	orrs	r3, r0
 8005bae:	6aa0      	ldr	r0, [r4, #40]	; 0x28
 8005bb0:	f400 5000 	and.w	r0, r0, #8192	; 0x2000
 8005bb4:	4303      	orrs	r3, r0
 8005bb6:	600b      	str	r3, [r1, #0]
 8005bb8:	6a63      	ldr	r3, [r4, #36]	; 0x24
 8005bba:	0c12      	lsrs	r2, r2, #16
 8005bbc:	f003 0310 	and.w	r3, r3, #16
 8005bc0:	f002 0204 	and.w	r2, r2, #4
 8005bc4:	431a      	orrs	r2, r3
 8005bc6:	604a      	str	r2, [r1, #4]
 8005bc8:	69cb      	ldr	r3, [r1, #28]
 8005bca:	f423 6300 	bic.w	r3, r3, #2048	; 0x800
 8005bce:	61cb      	str	r3, [r1, #28]
 8005bd0:	2000      	movs	r0, #0
 8005bd2:	2301      	movs	r3, #1
 8005bd4:	6560      	str	r0, [r4, #84]	; 0x54
 8005bd6:	f884 3051 	strb.w	r3, [r4, #81]	; 0x51
 8005bda:	bd10      	pop	{r4, pc}
 8005bdc:	2300      	movs	r3, #0
 8005bde:	e9c0 3304 	strd	r3, r3, [r0, #16]
 8005be2:	e7b1      	b.n	8005b48 <HAL_SPI_Init+0x18>
 8005be4:	2001      	movs	r0, #1
 8005be6:	e7f8      	b.n	8005bda <HAL_SPI_Init+0xaa>

08005be8 <HAL_SPI_Transmit>:
 8005be8:	e92d 41f3 	stmdb	sp!, {r0, r1, r4, r5, r6, r7, r8, lr}
 8005bec:	461e      	mov	r6, r3
 8005bee:	f890 3050 	ldrb.w	r3, [r0, #80]	; 0x50
 8005bf2:	2b01      	cmp	r3, #1
 8005bf4:	4604      	mov	r4, r0
 8005bf6:	460d      	mov	r5, r1
 8005bf8:	4617      	mov	r7, r2
 8005bfa:	f000 80a1 	beq.w	8005d40 <HAL_SPI_Transmit+0x158>
 8005bfe:	2301      	movs	r3, #1
 8005c00:	f880 3050 	strb.w	r3, [r0, #80]	; 0x50
 8005c04:	f7fd fbca 	bl	800339c <HAL_GetTick>
 8005c08:	f894 3051 	ldrb.w	r3, [r4, #81]	; 0x51
 8005c0c:	2b01      	cmp	r3, #1
 8005c0e:	4680      	mov	r8, r0
 8005c10:	b2d8      	uxtb	r0, r3
 8005c12:	f040 8093 	bne.w	8005d3c <HAL_SPI_Transmit+0x154>
 8005c16:	2d00      	cmp	r5, #0
 8005c18:	d05e      	beq.n	8005cd8 <HAL_SPI_Transmit+0xf0>
 8005c1a:	2f00      	cmp	r7, #0
 8005c1c:	d05c      	beq.n	8005cd8 <HAL_SPI_Transmit+0xf0>
 8005c1e:	68a2      	ldr	r2, [r4, #8]
 8005c20:	6325      	str	r5, [r4, #48]	; 0x30
 8005c22:	2303      	movs	r3, #3
 8005c24:	f884 3051 	strb.w	r3, [r4, #81]	; 0x51
 8005c28:	f5b2 4f00 	cmp.w	r2, #32768	; 0x8000
 8005c2c:	f04f 0300 	mov.w	r3, #0
 8005c30:	6563      	str	r3, [r4, #84]	; 0x54
 8005c32:	e9c4 3310 	strd	r3, r3, [r4, #64]	; 0x40
 8005c36:	86e7      	strh	r7, [r4, #54]	; 0x36
 8005c38:	63a3      	str	r3, [r4, #56]	; 0x38
 8005c3a:	87a3      	strh	r3, [r4, #60]	; 0x3c
 8005c3c:	87e3      	strh	r3, [r4, #62]	; 0x3e
 8005c3e:	86a7      	strh	r7, [r4, #52]	; 0x34
 8005c40:	6823      	ldr	r3, [r4, #0]
 8005c42:	d107      	bne.n	8005c54 <HAL_SPI_Transmit+0x6c>
 8005c44:	681a      	ldr	r2, [r3, #0]
 8005c46:	f022 0240 	bic.w	r2, r2, #64	; 0x40
 8005c4a:	601a      	str	r2, [r3, #0]
 8005c4c:	681a      	ldr	r2, [r3, #0]
 8005c4e:	f442 4280 	orr.w	r2, r2, #16384	; 0x4000
 8005c52:	601a      	str	r2, [r3, #0]
 8005c54:	681a      	ldr	r2, [r3, #0]
 8005c56:	68e1      	ldr	r1, [r4, #12]
 8005c58:	0652      	lsls	r2, r2, #25
 8005c5a:	bf5e      	ittt	pl
 8005c5c:	681a      	ldrpl	r2, [r3, #0]
 8005c5e:	f042 0240 	orrpl.w	r2, r2, #64	; 0x40
 8005c62:	601a      	strpl	r2, [r3, #0]
 8005c64:	f5b1 6f00 	cmp.w	r1, #2048	; 0x800
 8005c68:	6862      	ldr	r2, [r4, #4]
 8005c6a:	d141      	bne.n	8005cf0 <HAL_SPI_Transmit+0x108>
 8005c6c:	b10a      	cbz	r2, 8005c72 <HAL_SPI_Transmit+0x8a>
 8005c6e:	2f01      	cmp	r7, #1
 8005c70:	d107      	bne.n	8005c82 <HAL_SPI_Transmit+0x9a>
 8005c72:	f835 2b02 	ldrh.w	r2, [r5], #2
 8005c76:	60da      	str	r2, [r3, #12]
 8005c78:	6325      	str	r5, [r4, #48]	; 0x30
 8005c7a:	8ee3      	ldrh	r3, [r4, #54]	; 0x36
 8005c7c:	3b01      	subs	r3, #1
 8005c7e:	b29b      	uxth	r3, r3
 8005c80:	86e3      	strh	r3, [r4, #54]	; 0x36
 8005c82:	8ee3      	ldrh	r3, [r4, #54]	; 0x36
 8005c84:	b29b      	uxth	r3, r3
 8005c86:	b9a3      	cbnz	r3, 8005cb2 <HAL_SPI_Transmit+0xca>
 8005c88:	4642      	mov	r2, r8
 8005c8a:	4631      	mov	r1, r6
 8005c8c:	4620      	mov	r0, r4
 8005c8e:	f7ff ff23 	bl	8005ad8 <SPI_EndRxTxTransaction>
 8005c92:	2800      	cmp	r0, #0
 8005c94:	d14f      	bne.n	8005d36 <HAL_SPI_Transmit+0x14e>
 8005c96:	68a3      	ldr	r3, [r4, #8]
 8005c98:	b933      	cbnz	r3, 8005ca8 <HAL_SPI_Transmit+0xc0>
 8005c9a:	9301      	str	r3, [sp, #4]
 8005c9c:	6823      	ldr	r3, [r4, #0]
 8005c9e:	68da      	ldr	r2, [r3, #12]
 8005ca0:	9201      	str	r2, [sp, #4]
 8005ca2:	689b      	ldr	r3, [r3, #8]
 8005ca4:	9301      	str	r3, [sp, #4]
 8005ca6:	9b01      	ldr	r3, [sp, #4]
 8005ca8:	6d60      	ldr	r0, [r4, #84]	; 0x54
 8005caa:	3800      	subs	r0, #0
 8005cac:	bf18      	it	ne
 8005cae:	2001      	movne	r0, #1
 8005cb0:	e012      	b.n	8005cd8 <HAL_SPI_Transmit+0xf0>
 8005cb2:	6822      	ldr	r2, [r4, #0]
 8005cb4:	6893      	ldr	r3, [r2, #8]
 8005cb6:	0798      	lsls	r0, r3, #30
 8005cb8:	d505      	bpl.n	8005cc6 <HAL_SPI_Transmit+0xde>
 8005cba:	6b23      	ldr	r3, [r4, #48]	; 0x30
 8005cbc:	f833 1b02 	ldrh.w	r1, [r3], #2
 8005cc0:	60d1      	str	r1, [r2, #12]
 8005cc2:	6323      	str	r3, [r4, #48]	; 0x30
 8005cc4:	e7d9      	b.n	8005c7a <HAL_SPI_Transmit+0x92>
 8005cc6:	f7fd fb69 	bl	800339c <HAL_GetTick>
 8005cca:	eba0 0008 	sub.w	r0, r0, r8
 8005cce:	42b0      	cmp	r0, r6
 8005cd0:	d30b      	bcc.n	8005cea <HAL_SPI_Transmit+0x102>
 8005cd2:	1c71      	adds	r1, r6, #1
 8005cd4:	d0d5      	beq.n	8005c82 <HAL_SPI_Transmit+0x9a>
 8005cd6:	2003      	movs	r0, #3
 8005cd8:	2301      	movs	r3, #1
 8005cda:	f884 3051 	strb.w	r3, [r4, #81]	; 0x51
 8005cde:	2300      	movs	r3, #0
 8005ce0:	f884 3050 	strb.w	r3, [r4, #80]	; 0x50
 8005ce4:	b002      	add	sp, #8
 8005ce6:	e8bd 81f0 	ldmia.w	sp!, {r4, r5, r6, r7, r8, pc}
 8005cea:	2e00      	cmp	r6, #0
 8005cec:	d1c9      	bne.n	8005c82 <HAL_SPI_Transmit+0x9a>
 8005cee:	e7f2      	b.n	8005cd6 <HAL_SPI_Transmit+0xee>
 8005cf0:	b10a      	cbz	r2, 8005cf6 <HAL_SPI_Transmit+0x10e>
 8005cf2:	2f01      	cmp	r7, #1
 8005cf4:	d108      	bne.n	8005d08 <HAL_SPI_Transmit+0x120>
 8005cf6:	782a      	ldrb	r2, [r5, #0]
 8005cf8:	731a      	strb	r2, [r3, #12]
 8005cfa:	6b23      	ldr	r3, [r4, #48]	; 0x30
 8005cfc:	3301      	adds	r3, #1
 8005cfe:	6323      	str	r3, [r4, #48]	; 0x30
 8005d00:	8ee3      	ldrh	r3, [r4, #54]	; 0x36
 8005d02:	3b01      	subs	r3, #1
 8005d04:	b29b      	uxth	r3, r3
 8005d06:	86e3      	strh	r3, [r4, #54]	; 0x36
 8005d08:	8ee3      	ldrh	r3, [r4, #54]	; 0x36
 8005d0a:	b29b      	uxth	r3, r3
 8005d0c:	2b00      	cmp	r3, #0
 8005d0e:	d0bb      	beq.n	8005c88 <HAL_SPI_Transmit+0xa0>
 8005d10:	6823      	ldr	r3, [r4, #0]
 8005d12:	689a      	ldr	r2, [r3, #8]
 8005d14:	0792      	lsls	r2, r2, #30
 8005d16:	d502      	bpl.n	8005d1e <HAL_SPI_Transmit+0x136>
 8005d18:	6b22      	ldr	r2, [r4, #48]	; 0x30
 8005d1a:	7812      	ldrb	r2, [r2, #0]
 8005d1c:	e7ec      	b.n	8005cf8 <HAL_SPI_Transmit+0x110>
 8005d1e:	f7fd fb3d 	bl	800339c <HAL_GetTick>
 8005d22:	eba0 0008 	sub.w	r0, r0, r8
 8005d26:	42b0      	cmp	r0, r6
 8005d28:	d302      	bcc.n	8005d30 <HAL_SPI_Transmit+0x148>
 8005d2a:	1c73      	adds	r3, r6, #1
 8005d2c:	d0ec      	beq.n	8005d08 <HAL_SPI_Transmit+0x120>
 8005d2e:	e7d2      	b.n	8005cd6 <HAL_SPI_Transmit+0xee>
 8005d30:	2e00      	cmp	r6, #0
 8005d32:	d1e9      	bne.n	8005d08 <HAL_SPI_Transmit+0x120>
 8005d34:	e7cf      	b.n	8005cd6 <HAL_SPI_Transmit+0xee>
 8005d36:	2320      	movs	r3, #32
 8005d38:	6563      	str	r3, [r4, #84]	; 0x54
 8005d3a:	e7ac      	b.n	8005c96 <HAL_SPI_Transmit+0xae>
 8005d3c:	2002      	movs	r0, #2
 8005d3e:	e7cb      	b.n	8005cd8 <HAL_SPI_Transmit+0xf0>
 8005d40:	2002      	movs	r0, #2
 8005d42:	e7cf      	b.n	8005ce4 <HAL_SPI_Transmit+0xfc>

08005d44 <HAL_SPI_TransmitReceive>:
 8005d44:	e92d 43f7 	stmdb	sp!, {r0, r1, r2, r4, r5, r6, r7, r8, r9, lr}
 8005d48:	461e      	mov	r6, r3
 8005d4a:	f890 3050 	ldrb.w	r3, [r0, #80]	; 0x50
 8005d4e:	9f0a      	ldr	r7, [sp, #40]	; 0x28
 8005d50:	2b01      	cmp	r3, #1
 8005d52:	4604      	mov	r4, r0
 8005d54:	460d      	mov	r5, r1
 8005d56:	4691      	mov	r9, r2
 8005d58:	f000 80e6 	beq.w	8005f28 <HAL_SPI_TransmitReceive+0x1e4>
 8005d5c:	2301      	movs	r3, #1
 8005d5e:	f880 3050 	strb.w	r3, [r0, #80]	; 0x50
 8005d62:	f7fd fb1b 	bl	800339c <HAL_GetTick>
 8005d66:	f894 3051 	ldrb.w	r3, [r4, #81]	; 0x51
 8005d6a:	6862      	ldr	r2, [r4, #4]
 8005d6c:	2b01      	cmp	r3, #1
 8005d6e:	4680      	mov	r8, r0
 8005d70:	b2d9      	uxtb	r1, r3
 8005d72:	d00a      	beq.n	8005d8a <HAL_SPI_TransmitReceive+0x46>
 8005d74:	f5b2 7f82 	cmp.w	r2, #260	; 0x104
 8005d78:	f040 80d4 	bne.w	8005f24 <HAL_SPI_TransmitReceive+0x1e0>
 8005d7c:	68a3      	ldr	r3, [r4, #8]
 8005d7e:	2b00      	cmp	r3, #0
 8005d80:	f040 80d0 	bne.w	8005f24 <HAL_SPI_TransmitReceive+0x1e0>
 8005d84:	2904      	cmp	r1, #4
 8005d86:	f040 80cd 	bne.w	8005f24 <HAL_SPI_TransmitReceive+0x1e0>
 8005d8a:	2d00      	cmp	r5, #0
 8005d8c:	d040      	beq.n	8005e10 <HAL_SPI_TransmitReceive+0xcc>
 8005d8e:	f1b9 0f00 	cmp.w	r9, #0
 8005d92:	d03d      	beq.n	8005e10 <HAL_SPI_TransmitReceive+0xcc>
 8005d94:	2e00      	cmp	r6, #0
 8005d96:	d03b      	beq.n	8005e10 <HAL_SPI_TransmitReceive+0xcc>
 8005d98:	f894 3051 	ldrb.w	r3, [r4, #81]	; 0x51
 8005d9c:	f8c4 9038 	str.w	r9, [r4, #56]	; 0x38
 8005da0:	2b04      	cmp	r3, #4
 8005da2:	bf1c      	itt	ne
 8005da4:	2305      	movne	r3, #5
 8005da6:	f884 3051 	strbne.w	r3, [r4, #81]	; 0x51
 8005daa:	2300      	movs	r3, #0
 8005dac:	6563      	str	r3, [r4, #84]	; 0x54
 8005dae:	e9c4 3310 	strd	r3, r3, [r4, #64]	; 0x40
 8005db2:	6823      	ldr	r3, [r4, #0]
 8005db4:	87e6      	strh	r6, [r4, #62]	; 0x3e
 8005db6:	86e6      	strh	r6, [r4, #54]	; 0x36
 8005db8:	6819      	ldr	r1, [r3, #0]
 8005dba:	87a6      	strh	r6, [r4, #60]	; 0x3c
 8005dbc:	0649      	lsls	r1, r1, #25
 8005dbe:	bf58      	it	pl
 8005dc0:	6819      	ldrpl	r1, [r3, #0]
 8005dc2:	6325      	str	r5, [r4, #48]	; 0x30
 8005dc4:	bf58      	it	pl
 8005dc6:	f041 0140 	orrpl.w	r1, r1, #64	; 0x40
 8005dca:	86a6      	strh	r6, [r4, #52]	; 0x34
 8005dcc:	bf58      	it	pl
 8005dce:	6019      	strpl	r1, [r3, #0]
 8005dd0:	68e1      	ldr	r1, [r4, #12]
 8005dd2:	f5b1 6f00 	cmp.w	r1, #2048	; 0x800
 8005dd6:	d152      	bne.n	8005e7e <HAL_SPI_TransmitReceive+0x13a>
 8005dd8:	b10a      	cbz	r2, 8005dde <HAL_SPI_TransmitReceive+0x9a>
 8005dda:	2e01      	cmp	r6, #1
 8005ddc:	d107      	bne.n	8005dee <HAL_SPI_TransmitReceive+0xaa>
 8005dde:	f835 2b02 	ldrh.w	r2, [r5], #2
 8005de2:	60da      	str	r2, [r3, #12]
 8005de4:	8ee3      	ldrh	r3, [r4, #54]	; 0x36
 8005de6:	6325      	str	r5, [r4, #48]	; 0x30
 8005de8:	3b01      	subs	r3, #1
 8005dea:	b29b      	uxth	r3, r3
 8005dec:	86e3      	strh	r3, [r4, #54]	; 0x36
 8005dee:	2501      	movs	r5, #1
 8005df0:	8ee3      	ldrh	r3, [r4, #54]	; 0x36
 8005df2:	b29b      	uxth	r3, r3
 8005df4:	b973      	cbnz	r3, 8005e14 <HAL_SPI_TransmitReceive+0xd0>
 8005df6:	8fe3      	ldrh	r3, [r4, #62]	; 0x3e
 8005df8:	b29b      	uxth	r3, r3
 8005dfa:	b95b      	cbnz	r3, 8005e14 <HAL_SPI_TransmitReceive+0xd0>
 8005dfc:	4642      	mov	r2, r8
 8005dfe:	4639      	mov	r1, r7
 8005e00:	4620      	mov	r0, r4
 8005e02:	f7ff fe69 	bl	8005ad8 <SPI_EndRxTxTransaction>
 8005e06:	2800      	cmp	r0, #0
 8005e08:	f000 8081 	beq.w	8005f0e <HAL_SPI_TransmitReceive+0x1ca>
 8005e0c:	2320      	movs	r3, #32
 8005e0e:	6563      	str	r3, [r4, #84]	; 0x54
 8005e10:	2001      	movs	r0, #1
 8005e12:	e02b      	b.n	8005e6c <HAL_SPI_TransmitReceive+0x128>
 8005e14:	6821      	ldr	r1, [r4, #0]
 8005e16:	688b      	ldr	r3, [r1, #8]
 8005e18:	079e      	lsls	r6, r3, #30
 8005e1a:	d50d      	bpl.n	8005e38 <HAL_SPI_TransmitReceive+0xf4>
 8005e1c:	8ee3      	ldrh	r3, [r4, #54]	; 0x36
 8005e1e:	b29b      	uxth	r3, r3
 8005e20:	b153      	cbz	r3, 8005e38 <HAL_SPI_TransmitReceive+0xf4>
 8005e22:	b14d      	cbz	r5, 8005e38 <HAL_SPI_TransmitReceive+0xf4>
 8005e24:	6b23      	ldr	r3, [r4, #48]	; 0x30
 8005e26:	f833 2b02 	ldrh.w	r2, [r3], #2
 8005e2a:	60ca      	str	r2, [r1, #12]
 8005e2c:	6323      	str	r3, [r4, #48]	; 0x30
 8005e2e:	8ee3      	ldrh	r3, [r4, #54]	; 0x36
 8005e30:	3b01      	subs	r3, #1
 8005e32:	b29b      	uxth	r3, r3
 8005e34:	86e3      	strh	r3, [r4, #54]	; 0x36
 8005e36:	2500      	movs	r5, #0
 8005e38:	688a      	ldr	r2, [r1, #8]
 8005e3a:	f012 0201 	ands.w	r2, r2, #1
 8005e3e:	d00c      	beq.n	8005e5a <HAL_SPI_TransmitReceive+0x116>
 8005e40:	8fe3      	ldrh	r3, [r4, #62]	; 0x3e
 8005e42:	b29b      	uxth	r3, r3
 8005e44:	b14b      	cbz	r3, 8005e5a <HAL_SPI_TransmitReceive+0x116>
 8005e46:	6ba3      	ldr	r3, [r4, #56]	; 0x38
 8005e48:	68c9      	ldr	r1, [r1, #12]
 8005e4a:	f823 1b02 	strh.w	r1, [r3], #2
 8005e4e:	63a3      	str	r3, [r4, #56]	; 0x38
 8005e50:	8fe3      	ldrh	r3, [r4, #62]	; 0x3e
 8005e52:	3b01      	subs	r3, #1
 8005e54:	b29b      	uxth	r3, r3
 8005e56:	87e3      	strh	r3, [r4, #62]	; 0x3e
 8005e58:	4615      	mov	r5, r2
 8005e5a:	f7fd fa9f 	bl	800339c <HAL_GetTick>
 8005e5e:	eba0 0008 	sub.w	r0, r0, r8
 8005e62:	42b8      	cmp	r0, r7
 8005e64:	d3c4      	bcc.n	8005df0 <HAL_SPI_TransmitReceive+0xac>
 8005e66:	1c78      	adds	r0, r7, #1
 8005e68:	d0c2      	beq.n	8005df0 <HAL_SPI_TransmitReceive+0xac>
 8005e6a:	2003      	movs	r0, #3
 8005e6c:	2301      	movs	r3, #1
 8005e6e:	f884 3051 	strb.w	r3, [r4, #81]	; 0x51
 8005e72:	2300      	movs	r3, #0
 8005e74:	f884 3050 	strb.w	r3, [r4, #80]	; 0x50
 8005e78:	b003      	add	sp, #12
 8005e7a:	e8bd 83f0 	ldmia.w	sp!, {r4, r5, r6, r7, r8, r9, pc}
 8005e7e:	b10a      	cbz	r2, 8005e84 <HAL_SPI_TransmitReceive+0x140>
 8005e80:	2e01      	cmp	r6, #1
 8005e82:	d108      	bne.n	8005e96 <HAL_SPI_TransmitReceive+0x152>
 8005e84:	782a      	ldrb	r2, [r5, #0]
 8005e86:	731a      	strb	r2, [r3, #12]
 8005e88:	6b23      	ldr	r3, [r4, #48]	; 0x30
 8005e8a:	3301      	adds	r3, #1
 8005e8c:	6323      	str	r3, [r4, #48]	; 0x30
 8005e8e:	8ee3      	ldrh	r3, [r4, #54]	; 0x36
 8005e90:	3b01      	subs	r3, #1
 8005e92:	b29b      	uxth	r3, r3
 8005e94:	86e3      	strh	r3, [r4, #54]	; 0x36
 8005e96:	2501      	movs	r5, #1
 8005e98:	e02d      	b.n	8005ef6 <HAL_SPI_TransmitReceive+0x1b2>
 8005e9a:	6822      	ldr	r2, [r4, #0]
 8005e9c:	6893      	ldr	r3, [r2, #8]
 8005e9e:	0799      	lsls	r1, r3, #30
 8005ea0:	d50e      	bpl.n	8005ec0 <HAL_SPI_TransmitReceive+0x17c>
 8005ea2:	8ee3      	ldrh	r3, [r4, #54]	; 0x36
 8005ea4:	b29b      	uxth	r3, r3
 8005ea6:	b15b      	cbz	r3, 8005ec0 <HAL_SPI_TransmitReceive+0x17c>
 8005ea8:	b155      	cbz	r5, 8005ec0 <HAL_SPI_TransmitReceive+0x17c>
 8005eaa:	6b23      	ldr	r3, [r4, #48]	; 0x30
 8005eac:	781b      	ldrb	r3, [r3, #0]
 8005eae:	7313      	strb	r3, [r2, #12]
 8005eb0:	6b23      	ldr	r3, [r4, #48]	; 0x30
 8005eb2:	3301      	adds	r3, #1
 8005eb4:	6323      	str	r3, [r4, #48]	; 0x30
 8005eb6:	8ee3      	ldrh	r3, [r4, #54]	; 0x36
 8005eb8:	3b01      	subs	r3, #1
 8005eba:	b29b      	uxth	r3, r3
 8005ebc:	86e3      	strh	r3, [r4, #54]	; 0x36
 8005ebe:	2500      	movs	r5, #0
 8005ec0:	6822      	ldr	r2, [r4, #0]
 8005ec2:	6891      	ldr	r1, [r2, #8]
 8005ec4:	f011 0101 	ands.w	r1, r1, #1
 8005ec8:	d00d      	beq.n	8005ee6 <HAL_SPI_TransmitReceive+0x1a2>
 8005eca:	8fe3      	ldrh	r3, [r4, #62]	; 0x3e
 8005ecc:	b29b      	uxth	r3, r3
 8005ece:	b153      	cbz	r3, 8005ee6 <HAL_SPI_TransmitReceive+0x1a2>
 8005ed0:	6ba3      	ldr	r3, [r4, #56]	; 0x38
 8005ed2:	68d2      	ldr	r2, [r2, #12]
 8005ed4:	701a      	strb	r2, [r3, #0]
 8005ed6:	6ba3      	ldr	r3, [r4, #56]	; 0x38
 8005ed8:	3301      	adds	r3, #1
 8005eda:	63a3      	str	r3, [r4, #56]	; 0x38
 8005edc:	8fe3      	ldrh	r3, [r4, #62]	; 0x3e
 8005ede:	3b01      	subs	r3, #1
 8005ee0:	b29b      	uxth	r3, r3
 8005ee2:	87e3      	strh	r3, [r4, #62]	; 0x3e
 8005ee4:	460d      	mov	r5, r1
 8005ee6:	f7fd fa59 	bl	800339c <HAL_GetTick>
 8005eea:	eba0 0008 	sub.w	r0, r0, r8
 8005eee:	42b8      	cmp	r0, r7
 8005ef0:	d30a      	bcc.n	8005f08 <HAL_SPI_TransmitReceive+0x1c4>
 8005ef2:	1c7b      	adds	r3, r7, #1
 8005ef4:	d1b9      	bne.n	8005e6a <HAL_SPI_TransmitReceive+0x126>
 8005ef6:	8ee3      	ldrh	r3, [r4, #54]	; 0x36
 8005ef8:	b29b      	uxth	r3, r3
 8005efa:	2b00      	cmp	r3, #0
 8005efc:	d1cd      	bne.n	8005e9a <HAL_SPI_TransmitReceive+0x156>
 8005efe:	8fe3      	ldrh	r3, [r4, #62]	; 0x3e
 8005f00:	b29b      	uxth	r3, r3
 8005f02:	2b00      	cmp	r3, #0
 8005f04:	d1c9      	bne.n	8005e9a <HAL_SPI_TransmitReceive+0x156>
 8005f06:	e779      	b.n	8005dfc <HAL_SPI_TransmitReceive+0xb8>
 8005f08:	2f00      	cmp	r7, #0
 8005f0a:	d1f4      	bne.n	8005ef6 <HAL_SPI_TransmitReceive+0x1b2>
 8005f0c:	e7ad      	b.n	8005e6a <HAL_SPI_TransmitReceive+0x126>
 8005f0e:	68a3      	ldr	r3, [r4, #8]
 8005f10:	2b00      	cmp	r3, #0
 8005f12:	d1ab      	bne.n	8005e6c <HAL_SPI_TransmitReceive+0x128>
 8005f14:	6823      	ldr	r3, [r4, #0]
 8005f16:	9001      	str	r0, [sp, #4]
 8005f18:	68da      	ldr	r2, [r3, #12]
 8005f1a:	9201      	str	r2, [sp, #4]
 8005f1c:	689b      	ldr	r3, [r3, #8]
 8005f1e:	9301      	str	r3, [sp, #4]
 8005f20:	9b01      	ldr	r3, [sp, #4]
 8005f22:	e7a3      	b.n	8005e6c <HAL_SPI_TransmitReceive+0x128>
 8005f24:	2002      	movs	r0, #2
 8005f26:	e7a1      	b.n	8005e6c <HAL_SPI_TransmitReceive+0x128>
 8005f28:	2002      	movs	r0, #2
 8005f2a:	e7a5      	b.n	8005e78 <HAL_SPI_TransmitReceive+0x134>

08005f2c <HAL_SPI_Receive>:
 8005f2c:	e92d 43f7 	stmdb	sp!, {r0, r1, r2, r4, r5, r6, r7, r8, r9, lr}
 8005f30:	461d      	mov	r5, r3
 8005f32:	6843      	ldr	r3, [r0, #4]
 8005f34:	f5b3 7f82 	cmp.w	r3, #260	; 0x104
 8005f38:	4604      	mov	r4, r0
 8005f3a:	4689      	mov	r9, r1
 8005f3c:	4617      	mov	r7, r2
 8005f3e:	d10c      	bne.n	8005f5a <HAL_SPI_Receive+0x2e>
 8005f40:	6883      	ldr	r3, [r0, #8]
 8005f42:	b953      	cbnz	r3, 8005f5a <HAL_SPI_Receive+0x2e>
 8005f44:	2304      	movs	r3, #4
 8005f46:	f880 3051 	strb.w	r3, [r0, #81]	; 0x51
 8005f4a:	4613      	mov	r3, r2
 8005f4c:	9500      	str	r5, [sp, #0]
 8005f4e:	460a      	mov	r2, r1
 8005f50:	f7ff fef8 	bl	8005d44 <HAL_SPI_TransmitReceive>
 8005f54:	b003      	add	sp, #12
 8005f56:	e8bd 83f0 	ldmia.w	sp!, {r4, r5, r6, r7, r8, r9, pc}
 8005f5a:	f894 3050 	ldrb.w	r3, [r4, #80]	; 0x50
 8005f5e:	2b01      	cmp	r3, #1
 8005f60:	f000 8086 	beq.w	8006070 <HAL_SPI_Receive+0x144>
 8005f64:	2301      	movs	r3, #1
 8005f66:	f884 3050 	strb.w	r3, [r4, #80]	; 0x50
 8005f6a:	f7fd fa17 	bl	800339c <HAL_GetTick>
 8005f6e:	f894 3051 	ldrb.w	r3, [r4, #81]	; 0x51
 8005f72:	2b01      	cmp	r3, #1
 8005f74:	4680      	mov	r8, r0
 8005f76:	b2d8      	uxtb	r0, r3
 8005f78:	d178      	bne.n	800606c <HAL_SPI_Receive+0x140>
 8005f7a:	f1b9 0f00 	cmp.w	r9, #0
 8005f7e:	d05c      	beq.n	800603a <HAL_SPI_Receive+0x10e>
 8005f80:	2f00      	cmp	r7, #0
 8005f82:	d05a      	beq.n	800603a <HAL_SPI_Receive+0x10e>
 8005f84:	68a2      	ldr	r2, [r4, #8]
 8005f86:	f8c4 9038 	str.w	r9, [r4, #56]	; 0x38
 8005f8a:	2600      	movs	r6, #0
 8005f8c:	2304      	movs	r3, #4
 8005f8e:	f5b2 4f00 	cmp.w	r2, #32768	; 0x8000
 8005f92:	f884 3051 	strb.w	r3, [r4, #81]	; 0x51
 8005f96:	e9c4 6610 	strd	r6, r6, [r4, #64]	; 0x40
 8005f9a:	6566      	str	r6, [r4, #84]	; 0x54
 8005f9c:	6823      	ldr	r3, [r4, #0]
 8005f9e:	87e7      	strh	r7, [r4, #62]	; 0x3e
 8005fa0:	87a7      	strh	r7, [r4, #60]	; 0x3c
 8005fa2:	6326      	str	r6, [r4, #48]	; 0x30
 8005fa4:	86a6      	strh	r6, [r4, #52]	; 0x34
 8005fa6:	86e6      	strh	r6, [r4, #54]	; 0x36
 8005fa8:	d107      	bne.n	8005fba <HAL_SPI_Receive+0x8e>
 8005faa:	681a      	ldr	r2, [r3, #0]
 8005fac:	f022 0240 	bic.w	r2, r2, #64	; 0x40
 8005fb0:	601a      	str	r2, [r3, #0]
 8005fb2:	681a      	ldr	r2, [r3, #0]
 8005fb4:	f422 4280 	bic.w	r2, r2, #16384	; 0x4000
 8005fb8:	601a      	str	r2, [r3, #0]
 8005fba:	681a      	ldr	r2, [r3, #0]
 8005fbc:	0656      	lsls	r6, r2, #25
 8005fbe:	bf5e      	ittt	pl
 8005fc0:	681a      	ldrpl	r2, [r3, #0]
 8005fc2:	f042 0240 	orrpl.w	r2, r2, #64	; 0x40
 8005fc6:	601a      	strpl	r2, [r3, #0]
 8005fc8:	68e3      	ldr	r3, [r4, #12]
 8005fca:	b1f3      	cbz	r3, 800600a <HAL_SPI_Receive+0xde>
 8005fcc:	8fe3      	ldrh	r3, [r4, #62]	; 0x3e
 8005fce:	b29b      	uxth	r3, r3
 8005fd0:	b1fb      	cbz	r3, 8006012 <HAL_SPI_Receive+0xe6>
 8005fd2:	6823      	ldr	r3, [r4, #0]
 8005fd4:	689a      	ldr	r2, [r3, #8]
 8005fd6:	07d2      	lsls	r2, r2, #31
 8005fd8:	d539      	bpl.n	800604e <HAL_SPI_Receive+0x122>
 8005fda:	68da      	ldr	r2, [r3, #12]
 8005fdc:	6ba3      	ldr	r3, [r4, #56]	; 0x38
 8005fde:	f823 2b02 	strh.w	r2, [r3], #2
 8005fe2:	63a3      	str	r3, [r4, #56]	; 0x38
 8005fe4:	8fe3      	ldrh	r3, [r4, #62]	; 0x3e
 8005fe6:	3b01      	subs	r3, #1
 8005fe8:	b29b      	uxth	r3, r3
 8005fea:	87e3      	strh	r3, [r4, #62]	; 0x3e
 8005fec:	e7ee      	b.n	8005fcc <HAL_SPI_Receive+0xa0>
 8005fee:	6823      	ldr	r3, [r4, #0]
 8005ff0:	689a      	ldr	r2, [r3, #8]
 8005ff2:	07d0      	lsls	r0, r2, #31
 8005ff4:	d518      	bpl.n	8006028 <HAL_SPI_Receive+0xfc>
 8005ff6:	6ba2      	ldr	r2, [r4, #56]	; 0x38
 8005ff8:	7b1b      	ldrb	r3, [r3, #12]
 8005ffa:	7013      	strb	r3, [r2, #0]
 8005ffc:	6ba3      	ldr	r3, [r4, #56]	; 0x38
 8005ffe:	3301      	adds	r3, #1
 8006000:	63a3      	str	r3, [r4, #56]	; 0x38
 8006002:	8fe3      	ldrh	r3, [r4, #62]	; 0x3e
 8006004:	3b01      	subs	r3, #1
 8006006:	b29b      	uxth	r3, r3
 8006008:	87e3      	strh	r3, [r4, #62]	; 0x3e
 800600a:	8fe3      	ldrh	r3, [r4, #62]	; 0x3e
 800600c:	b29b      	uxth	r3, r3
 800600e:	2b00      	cmp	r3, #0
 8006010:	d1ed      	bne.n	8005fee <HAL_SPI_Receive+0xc2>
 8006012:	4642      	mov	r2, r8
 8006014:	4629      	mov	r1, r5
 8006016:	4620      	mov	r0, r4
 8006018:	f7ff fd34 	bl	8005a84 <SPI_EndRxTransaction>
 800601c:	bb18      	cbnz	r0, 8006066 <HAL_SPI_Receive+0x13a>
 800601e:	6d60      	ldr	r0, [r4, #84]	; 0x54
 8006020:	3800      	subs	r0, #0
 8006022:	bf18      	it	ne
 8006024:	2001      	movne	r0, #1
 8006026:	e008      	b.n	800603a <HAL_SPI_Receive+0x10e>
 8006028:	f7fd f9b8 	bl	800339c <HAL_GetTick>
 800602c:	eba0 0008 	sub.w	r0, r0, r8
 8006030:	42a8      	cmp	r0, r5
 8006032:	d309      	bcc.n	8006048 <HAL_SPI_Receive+0x11c>
 8006034:	1c69      	adds	r1, r5, #1
 8006036:	d0e8      	beq.n	800600a <HAL_SPI_Receive+0xde>
 8006038:	2003      	movs	r0, #3
 800603a:	2301      	movs	r3, #1
 800603c:	f884 3051 	strb.w	r3, [r4, #81]	; 0x51
 8006040:	2300      	movs	r3, #0
 8006042:	f884 3050 	strb.w	r3, [r4, #80]	; 0x50
 8006046:	e785      	b.n	8005f54 <HAL_SPI_Receive+0x28>
 8006048:	2d00      	cmp	r5, #0
 800604a:	d1de      	bne.n	800600a <HAL_SPI_Receive+0xde>
 800604c:	e7f4      	b.n	8006038 <HAL_SPI_Receive+0x10c>
 800604e:	f7fd f9a5 	bl	800339c <HAL_GetTick>
 8006052:	eba0 0008 	sub.w	r0, r0, r8
 8006056:	42a8      	cmp	r0, r5
 8006058:	d302      	bcc.n	8006060 <HAL_SPI_Receive+0x134>
 800605a:	1c6b      	adds	r3, r5, #1
 800605c:	d0b6      	beq.n	8005fcc <HAL_SPI_Receive+0xa0>
 800605e:	e7eb      	b.n	8006038 <HAL_SPI_Receive+0x10c>
 8006060:	2d00      	cmp	r5, #0
 8006062:	d1b3      	bne.n	8005fcc <HAL_SPI_Receive+0xa0>
 8006064:	e7e8      	b.n	8006038 <HAL_SPI_Receive+0x10c>
 8006066:	2320      	movs	r3, #32
 8006068:	6563      	str	r3, [r4, #84]	; 0x54
 800606a:	e7d8      	b.n	800601e <HAL_SPI_Receive+0xf2>
 800606c:	2002      	movs	r0, #2
 800606e:	e7e4      	b.n	800603a <HAL_SPI_Receive+0x10e>
 8006070:	2002      	movs	r0, #2
 8006072:	e76f      	b.n	8005f54 <HAL_SPI_Receive+0x28>

08006074 <HAL_SPI_Transmit_DMA>:
 8006074:	b538      	push	{r3, r4, r5, lr}
 8006076:	f890 3050 	ldrb.w	r3, [r0, #80]	; 0x50
 800607a:	2b01      	cmp	r3, #1
 800607c:	4604      	mov	r4, r0
 800607e:	d054      	beq.n	800612a <HAL_SPI_Transmit_DMA+0xb6>
 8006080:	2301      	movs	r3, #1
 8006082:	f880 3050 	strb.w	r3, [r0, #80]	; 0x50
 8006086:	f890 3051 	ldrb.w	r3, [r0, #81]	; 0x51
 800608a:	2b01      	cmp	r3, #1
 800608c:	b2dd      	uxtb	r5, r3
 800608e:	d14a      	bne.n	8006126 <HAL_SPI_Transmit_DMA+0xb2>
 8006090:	2900      	cmp	r1, #0
 8006092:	d031      	beq.n	80060f8 <HAL_SPI_Transmit_DMA+0x84>
 8006094:	2a00      	cmp	r2, #0
 8006096:	d02f      	beq.n	80060f8 <HAL_SPI_Transmit_DMA+0x84>
 8006098:	2303      	movs	r3, #3
 800609a:	f880 3051 	strb.w	r3, [r0, #81]	; 0x51
 800609e:	2300      	movs	r3, #0
 80060a0:	6543      	str	r3, [r0, #84]	; 0x54
 80060a2:	e9c0 3310 	strd	r3, r3, [r0, #64]	; 0x40
 80060a6:	86c2      	strh	r2, [r0, #54]	; 0x36
 80060a8:	6383      	str	r3, [r0, #56]	; 0x38
 80060aa:	8783      	strh	r3, [r0, #60]	; 0x3c
 80060ac:	87c3      	strh	r3, [r0, #62]	; 0x3e
 80060ae:	6883      	ldr	r3, [r0, #8]
 80060b0:	8682      	strh	r2, [r0, #52]	; 0x34
 80060b2:	f5b3 4f00 	cmp.w	r3, #32768	; 0x8000
 80060b6:	6802      	ldr	r2, [r0, #0]
 80060b8:	6301      	str	r1, [r0, #48]	; 0x30
 80060ba:	d107      	bne.n	80060cc <HAL_SPI_Transmit_DMA+0x58>
 80060bc:	6813      	ldr	r3, [r2, #0]
 80060be:	f023 0340 	bic.w	r3, r3, #64	; 0x40
 80060c2:	6013      	str	r3, [r2, #0]
 80060c4:	6813      	ldr	r3, [r2, #0]
 80060c6:	f443 4380 	orr.w	r3, r3, #16384	; 0x4000
 80060ca:	6013      	str	r3, [r2, #0]
 80060cc:	6ca0      	ldr	r0, [r4, #72]	; 0x48
 80060ce:	4b18      	ldr	r3, [pc, #96]	; (8006130 <HAL_SPI_Transmit_DMA+0xbc>)
 80060d0:	6403      	str	r3, [r0, #64]	; 0x40
 80060d2:	4b18      	ldr	r3, [pc, #96]	; (8006134 <HAL_SPI_Transmit_DMA+0xc0>)
 80060d4:	63c3      	str	r3, [r0, #60]	; 0x3c
 80060d6:	4b18      	ldr	r3, [pc, #96]	; (8006138 <HAL_SPI_Transmit_DMA+0xc4>)
 80060d8:	64c3      	str	r3, [r0, #76]	; 0x4c
 80060da:	2300      	movs	r3, #0
 80060dc:	6503      	str	r3, [r0, #80]	; 0x50
 80060de:	8ee3      	ldrh	r3, [r4, #54]	; 0x36
 80060e0:	320c      	adds	r2, #12
 80060e2:	b29b      	uxth	r3, r3
 80060e4:	f7fd face 	bl	8003684 <HAL_DMA_Start_IT>
 80060e8:	b158      	cbz	r0, 8006102 <HAL_SPI_Transmit_DMA+0x8e>
 80060ea:	6d63      	ldr	r3, [r4, #84]	; 0x54
 80060ec:	f043 0310 	orr.w	r3, r3, #16
 80060f0:	6563      	str	r3, [r4, #84]	; 0x54
 80060f2:	2301      	movs	r3, #1
 80060f4:	f884 3051 	strb.w	r3, [r4, #81]	; 0x51
 80060f8:	2300      	movs	r3, #0
 80060fa:	f884 3050 	strb.w	r3, [r4, #80]	; 0x50
 80060fe:	4628      	mov	r0, r5
 8006100:	bd38      	pop	{r3, r4, r5, pc}
 8006102:	6823      	ldr	r3, [r4, #0]
 8006104:	681a      	ldr	r2, [r3, #0]
 8006106:	0652      	lsls	r2, r2, #25
 8006108:	bf5e      	ittt	pl
 800610a:	681a      	ldrpl	r2, [r3, #0]
 800610c:	f042 0240 	orrpl.w	r2, r2, #64	; 0x40
 8006110:	601a      	strpl	r2, [r3, #0]
 8006112:	685a      	ldr	r2, [r3, #4]
 8006114:	f042 0220 	orr.w	r2, r2, #32
 8006118:	605a      	str	r2, [r3, #4]
 800611a:	685a      	ldr	r2, [r3, #4]
 800611c:	f042 0202 	orr.w	r2, r2, #2
 8006120:	605a      	str	r2, [r3, #4]
 8006122:	2500      	movs	r5, #0
 8006124:	e7e8      	b.n	80060f8 <HAL_SPI_Transmit_DMA+0x84>
 8006126:	2502      	movs	r5, #2
 8006128:	e7e6      	b.n	80060f8 <HAL_SPI_Transmit_DMA+0x84>
 800612a:	2502      	movs	r5, #2
 800612c:	e7e7      	b.n	80060fe <HAL_SPI_Transmit_DMA+0x8a>
 800612e:	bf00      	nop
 8006130:	0800613f 	.word	0x0800613f
 8006134:	0800616b 	.word	0x0800616b
 8006138:	08006149 	.word	0x08006149

0800613c <HAL_SPI_TxHalfCpltCallback>:
 800613c:	4770      	bx	lr

0800613e <SPI_DMAHalfTransmitCplt>:
 800613e:	b508      	push	{r3, lr}
 8006140:	6b80      	ldr	r0, [r0, #56]	; 0x38
 8006142:	f7ff fffb 	bl	800613c <HAL_SPI_TxHalfCpltCallback>
 8006146:	bd08      	pop	{r3, pc}

08006148 <SPI_DMAError>:
 8006148:	6b80      	ldr	r0, [r0, #56]	; 0x38
 800614a:	6802      	ldr	r2, [r0, #0]
 800614c:	b508      	push	{r3, lr}
 800614e:	6853      	ldr	r3, [r2, #4]
 8006150:	f023 0303 	bic.w	r3, r3, #3
 8006154:	6053      	str	r3, [r2, #4]
 8006156:	6d43      	ldr	r3, [r0, #84]	; 0x54
 8006158:	f043 0310 	orr.w	r3, r3, #16
 800615c:	6543      	str	r3, [r0, #84]	; 0x54
 800615e:	2301      	movs	r3, #1
 8006160:	f880 3051 	strb.w	r3, [r0, #81]	; 0x51
 8006164:	f7fb ffac 	bl	80020c0 <HAL_SPI_ErrorCallback>
 8006168:	bd08      	pop	{r3, pc}

0800616a <SPI_DMATransmitCplt>:
 800616a:	b537      	push	{r0, r1, r2, r4, r5, lr}
 800616c:	4605      	mov	r5, r0
 800616e:	6b84      	ldr	r4, [r0, #56]	; 0x38
 8006170:	f7fd f914 	bl	800339c <HAL_GetTick>
 8006174:	682b      	ldr	r3, [r5, #0]
 8006176:	681b      	ldr	r3, [r3, #0]
 8006178:	05db      	lsls	r3, r3, #23
 800617a:	4602      	mov	r2, r0
 800617c:	d426      	bmi.n	80061cc <SPI_DMATransmitCplt+0x62>
 800617e:	6823      	ldr	r3, [r4, #0]
 8006180:	6859      	ldr	r1, [r3, #4]
 8006182:	f021 0120 	bic.w	r1, r1, #32
 8006186:	6059      	str	r1, [r3, #4]
 8006188:	6859      	ldr	r1, [r3, #4]
 800618a:	f021 0102 	bic.w	r1, r1, #2
 800618e:	6059      	str	r1, [r3, #4]
 8006190:	4620      	mov	r0, r4
 8006192:	2164      	movs	r1, #100	; 0x64
 8006194:	f7ff fca0 	bl	8005ad8 <SPI_EndRxTxTransaction>
 8006198:	b118      	cbz	r0, 80061a2 <SPI_DMATransmitCplt+0x38>
 800619a:	6d63      	ldr	r3, [r4, #84]	; 0x54
 800619c:	f043 0320 	orr.w	r3, r3, #32
 80061a0:	6563      	str	r3, [r4, #84]	; 0x54
 80061a2:	68a3      	ldr	r3, [r4, #8]
 80061a4:	b933      	cbnz	r3, 80061b4 <SPI_DMATransmitCplt+0x4a>
 80061a6:	9301      	str	r3, [sp, #4]
 80061a8:	6823      	ldr	r3, [r4, #0]
 80061aa:	68da      	ldr	r2, [r3, #12]
 80061ac:	9201      	str	r2, [sp, #4]
 80061ae:	689b      	ldr	r3, [r3, #8]
 80061b0:	9301      	str	r3, [sp, #4]
 80061b2:	9b01      	ldr	r3, [sp, #4]
 80061b4:	2300      	movs	r3, #0
 80061b6:	86e3      	strh	r3, [r4, #54]	; 0x36
 80061b8:	2301      	movs	r3, #1
 80061ba:	f884 3051 	strb.w	r3, [r4, #81]	; 0x51
 80061be:	6d63      	ldr	r3, [r4, #84]	; 0x54
 80061c0:	b123      	cbz	r3, 80061cc <SPI_DMATransmitCplt+0x62>
 80061c2:	4620      	mov	r0, r4
 80061c4:	f7fb ff7c 	bl	80020c0 <HAL_SPI_ErrorCallback>
 80061c8:	b003      	add	sp, #12
 80061ca:	bd30      	pop	{r4, r5, pc}
 80061cc:	4620      	mov	r0, r4
 80061ce:	f7fb ff6b 	bl	80020a8 <HAL_SPI_TxCpltCallback>
 80061d2:	e7f9      	b.n	80061c8 <SPI_DMATransmitCplt+0x5e>

080061d4 <HAL_SPI_IRQHandler>:
 80061d4:	b5f0      	push	{r4, r5, r6, r7, lr}
 80061d6:	6803      	ldr	r3, [r0, #0]
 80061d8:	685d      	ldr	r5, [r3, #4]
 80061da:	689a      	ldr	r2, [r3, #8]
 80061dc:	0656      	lsls	r6, r2, #25
 80061de:	b085      	sub	sp, #20
 80061e0:	4604      	mov	r4, r0
 80061e2:	ea4f 1192 	mov.w	r1, r2, lsr #6
 80061e6:	f3c2 1780 	ubfx	r7, r2, #6, #1
 80061ea:	d408      	bmi.n	80061fe <HAL_SPI_IRQHandler+0x2a>
 80061ec:	07d6      	lsls	r6, r2, #31
 80061ee:	d506      	bpl.n	80061fe <HAL_SPI_IRQHandler+0x2a>
 80061f0:	066e      	lsls	r6, r5, #25
 80061f2:	d504      	bpl.n	80061fe <HAL_SPI_IRQHandler+0x2a>
 80061f4:	6c03      	ldr	r3, [r0, #64]	; 0x40
 80061f6:	b005      	add	sp, #20
 80061f8:	e8bd 40f0 	ldmia.w	sp!, {r4, r5, r6, r7, lr}
 80061fc:	4718      	bx	r3
 80061fe:	0796      	lsls	r6, r2, #30
 8006200:	d504      	bpl.n	800620c <HAL_SPI_IRQHandler+0x38>
 8006202:	0628      	lsls	r0, r5, #24
 8006204:	d502      	bpl.n	800620c <HAL_SPI_IRQHandler+0x38>
 8006206:	6c63      	ldr	r3, [r4, #68]	; 0x44
 8006208:	4620      	mov	r0, r4
 800620a:	e7f4      	b.n	80061f6 <HAL_SPI_IRQHandler+0x22>
 800620c:	ea41 1152 	orr.w	r1, r1, r2, lsr #5
 8006210:	f3c2 2000 	ubfx	r0, r2, #8, #1
 8006214:	f001 0101 	and.w	r1, r1, #1
 8006218:	0956      	lsrs	r6, r2, #5
 800621a:	ea51 0200 	orrs.w	r2, r1, r0
 800621e:	d057      	beq.n	80062d0 <HAL_SPI_IRQHandler+0xfc>
 8006220:	06aa      	lsls	r2, r5, #26
 8006222:	d555      	bpl.n	80062d0 <HAL_SPI_IRQHandler+0xfc>
 8006224:	b17f      	cbz	r7, 8006246 <HAL_SPI_IRQHandler+0x72>
 8006226:	f894 2051 	ldrb.w	r2, [r4, #81]	; 0x51
 800622a:	2a03      	cmp	r2, #3
 800622c:	f04f 0100 	mov.w	r1, #0
 8006230:	d048      	beq.n	80062c4 <HAL_SPI_IRQHandler+0xf0>
 8006232:	6d62      	ldr	r2, [r4, #84]	; 0x54
 8006234:	f042 0204 	orr.w	r2, r2, #4
 8006238:	6562      	str	r2, [r4, #84]	; 0x54
 800623a:	9100      	str	r1, [sp, #0]
 800623c:	68da      	ldr	r2, [r3, #12]
 800623e:	9200      	str	r2, [sp, #0]
 8006240:	689a      	ldr	r2, [r3, #8]
 8006242:	9200      	str	r2, [sp, #0]
 8006244:	9a00      	ldr	r2, [sp, #0]
 8006246:	07f1      	lsls	r1, r6, #31
 8006248:	d50c      	bpl.n	8006264 <HAL_SPI_IRQHandler+0x90>
 800624a:	6d62      	ldr	r2, [r4, #84]	; 0x54
 800624c:	f042 0201 	orr.w	r2, r2, #1
 8006250:	6562      	str	r2, [r4, #84]	; 0x54
 8006252:	2200      	movs	r2, #0
 8006254:	9202      	str	r2, [sp, #8]
 8006256:	689a      	ldr	r2, [r3, #8]
 8006258:	9202      	str	r2, [sp, #8]
 800625a:	681a      	ldr	r2, [r3, #0]
 800625c:	f022 0240 	bic.w	r2, r2, #64	; 0x40
 8006260:	601a      	str	r2, [r3, #0]
 8006262:	9a02      	ldr	r2, [sp, #8]
 8006264:	b140      	cbz	r0, 8006278 <HAL_SPI_IRQHandler+0xa4>
 8006266:	6d62      	ldr	r2, [r4, #84]	; 0x54
 8006268:	f042 0208 	orr.w	r2, r2, #8
 800626c:	6562      	str	r2, [r4, #84]	; 0x54
 800626e:	2200      	movs	r2, #0
 8006270:	9203      	str	r2, [sp, #12]
 8006272:	689a      	ldr	r2, [r3, #8]
 8006274:	9203      	str	r2, [sp, #12]
 8006276:	9a03      	ldr	r2, [sp, #12]
 8006278:	6d62      	ldr	r2, [r4, #84]	; 0x54
 800627a:	b34a      	cbz	r2, 80062d0 <HAL_SPI_IRQHandler+0xfc>
 800627c:	685a      	ldr	r2, [r3, #4]
 800627e:	f022 02e0 	bic.w	r2, r2, #224	; 0xe0
 8006282:	605a      	str	r2, [r3, #4]
 8006284:	2201      	movs	r2, #1
 8006286:	f884 2051 	strb.w	r2, [r4, #81]	; 0x51
 800628a:	07aa      	lsls	r2, r5, #30
 800628c:	d022      	beq.n	80062d4 <HAL_SPI_IRQHandler+0x100>
 800628e:	685a      	ldr	r2, [r3, #4]
 8006290:	6ce0      	ldr	r0, [r4, #76]	; 0x4c
 8006292:	f022 0203 	bic.w	r2, r2, #3
 8006296:	605a      	str	r2, [r3, #4]
 8006298:	b140      	cbz	r0, 80062ac <HAL_SPI_IRQHandler+0xd8>
 800629a:	4b10      	ldr	r3, [pc, #64]	; (80062dc <HAL_SPI_IRQHandler+0x108>)
 800629c:	6503      	str	r3, [r0, #80]	; 0x50
 800629e:	f7fd fa2b 	bl	80036f8 <HAL_DMA_Abort_IT>
 80062a2:	b118      	cbz	r0, 80062ac <HAL_SPI_IRQHandler+0xd8>
 80062a4:	6d63      	ldr	r3, [r4, #84]	; 0x54
 80062a6:	f043 0340 	orr.w	r3, r3, #64	; 0x40
 80062aa:	6563      	str	r3, [r4, #84]	; 0x54
 80062ac:	6ca0      	ldr	r0, [r4, #72]	; 0x48
 80062ae:	b178      	cbz	r0, 80062d0 <HAL_SPI_IRQHandler+0xfc>
 80062b0:	4b0a      	ldr	r3, [pc, #40]	; (80062dc <HAL_SPI_IRQHandler+0x108>)
 80062b2:	6503      	str	r3, [r0, #80]	; 0x50
 80062b4:	f7fd fa20 	bl	80036f8 <HAL_DMA_Abort_IT>
 80062b8:	b150      	cbz	r0, 80062d0 <HAL_SPI_IRQHandler+0xfc>
 80062ba:	6d63      	ldr	r3, [r4, #84]	; 0x54
 80062bc:	f043 0340 	orr.w	r3, r3, #64	; 0x40
 80062c0:	6563      	str	r3, [r4, #84]	; 0x54
 80062c2:	e005      	b.n	80062d0 <HAL_SPI_IRQHandler+0xfc>
 80062c4:	9101      	str	r1, [sp, #4]
 80062c6:	68da      	ldr	r2, [r3, #12]
 80062c8:	9201      	str	r2, [sp, #4]
 80062ca:	689b      	ldr	r3, [r3, #8]
 80062cc:	9301      	str	r3, [sp, #4]
 80062ce:	9b01      	ldr	r3, [sp, #4]
 80062d0:	b005      	add	sp, #20
 80062d2:	bdf0      	pop	{r4, r5, r6, r7, pc}
 80062d4:	4620      	mov	r0, r4
 80062d6:	f7fb fef3 	bl	80020c0 <HAL_SPI_ErrorCallback>
 80062da:	e7f9      	b.n	80062d0 <HAL_SPI_IRQHandler+0xfc>
 80062dc:	080062e1 	.word	0x080062e1

080062e0 <SPI_DMAAbortOnError>:
 80062e0:	b508      	push	{r3, lr}
 80062e2:	6b80      	ldr	r0, [r0, #56]	; 0x38
 80062e4:	2300      	movs	r3, #0
 80062e6:	87c3      	strh	r3, [r0, #62]	; 0x3e
 80062e8:	86c3      	strh	r3, [r0, #54]	; 0x36
 80062ea:	f7fb fee9 	bl	80020c0 <HAL_SPI_ErrorCallback>
 80062ee:	bd08      	pop	{r3, pc}

080062f0 <TIM_OC1_SetConfig>:
 80062f0:	6a03      	ldr	r3, [r0, #32]
 80062f2:	f023 0301 	bic.w	r3, r3, #1
 80062f6:	6203      	str	r3, [r0, #32]
 80062f8:	6a03      	ldr	r3, [r0, #32]
 80062fa:	b570      	push	{r4, r5, r6, lr}
 80062fc:	6844      	ldr	r4, [r0, #4]
 80062fe:	6982      	ldr	r2, [r0, #24]
 8006300:	680d      	ldr	r5, [r1, #0]
 8006302:	f022 0273 	bic.w	r2, r2, #115	; 0x73
 8006306:	432a      	orrs	r2, r5
 8006308:	688d      	ldr	r5, [r1, #8]
 800630a:	f023 0302 	bic.w	r3, r3, #2
 800630e:	432b      	orrs	r3, r5
 8006310:	4d0e      	ldr	r5, [pc, #56]	; (800634c <TIM_OC1_SetConfig+0x5c>)
 8006312:	42a8      	cmp	r0, r5
 8006314:	d002      	beq.n	800631c <TIM_OC1_SetConfig+0x2c>
 8006316:	4e0e      	ldr	r6, [pc, #56]	; (8006350 <TIM_OC1_SetConfig+0x60>)
 8006318:	42b0      	cmp	r0, r6
 800631a:	d110      	bne.n	800633e <TIM_OC1_SetConfig+0x4e>
 800631c:	68ce      	ldr	r6, [r1, #12]
 800631e:	f023 0308 	bic.w	r3, r3, #8
 8006322:	4333      	orrs	r3, r6
 8006324:	42a8      	cmp	r0, r5
 8006326:	f023 0304 	bic.w	r3, r3, #4
 800632a:	d002      	beq.n	8006332 <TIM_OC1_SetConfig+0x42>
 800632c:	4d08      	ldr	r5, [pc, #32]	; (8006350 <TIM_OC1_SetConfig+0x60>)
 800632e:	42a8      	cmp	r0, r5
 8006330:	d105      	bne.n	800633e <TIM_OC1_SetConfig+0x4e>
 8006332:	e9d1 5605 	ldrd	r5, r6, [r1, #20]
 8006336:	f424 7440 	bic.w	r4, r4, #768	; 0x300
 800633a:	4335      	orrs	r5, r6
 800633c:	432c      	orrs	r4, r5
 800633e:	6044      	str	r4, [r0, #4]
 8006340:	6182      	str	r2, [r0, #24]
 8006342:	684a      	ldr	r2, [r1, #4]
 8006344:	6342      	str	r2, [r0, #52]	; 0x34
 8006346:	6203      	str	r3, [r0, #32]
 8006348:	bd70      	pop	{r4, r5, r6, pc}
 800634a:	bf00      	nop
 800634c:	40010000 	.word	0x40010000
 8006350:	40010400 	.word	0x40010400

08006354 <TIM_OC3_SetConfig>:
 8006354:	6a03      	ldr	r3, [r0, #32]
 8006356:	f423 7380 	bic.w	r3, r3, #256	; 0x100
 800635a:	6203      	str	r3, [r0, #32]
 800635c:	6a03      	ldr	r3, [r0, #32]
 800635e:	b570      	push	{r4, r5, r6, lr}
 8006360:	6844      	ldr	r4, [r0, #4]
 8006362:	69c2      	ldr	r2, [r0, #28]
 8006364:	680d      	ldr	r5, [r1, #0]
 8006366:	f022 0273 	bic.w	r2, r2, #115	; 0x73
 800636a:	432a      	orrs	r2, r5
 800636c:	688d      	ldr	r5, [r1, #8]
 800636e:	f423 7300 	bic.w	r3, r3, #512	; 0x200
 8006372:	ea43 2305 	orr.w	r3, r3, r5, lsl #8
 8006376:	4d11      	ldr	r5, [pc, #68]	; (80063bc <TIM_OC3_SetConfig+0x68>)
 8006378:	42a8      	cmp	r0, r5
 800637a:	d003      	beq.n	8006384 <TIM_OC3_SetConfig+0x30>
 800637c:	f505 6580 	add.w	r5, r5, #1024	; 0x400
 8006380:	42a8      	cmp	r0, r5
 8006382:	d114      	bne.n	80063ae <TIM_OC3_SetConfig+0x5a>
 8006384:	68cd      	ldr	r5, [r1, #12]
 8006386:	f423 6300 	bic.w	r3, r3, #2048	; 0x800
 800638a:	ea43 2305 	orr.w	r3, r3, r5, lsl #8
 800638e:	4d0b      	ldr	r5, [pc, #44]	; (80063bc <TIM_OC3_SetConfig+0x68>)
 8006390:	42a8      	cmp	r0, r5
 8006392:	f423 6380 	bic.w	r3, r3, #1024	; 0x400
 8006396:	d003      	beq.n	80063a0 <TIM_OC3_SetConfig+0x4c>
 8006398:	f505 6580 	add.w	r5, r5, #1024	; 0x400
 800639c:	42a8      	cmp	r0, r5
 800639e:	d106      	bne.n	80063ae <TIM_OC3_SetConfig+0x5a>
 80063a0:	e9d1 5605 	ldrd	r5, r6, [r1, #20]
 80063a4:	f424 5440 	bic.w	r4, r4, #12288	; 0x3000
 80063a8:	4335      	orrs	r5, r6
 80063aa:	ea44 1405 	orr.w	r4, r4, r5, lsl #4
 80063ae:	6044      	str	r4, [r0, #4]
 80063b0:	61c2      	str	r2, [r0, #28]
 80063b2:	684a      	ldr	r2, [r1, #4]
 80063b4:	63c2      	str	r2, [r0, #60]	; 0x3c
 80063b6:	6203      	str	r3, [r0, #32]
 80063b8:	bd70      	pop	{r4, r5, r6, pc}
 80063ba:	bf00      	nop
 80063bc:	40010000 	.word	0x40010000

080063c0 <TIM_OC4_SetConfig>:
 80063c0:	6a03      	ldr	r3, [r0, #32]
 80063c2:	f423 5380 	bic.w	r3, r3, #4096	; 0x1000
 80063c6:	6203      	str	r3, [r0, #32]
 80063c8:	6a03      	ldr	r3, [r0, #32]
 80063ca:	b530      	push	{r4, r5, lr}
 80063cc:	6844      	ldr	r4, [r0, #4]
 80063ce:	69c2      	ldr	r2, [r0, #28]
 80063d0:	680d      	ldr	r5, [r1, #0]
 80063d2:	f422 42e6 	bic.w	r2, r2, #29440	; 0x7300
 80063d6:	ea42 2205 	orr.w	r2, r2, r5, lsl #8
 80063da:	688d      	ldr	r5, [r1, #8]
 80063dc:	f423 5300 	bic.w	r3, r3, #8192	; 0x2000
 80063e0:	ea43 3305 	orr.w	r3, r3, r5, lsl #12
 80063e4:	4d08      	ldr	r5, [pc, #32]	; (8006408 <TIM_OC4_SetConfig+0x48>)
 80063e6:	42a8      	cmp	r0, r5
 80063e8:	d003      	beq.n	80063f2 <TIM_OC4_SetConfig+0x32>
 80063ea:	f505 6580 	add.w	r5, r5, #1024	; 0x400
 80063ee:	42a8      	cmp	r0, r5
 80063f0:	d104      	bne.n	80063fc <TIM_OC4_SetConfig+0x3c>
 80063f2:	694d      	ldr	r5, [r1, #20]
 80063f4:	f424 4480 	bic.w	r4, r4, #16384	; 0x4000
 80063f8:	ea44 1485 	orr.w	r4, r4, r5, lsl #6
 80063fc:	6044      	str	r4, [r0, #4]
 80063fe:	61c2      	str	r2, [r0, #28]
 8006400:	684a      	ldr	r2, [r1, #4]
 8006402:	6402      	str	r2, [r0, #64]	; 0x40
 8006404:	6203      	str	r3, [r0, #32]
 8006406:	bd30      	pop	{r4, r5, pc}
 8006408:	40010000 	.word	0x40010000

0800640c <TIM_Base_SetConfig>:
 800640c:	4a30      	ldr	r2, [pc, #192]	; (80064d0 <TIM_Base_SetConfig+0xc4>)
 800640e:	6803      	ldr	r3, [r0, #0]
 8006410:	4290      	cmp	r0, r2
 8006412:	d012      	beq.n	800643a <TIM_Base_SetConfig+0x2e>
 8006414:	f1b0 4f80 	cmp.w	r0, #1073741824	; 0x40000000
 8006418:	d00f      	beq.n	800643a <TIM_Base_SetConfig+0x2e>
 800641a:	f5a2 427c 	sub.w	r2, r2, #64512	; 0xfc00
 800641e:	4290      	cmp	r0, r2
 8006420:	d00b      	beq.n	800643a <TIM_Base_SetConfig+0x2e>
 8006422:	f502 6280 	add.w	r2, r2, #1024	; 0x400
 8006426:	4290      	cmp	r0, r2
 8006428:	d007      	beq.n	800643a <TIM_Base_SetConfig+0x2e>
 800642a:	f502 6280 	add.w	r2, r2, #1024	; 0x400
 800642e:	4290      	cmp	r0, r2
 8006430:	d003      	beq.n	800643a <TIM_Base_SetConfig+0x2e>
 8006432:	f502 4278 	add.w	r2, r2, #63488	; 0xf800
 8006436:	4290      	cmp	r0, r2
 8006438:	d119      	bne.n	800646e <TIM_Base_SetConfig+0x62>
 800643a:	684a      	ldr	r2, [r1, #4]
 800643c:	f023 0370 	bic.w	r3, r3, #112	; 0x70
 8006440:	4313      	orrs	r3, r2
 8006442:	4a23      	ldr	r2, [pc, #140]	; (80064d0 <TIM_Base_SetConfig+0xc4>)
 8006444:	4290      	cmp	r0, r2
 8006446:	d029      	beq.n	800649c <TIM_Base_SetConfig+0x90>
 8006448:	f1b0 4f80 	cmp.w	r0, #1073741824	; 0x40000000
 800644c:	d026      	beq.n	800649c <TIM_Base_SetConfig+0x90>
 800644e:	f5a2 427c 	sub.w	r2, r2, #64512	; 0xfc00
 8006452:	4290      	cmp	r0, r2
 8006454:	d022      	beq.n	800649c <TIM_Base_SetConfig+0x90>
 8006456:	f502 6280 	add.w	r2, r2, #1024	; 0x400
 800645a:	4290      	cmp	r0, r2
 800645c:	d01e      	beq.n	800649c <TIM_Base_SetConfig+0x90>
 800645e:	f502 6280 	add.w	r2, r2, #1024	; 0x400
 8006462:	4290      	cmp	r0, r2
 8006464:	d01a      	beq.n	800649c <TIM_Base_SetConfig+0x90>
 8006466:	f502 4278 	add.w	r2, r2, #63488	; 0xf800
 800646a:	4290      	cmp	r0, r2
 800646c:	d016      	beq.n	800649c <TIM_Base_SetConfig+0x90>
 800646e:	4a19      	ldr	r2, [pc, #100]	; (80064d4 <TIM_Base_SetConfig+0xc8>)
 8006470:	4290      	cmp	r0, r2
 8006472:	d013      	beq.n	800649c <TIM_Base_SetConfig+0x90>
 8006474:	f502 6280 	add.w	r2, r2, #1024	; 0x400
 8006478:	4290      	cmp	r0, r2
 800647a:	d00f      	beq.n	800649c <TIM_Base_SetConfig+0x90>
 800647c:	f502 6280 	add.w	r2, r2, #1024	; 0x400
 8006480:	4290      	cmp	r0, r2
 8006482:	d00b      	beq.n	800649c <TIM_Base_SetConfig+0x90>
 8006484:	f5a2 3298 	sub.w	r2, r2, #77824	; 0x13000
 8006488:	4290      	cmp	r0, r2
 800648a:	d007      	beq.n	800649c <TIM_Base_SetConfig+0x90>
 800648c:	f502 6280 	add.w	r2, r2, #1024	; 0x400
 8006490:	4290      	cmp	r0, r2
 8006492:	d003      	beq.n	800649c <TIM_Base_SetConfig+0x90>
 8006494:	f502 6280 	add.w	r2, r2, #1024	; 0x400
 8006498:	4290      	cmp	r0, r2
 800649a:	d103      	bne.n	80064a4 <TIM_Base_SetConfig+0x98>
 800649c:	68ca      	ldr	r2, [r1, #12]
 800649e:	f423 7340 	bic.w	r3, r3, #768	; 0x300
 80064a2:	4313      	orrs	r3, r2
 80064a4:	694a      	ldr	r2, [r1, #20]
 80064a6:	f023 0380 	bic.w	r3, r3, #128	; 0x80
 80064aa:	4313      	orrs	r3, r2
 80064ac:	6003      	str	r3, [r0, #0]
 80064ae:	688b      	ldr	r3, [r1, #8]
 80064b0:	62c3      	str	r3, [r0, #44]	; 0x2c
 80064b2:	680b      	ldr	r3, [r1, #0]
 80064b4:	6283      	str	r3, [r0, #40]	; 0x28
 80064b6:	4b06      	ldr	r3, [pc, #24]	; (80064d0 <TIM_Base_SetConfig+0xc4>)
 80064b8:	4298      	cmp	r0, r3
 80064ba:	d003      	beq.n	80064c4 <TIM_Base_SetConfig+0xb8>
 80064bc:	f503 6380 	add.w	r3, r3, #1024	; 0x400
 80064c0:	4298      	cmp	r0, r3
 80064c2:	d101      	bne.n	80064c8 <TIM_Base_SetConfig+0xbc>
 80064c4:	690b      	ldr	r3, [r1, #16]
 80064c6:	6303      	str	r3, [r0, #48]	; 0x30
 80064c8:	2301      	movs	r3, #1
 80064ca:	6143      	str	r3, [r0, #20]
 80064cc:	4770      	bx	lr
 80064ce:	bf00      	nop
 80064d0:	40010000 	.word	0x40010000
 80064d4:	40014000 	.word	0x40014000

080064d8 <HAL_TIM_PWM_Init>:
 80064d8:	b510      	push	{r4, lr}
 80064da:	4604      	mov	r4, r0
 80064dc:	b330      	cbz	r0, 800652c <HAL_TIM_PWM_Init+0x54>
 80064de:	f890 303d 	ldrb.w	r3, [r0, #61]	; 0x3d
 80064e2:	f003 02ff 	and.w	r2, r3, #255	; 0xff
 80064e6:	b91b      	cbnz	r3, 80064f0 <HAL_TIM_PWM_Init+0x18>
 80064e8:	f880 203c 	strb.w	r2, [r0, #60]	; 0x3c
 80064ec:	f7fb f8ec 	bl	80016c8 <HAL_TIM_PWM_MspInit>
 80064f0:	2302      	movs	r3, #2
 80064f2:	6820      	ldr	r0, [r4, #0]
 80064f4:	f884 303d 	strb.w	r3, [r4, #61]	; 0x3d
 80064f8:	1d21      	adds	r1, r4, #4
 80064fa:	f7ff ff87 	bl	800640c <TIM_Base_SetConfig>
 80064fe:	2301      	movs	r3, #1
 8006500:	f884 3046 	strb.w	r3, [r4, #70]	; 0x46
 8006504:	2000      	movs	r0, #0
 8006506:	f884 303e 	strb.w	r3, [r4, #62]	; 0x3e
 800650a:	f884 303f 	strb.w	r3, [r4, #63]	; 0x3f
 800650e:	f884 3040 	strb.w	r3, [r4, #64]	; 0x40
 8006512:	f884 3041 	strb.w	r3, [r4, #65]	; 0x41
 8006516:	f884 3042 	strb.w	r3, [r4, #66]	; 0x42
 800651a:	f884 3043 	strb.w	r3, [r4, #67]	; 0x43
 800651e:	f884 3044 	strb.w	r3, [r4, #68]	; 0x44
 8006522:	f884 3045 	strb.w	r3, [r4, #69]	; 0x45
 8006526:	f884 303d 	strb.w	r3, [r4, #61]	; 0x3d
 800652a:	bd10      	pop	{r4, pc}
 800652c:	2001      	movs	r0, #1
 800652e:	e7fc      	b.n	800652a <HAL_TIM_PWM_Init+0x52>

08006530 <TIM_OC2_SetConfig>:
 8006530:	6a03      	ldr	r3, [r0, #32]
 8006532:	f023 0310 	bic.w	r3, r3, #16
 8006536:	6203      	str	r3, [r0, #32]
 8006538:	6a03      	ldr	r3, [r0, #32]
 800653a:	b570      	push	{r4, r5, r6, lr}
 800653c:	6844      	ldr	r4, [r0, #4]
 800653e:	6982      	ldr	r2, [r0, #24]
 8006540:	680d      	ldr	r5, [r1, #0]
 8006542:	f422 42e6 	bic.w	r2, r2, #29440	; 0x7300
 8006546:	ea42 2205 	orr.w	r2, r2, r5, lsl #8
 800654a:	688d      	ldr	r5, [r1, #8]
 800654c:	f023 0320 	bic.w	r3, r3, #32
 8006550:	ea43 1305 	orr.w	r3, r3, r5, lsl #4
 8006554:	4d10      	ldr	r5, [pc, #64]	; (8006598 <TIM_OC2_SetConfig+0x68>)
 8006556:	42a8      	cmp	r0, r5
 8006558:	d003      	beq.n	8006562 <TIM_OC2_SetConfig+0x32>
 800655a:	f505 6580 	add.w	r5, r5, #1024	; 0x400
 800655e:	42a8      	cmp	r0, r5
 8006560:	d114      	bne.n	800658c <TIM_OC2_SetConfig+0x5c>
 8006562:	68cd      	ldr	r5, [r1, #12]
 8006564:	f023 0380 	bic.w	r3, r3, #128	; 0x80
 8006568:	ea43 1305 	orr.w	r3, r3, r5, lsl #4
 800656c:	4d0a      	ldr	r5, [pc, #40]	; (8006598 <TIM_OC2_SetConfig+0x68>)
 800656e:	42a8      	cmp	r0, r5
 8006570:	f023 0340 	bic.w	r3, r3, #64	; 0x40
 8006574:	d003      	beq.n	800657e <TIM_OC2_SetConfig+0x4e>
 8006576:	f505 6580 	add.w	r5, r5, #1024	; 0x400
 800657a:	42a8      	cmp	r0, r5
 800657c:	d106      	bne.n	800658c <TIM_OC2_SetConfig+0x5c>
 800657e:	e9d1 5605 	ldrd	r5, r6, [r1, #20]
 8006582:	f424 6440 	bic.w	r4, r4, #3072	; 0xc00
 8006586:	4335      	orrs	r5, r6
 8006588:	ea44 0485 	orr.w	r4, r4, r5, lsl #2
 800658c:	6044      	str	r4, [r0, #4]
 800658e:	6182      	str	r2, [r0, #24]
 8006590:	684a      	ldr	r2, [r1, #4]
 8006592:	6382      	str	r2, [r0, #56]	; 0x38
 8006594:	6203      	str	r3, [r0, #32]
 8006596:	bd70      	pop	{r4, r5, r6, pc}
 8006598:	40010000 	.word	0x40010000

0800659c <HAL_TIM_PWM_ConfigChannel>:
 800659c:	b570      	push	{r4, r5, r6, lr}
 800659e:	f890 303c 	ldrb.w	r3, [r0, #60]	; 0x3c
 80065a2:	2b01      	cmp	r3, #1
 80065a4:	4605      	mov	r5, r0
 80065a6:	d053      	beq.n	8006650 <HAL_TIM_PWM_ConfigChannel+0xb4>
 80065a8:	2001      	movs	r0, #1
 80065aa:	2a08      	cmp	r2, #8
 80065ac:	f885 003c 	strb.w	r0, [r5, #60]	; 0x3c
 80065b0:	d03d      	beq.n	800662e <HAL_TIM_PWM_ConfigChannel+0x92>
 80065b2:	d806      	bhi.n	80065c2 <HAL_TIM_PWM_ConfigChannel+0x26>
 80065b4:	b1c2      	cbz	r2, 80065e8 <HAL_TIM_PWM_ConfigChannel+0x4c>
 80065b6:	2a04      	cmp	r2, #4
 80065b8:	d028      	beq.n	800660c <HAL_TIM_PWM_ConfigChannel+0x70>
 80065ba:	2300      	movs	r3, #0
 80065bc:	f885 303c 	strb.w	r3, [r5, #60]	; 0x3c
 80065c0:	bd70      	pop	{r4, r5, r6, pc}
 80065c2:	2a0c      	cmp	r2, #12
 80065c4:	d1f9      	bne.n	80065ba <HAL_TIM_PWM_ConfigChannel+0x1e>
 80065c6:	6828      	ldr	r0, [r5, #0]
 80065c8:	f7ff fefa 	bl	80063c0 <TIM_OC4_SetConfig>
 80065cc:	682b      	ldr	r3, [r5, #0]
 80065ce:	6909      	ldr	r1, [r1, #16]
 80065d0:	69da      	ldr	r2, [r3, #28]
 80065d2:	f442 6200 	orr.w	r2, r2, #2048	; 0x800
 80065d6:	61da      	str	r2, [r3, #28]
 80065d8:	69da      	ldr	r2, [r3, #28]
 80065da:	f422 6280 	bic.w	r2, r2, #1024	; 0x400
 80065de:	61da      	str	r2, [r3, #28]
 80065e0:	69da      	ldr	r2, [r3, #28]
 80065e2:	ea42 2201 	orr.w	r2, r2, r1, lsl #8
 80065e6:	e031      	b.n	800664c <HAL_TIM_PWM_ConfigChannel+0xb0>
 80065e8:	6828      	ldr	r0, [r5, #0]
 80065ea:	f7ff fe81 	bl	80062f0 <TIM_OC1_SetConfig>
 80065ee:	682b      	ldr	r3, [r5, #0]
 80065f0:	6909      	ldr	r1, [r1, #16]
 80065f2:	699a      	ldr	r2, [r3, #24]
 80065f4:	f042 0208 	orr.w	r2, r2, #8
 80065f8:	619a      	str	r2, [r3, #24]
 80065fa:	699a      	ldr	r2, [r3, #24]
 80065fc:	f022 0204 	bic.w	r2, r2, #4
 8006600:	619a      	str	r2, [r3, #24]
 8006602:	699a      	ldr	r2, [r3, #24]
 8006604:	430a      	orrs	r2, r1
 8006606:	619a      	str	r2, [r3, #24]
 8006608:	2000      	movs	r0, #0
 800660a:	e7d6      	b.n	80065ba <HAL_TIM_PWM_ConfigChannel+0x1e>
 800660c:	6828      	ldr	r0, [r5, #0]
 800660e:	f7ff ff8f 	bl	8006530 <TIM_OC2_SetConfig>
 8006612:	682b      	ldr	r3, [r5, #0]
 8006614:	6909      	ldr	r1, [r1, #16]
 8006616:	699a      	ldr	r2, [r3, #24]
 8006618:	f442 6200 	orr.w	r2, r2, #2048	; 0x800
 800661c:	619a      	str	r2, [r3, #24]
 800661e:	699a      	ldr	r2, [r3, #24]
 8006620:	f422 6280 	bic.w	r2, r2, #1024	; 0x400
 8006624:	619a      	str	r2, [r3, #24]
 8006626:	699a      	ldr	r2, [r3, #24]
 8006628:	ea42 2201 	orr.w	r2, r2, r1, lsl #8
 800662c:	e7eb      	b.n	8006606 <HAL_TIM_PWM_ConfigChannel+0x6a>
 800662e:	6828      	ldr	r0, [r5, #0]
 8006630:	f7ff fe90 	bl	8006354 <TIM_OC3_SetConfig>
 8006634:	682b      	ldr	r3, [r5, #0]
 8006636:	6909      	ldr	r1, [r1, #16]
 8006638:	69da      	ldr	r2, [r3, #28]
 800663a:	f042 0208 	orr.w	r2, r2, #8
 800663e:	61da      	str	r2, [r3, #28]
 8006640:	69da      	ldr	r2, [r3, #28]
 8006642:	f022 0204 	bic.w	r2, r2, #4
 8006646:	61da      	str	r2, [r3, #28]
 8006648:	69da      	ldr	r2, [r3, #28]
 800664a:	430a      	orrs	r2, r1
 800664c:	61da      	str	r2, [r3, #28]
 800664e:	e7db      	b.n	8006608 <HAL_TIM_PWM_ConfigChannel+0x6c>
 8006650:	2002      	movs	r0, #2
 8006652:	e7b5      	b.n	80065c0 <HAL_TIM_PWM_ConfigChannel+0x24>

08006654 <HAL_TIMEx_MasterConfigSynchronization>:
 8006654:	b530      	push	{r4, r5, lr}
 8006656:	f890 303c 	ldrb.w	r3, [r0, #60]	; 0x3c
 800665a:	2b01      	cmp	r3, #1
 800665c:	f04f 0302 	mov.w	r3, #2
 8006660:	d032      	beq.n	80066c8 <HAL_TIMEx_MasterConfigSynchronization+0x74>
 8006662:	f880 303d 	strb.w	r3, [r0, #61]	; 0x3d
 8006666:	6803      	ldr	r3, [r0, #0]
 8006668:	680d      	ldr	r5, [r1, #0]
 800666a:	685c      	ldr	r4, [r3, #4]
 800666c:	689a      	ldr	r2, [r3, #8]
 800666e:	f024 0470 	bic.w	r4, r4, #112	; 0x70
 8006672:	432c      	orrs	r4, r5
 8006674:	605c      	str	r4, [r3, #4]
 8006676:	4c15      	ldr	r4, [pc, #84]	; (80066cc <HAL_TIMEx_MasterConfigSynchronization+0x78>)
 8006678:	42a3      	cmp	r3, r4
 800667a:	d01a      	beq.n	80066b2 <HAL_TIMEx_MasterConfigSynchronization+0x5e>
 800667c:	f1b3 4f80 	cmp.w	r3, #1073741824	; 0x40000000
 8006680:	d017      	beq.n	80066b2 <HAL_TIMEx_MasterConfigSynchronization+0x5e>
 8006682:	f5a4 447c 	sub.w	r4, r4, #64512	; 0xfc00
 8006686:	42a3      	cmp	r3, r4
 8006688:	d013      	beq.n	80066b2 <HAL_TIMEx_MasterConfigSynchronization+0x5e>
 800668a:	f504 6480 	add.w	r4, r4, #1024	; 0x400
 800668e:	42a3      	cmp	r3, r4
 8006690:	d00f      	beq.n	80066b2 <HAL_TIMEx_MasterConfigSynchronization+0x5e>
 8006692:	f504 6480 	add.w	r4, r4, #1024	; 0x400
 8006696:	42a3      	cmp	r3, r4
 8006698:	d00b      	beq.n	80066b2 <HAL_TIMEx_MasterConfigSynchronization+0x5e>
 800669a:	f504 4478 	add.w	r4, r4, #63488	; 0xf800
 800669e:	42a3      	cmp	r3, r4
 80066a0:	d007      	beq.n	80066b2 <HAL_TIMEx_MasterConfigSynchronization+0x5e>
 80066a2:	f504 5470 	add.w	r4, r4, #15360	; 0x3c00
 80066a6:	42a3      	cmp	r3, r4
 80066a8:	d003      	beq.n	80066b2 <HAL_TIMEx_MasterConfigSynchronization+0x5e>
 80066aa:	f5a4 3494 	sub.w	r4, r4, #75776	; 0x12800
 80066ae:	42a3      	cmp	r3, r4
 80066b0:	d104      	bne.n	80066bc <HAL_TIMEx_MasterConfigSynchronization+0x68>
 80066b2:	6849      	ldr	r1, [r1, #4]
 80066b4:	f022 0280 	bic.w	r2, r2, #128	; 0x80
 80066b8:	430a      	orrs	r2, r1
 80066ba:	609a      	str	r2, [r3, #8]
 80066bc:	2301      	movs	r3, #1
 80066be:	f880 303d 	strb.w	r3, [r0, #61]	; 0x3d
 80066c2:	2300      	movs	r3, #0
 80066c4:	f880 303c 	strb.w	r3, [r0, #60]	; 0x3c
 80066c8:	4618      	mov	r0, r3
 80066ca:	bd30      	pop	{r4, r5, pc}
 80066cc:	40010000 	.word	0x40010000

080066d0 <UART_SetConfig>:
 80066d0:	6802      	ldr	r2, [r0, #0]
 80066d2:	68c1      	ldr	r1, [r0, #12]
 80066d4:	6913      	ldr	r3, [r2, #16]
 80066d6:	f423 5340 	bic.w	r3, r3, #12288	; 0x3000
 80066da:	430b      	orrs	r3, r1
 80066dc:	b570      	push	{r4, r5, r6, lr}
 80066de:	6113      	str	r3, [r2, #16]
 80066e0:	4605      	mov	r5, r0
 80066e2:	6883      	ldr	r3, [r0, #8]
 80066e4:	6900      	ldr	r0, [r0, #16]
 80066e6:	68d1      	ldr	r1, [r2, #12]
 80066e8:	4303      	orrs	r3, r0
 80066ea:	6968      	ldr	r0, [r5, #20]
 80066ec:	4303      	orrs	r3, r0
 80066ee:	69e8      	ldr	r0, [r5, #28]
 80066f0:	f421 4116 	bic.w	r1, r1, #38400	; 0x9600
 80066f4:	f021 010c 	bic.w	r1, r1, #12
 80066f8:	4303      	orrs	r3, r0
 80066fa:	430b      	orrs	r3, r1
 80066fc:	60d3      	str	r3, [r2, #12]
 80066fe:	6953      	ldr	r3, [r2, #20]
 8006700:	69a9      	ldr	r1, [r5, #24]
 8006702:	f423 7340 	bic.w	r3, r3, #768	; 0x300
 8006706:	430b      	orrs	r3, r1
 8006708:	6153      	str	r3, [r2, #20]
 800670a:	4b1f      	ldr	r3, [pc, #124]	; (8006788 <UART_SetConfig+0xb8>)
 800670c:	429a      	cmp	r2, r3
 800670e:	d003      	beq.n	8006718 <UART_SetConfig+0x48>
 8006710:	f503 6380 	add.w	r3, r3, #1024	; 0x400
 8006714:	429a      	cmp	r2, r3
 8006716:	d123      	bne.n	8006760 <UART_SetConfig+0x90>
 8006718:	f7ff f87a 	bl	8005810 <HAL_RCC_GetPCLK2Freq>
 800671c:	69eb      	ldr	r3, [r5, #28]
 800671e:	2119      	movs	r1, #25
 8006720:	f5b3 4f00 	cmp.w	r3, #32768	; 0x8000
 8006724:	e9d5 4600 	ldrd	r4, r6, [r5]
 8006728:	fba0 0101 	umull	r0, r1, r0, r1
 800672c:	d11b      	bne.n	8006766 <UART_SetConfig+0x96>
 800672e:	19b2      	adds	r2, r6, r6
 8006730:	f04f 0300 	mov.w	r3, #0
 8006734:	415b      	adcs	r3, r3
 8006736:	f7fa fa87 	bl	8000c48 <__aeabi_uldivmod>
 800673a:	2164      	movs	r1, #100	; 0x64
 800673c:	fbb0 f5f1 	udiv	r5, r0, r1
 8006740:	fb01 0315 	mls	r3, r1, r5, r0
 8006744:	00db      	lsls	r3, r3, #3
 8006746:	3332      	adds	r3, #50	; 0x32
 8006748:	fbb3 f3f1 	udiv	r3, r3, r1
 800674c:	f003 0207 	and.w	r2, r3, #7
 8006750:	005b      	lsls	r3, r3, #1
 8006752:	eb02 1205 	add.w	r2, r2, r5, lsl #4
 8006756:	f403 73f8 	and.w	r3, r3, #496	; 0x1f0
 800675a:	4413      	add	r3, r2
 800675c:	60a3      	str	r3, [r4, #8]
 800675e:	bd70      	pop	{r4, r5, r6, pc}
 8006760:	f7ff f846 	bl	80057f0 <HAL_RCC_GetPCLK1Freq>
 8006764:	e7da      	b.n	800671c <UART_SetConfig+0x4c>
 8006766:	00b2      	lsls	r2, r6, #2
 8006768:	0fb3      	lsrs	r3, r6, #30
 800676a:	f7fa fa6d 	bl	8000c48 <__aeabi_uldivmod>
 800676e:	2264      	movs	r2, #100	; 0x64
 8006770:	fbb0 f1f2 	udiv	r1, r0, r2
 8006774:	fb02 0311 	mls	r3, r2, r1, r0
 8006778:	011b      	lsls	r3, r3, #4
 800677a:	3332      	adds	r3, #50	; 0x32
 800677c:	fbb3 f3f2 	udiv	r3, r3, r2
 8006780:	eb03 1301 	add.w	r3, r3, r1, lsl #4
 8006784:	e7ea      	b.n	800675c <UART_SetConfig+0x8c>
 8006786:	bf00      	nop
 8006788:	40011000 	.word	0x40011000

0800678c <HAL_UART_Init>:
 800678c:	b510      	push	{r4, lr}
 800678e:	4604      	mov	r4, r0
 8006790:	b340      	cbz	r0, 80067e4 <HAL_UART_Init+0x58>
 8006792:	f890 303d 	ldrb.w	r3, [r0, #61]	; 0x3d
 8006796:	f003 02ff 	and.w	r2, r3, #255	; 0xff
 800679a:	b91b      	cbnz	r3, 80067a4 <HAL_UART_Init+0x18>
 800679c:	f880 203c 	strb.w	r2, [r0, #60]	; 0x3c
 80067a0:	f7fa ffd4 	bl	800174c <HAL_UART_MspInit>
 80067a4:	6822      	ldr	r2, [r4, #0]
 80067a6:	2324      	movs	r3, #36	; 0x24
 80067a8:	f884 303d 	strb.w	r3, [r4, #61]	; 0x3d
 80067ac:	68d3      	ldr	r3, [r2, #12]
 80067ae:	f423 5300 	bic.w	r3, r3, #8192	; 0x2000
 80067b2:	60d3      	str	r3, [r2, #12]
 80067b4:	4620      	mov	r0, r4
 80067b6:	f7ff ff8b 	bl	80066d0 <UART_SetConfig>
 80067ba:	6823      	ldr	r3, [r4, #0]
 80067bc:	691a      	ldr	r2, [r3, #16]
 80067be:	f422 4290 	bic.w	r2, r2, #18432	; 0x4800
 80067c2:	611a      	str	r2, [r3, #16]
 80067c4:	695a      	ldr	r2, [r3, #20]
 80067c6:	f022 022a 	bic.w	r2, r2, #42	; 0x2a
 80067ca:	615a      	str	r2, [r3, #20]
 80067cc:	68da      	ldr	r2, [r3, #12]
 80067ce:	f442 5200 	orr.w	r2, r2, #8192	; 0x2000
 80067d2:	60da      	str	r2, [r3, #12]
 80067d4:	2000      	movs	r0, #0
 80067d6:	2320      	movs	r3, #32
 80067d8:	6420      	str	r0, [r4, #64]	; 0x40
 80067da:	f884 303d 	strb.w	r3, [r4, #61]	; 0x3d
 80067de:	f884 303e 	strb.w	r3, [r4, #62]	; 0x3e
 80067e2:	bd10      	pop	{r4, pc}
 80067e4:	2001      	movs	r0, #1
 80067e6:	e7fc      	b.n	80067e2 <HAL_UART_Init+0x56>

080067e8 <USB_CoreReset>:
 80067e8:	b082      	sub	sp, #8
 80067ea:	2300      	movs	r3, #0
 80067ec:	4a10      	ldr	r2, [pc, #64]	; (8006830 <USB_CoreReset+0x48>)
 80067ee:	9301      	str	r3, [sp, #4]
 80067f0:	9b01      	ldr	r3, [sp, #4]
 80067f2:	3301      	adds	r3, #1
 80067f4:	9301      	str	r3, [sp, #4]
 80067f6:	9b01      	ldr	r3, [sp, #4]
 80067f8:	4293      	cmp	r3, r2
 80067fa:	d816      	bhi.n	800682a <USB_CoreReset+0x42>
 80067fc:	6903      	ldr	r3, [r0, #16]
 80067fe:	2b00      	cmp	r3, #0
 8006800:	daf6      	bge.n	80067f0 <USB_CoreReset+0x8>
 8006802:	2300      	movs	r3, #0
 8006804:	9301      	str	r3, [sp, #4]
 8006806:	6903      	ldr	r3, [r0, #16]
 8006808:	4a09      	ldr	r2, [pc, #36]	; (8006830 <USB_CoreReset+0x48>)
 800680a:	f043 0301 	orr.w	r3, r3, #1
 800680e:	6103      	str	r3, [r0, #16]
 8006810:	9b01      	ldr	r3, [sp, #4]
 8006812:	3301      	adds	r3, #1
 8006814:	9301      	str	r3, [sp, #4]
 8006816:	9b01      	ldr	r3, [sp, #4]
 8006818:	4293      	cmp	r3, r2
 800681a:	d806      	bhi.n	800682a <USB_CoreReset+0x42>
 800681c:	6903      	ldr	r3, [r0, #16]
 800681e:	f013 0301 	ands.w	r3, r3, #1
 8006822:	d1f5      	bne.n	8006810 <USB_CoreReset+0x28>
 8006824:	4618      	mov	r0, r3
 8006826:	b002      	add	sp, #8
 8006828:	4770      	bx	lr
 800682a:	2003      	movs	r0, #3
 800682c:	e7fb      	b.n	8006826 <USB_CoreReset+0x3e>
 800682e:	bf00      	nop
 8006830:	00030d40 	.word	0x00030d40

08006834 <USB_CoreInit>:
 8006834:	b084      	sub	sp, #16
 8006836:	b538      	push	{r3, r4, r5, lr}
 8006838:	ad05      	add	r5, sp, #20
 800683a:	e885 000e 	stmia.w	r5, {r1, r2, r3}
 800683e:	9b0a      	ldr	r3, [sp, #40]	; 0x28
 8006840:	2b01      	cmp	r3, #1
 8006842:	4604      	mov	r4, r0
 8006844:	d125      	bne.n	8006892 <USB_CoreInit+0x5e>
 8006846:	6b83      	ldr	r3, [r0, #56]	; 0x38
 8006848:	f423 3380 	bic.w	r3, r3, #65536	; 0x10000
 800684c:	6383      	str	r3, [r0, #56]	; 0x38
 800684e:	68c3      	ldr	r3, [r0, #12]
 8006850:	f423 0384 	bic.w	r3, r3, #4325376	; 0x420000
 8006854:	f023 0340 	bic.w	r3, r3, #64	; 0x40
 8006858:	60c3      	str	r3, [r0, #12]
 800685a:	68c3      	ldr	r3, [r0, #12]
 800685c:	f423 1340 	bic.w	r3, r3, #3145728	; 0x300000
 8006860:	60c3      	str	r3, [r0, #12]
 8006862:	9b11      	ldr	r3, [sp, #68]	; 0x44
 8006864:	2b01      	cmp	r3, #1
 8006866:	bf02      	ittt	eq
 8006868:	68c3      	ldreq	r3, [r0, #12]
 800686a:	f443 1380 	orreq.w	r3, r3, #1048576	; 0x100000
 800686e:	60c3      	streq	r3, [r0, #12]
 8006870:	f7ff ffba 	bl	80067e8 <USB_CoreReset>
 8006874:	9b08      	ldr	r3, [sp, #32]
 8006876:	2b01      	cmp	r3, #1
 8006878:	d107      	bne.n	800688a <USB_CoreInit+0x56>
 800687a:	68a3      	ldr	r3, [r4, #8]
 800687c:	f043 0306 	orr.w	r3, r3, #6
 8006880:	60a3      	str	r3, [r4, #8]
 8006882:	68a3      	ldr	r3, [r4, #8]
 8006884:	f043 0320 	orr.w	r3, r3, #32
 8006888:	60a3      	str	r3, [r4, #8]
 800688a:	e8bd 4038 	ldmia.w	sp!, {r3, r4, r5, lr}
 800688e:	b004      	add	sp, #16
 8006890:	4770      	bx	lr
 8006892:	68c3      	ldr	r3, [r0, #12]
 8006894:	f043 0340 	orr.w	r3, r3, #64	; 0x40
 8006898:	60c3      	str	r3, [r0, #12]
 800689a:	f7ff ffa5 	bl	80067e8 <USB_CoreReset>
 800689e:	9b0e      	ldr	r3, [sp, #56]	; 0x38
 80068a0:	b923      	cbnz	r3, 80068ac <USB_CoreInit+0x78>
 80068a2:	6ba3      	ldr	r3, [r4, #56]	; 0x38
 80068a4:	f443 3380 	orr.w	r3, r3, #65536	; 0x10000
 80068a8:	63a3      	str	r3, [r4, #56]	; 0x38
 80068aa:	e7e3      	b.n	8006874 <USB_CoreInit+0x40>
 80068ac:	6ba3      	ldr	r3, [r4, #56]	; 0x38
 80068ae:	f423 3380 	bic.w	r3, r3, #65536	; 0x10000
 80068b2:	e7f9      	b.n	80068a8 <USB_CoreInit+0x74>

080068b4 <USB_EnableGlobalInt>:
 80068b4:	6883      	ldr	r3, [r0, #8]
 80068b6:	f043 0301 	orr.w	r3, r3, #1
 80068ba:	6083      	str	r3, [r0, #8]
 80068bc:	2000      	movs	r0, #0
 80068be:	4770      	bx	lr

080068c0 <USB_DisableGlobalInt>:
 80068c0:	6883      	ldr	r3, [r0, #8]
 80068c2:	f023 0301 	bic.w	r3, r3, #1
 80068c6:	6083      	str	r3, [r0, #8]
 80068c8:	2000      	movs	r0, #0
 80068ca:	4770      	bx	lr

080068cc <USB_SetCurrentMode>:
 80068cc:	b538      	push	{r3, r4, r5, lr}
 80068ce:	68c3      	ldr	r3, [r0, #12]
 80068d0:	2901      	cmp	r1, #1
 80068d2:	f023 43c0 	bic.w	r3, r3, #1610612736	; 0x60000000
 80068d6:	4605      	mov	r5, r0
 80068d8:	60c3      	str	r3, [r0, #12]
 80068da:	d110      	bne.n	80068fe <USB_SetCurrentMode+0x32>
 80068dc:	68c3      	ldr	r3, [r0, #12]
 80068de:	f043 5300 	orr.w	r3, r3, #536870912	; 0x20000000
 80068e2:	60c3      	str	r3, [r0, #12]
 80068e4:	2400      	movs	r4, #0
 80068e6:	2001      	movs	r0, #1
 80068e8:	f7fc fd5e 	bl	80033a8 <HAL_Delay>
 80068ec:	696b      	ldr	r3, [r5, #20]
 80068ee:	07d9      	lsls	r1, r3, #31
 80068f0:	f104 0401 	add.w	r4, r4, #1
 80068f4:	d415      	bmi.n	8006922 <USB_SetCurrentMode+0x56>
 80068f6:	2c32      	cmp	r4, #50	; 0x32
 80068f8:	d1f5      	bne.n	80068e6 <USB_SetCurrentMode+0x1a>
 80068fa:	2001      	movs	r0, #1
 80068fc:	bd38      	pop	{r3, r4, r5, pc}
 80068fe:	2900      	cmp	r1, #0
 8006900:	d1fb      	bne.n	80068fa <USB_SetCurrentMode+0x2e>
 8006902:	68c3      	ldr	r3, [r0, #12]
 8006904:	f043 4380 	orr.w	r3, r3, #1073741824	; 0x40000000
 8006908:	60c3      	str	r3, [r0, #12]
 800690a:	460c      	mov	r4, r1
 800690c:	2001      	movs	r0, #1
 800690e:	f7fc fd4b 	bl	80033a8 <HAL_Delay>
 8006912:	696b      	ldr	r3, [r5, #20]
 8006914:	07da      	lsls	r2, r3, #31
 8006916:	f104 0401 	add.w	r4, r4, #1
 800691a:	d502      	bpl.n	8006922 <USB_SetCurrentMode+0x56>
 800691c:	2c32      	cmp	r4, #50	; 0x32
 800691e:	d1f5      	bne.n	800690c <USB_SetCurrentMode+0x40>
 8006920:	e7eb      	b.n	80068fa <USB_SetCurrentMode+0x2e>
 8006922:	f1a4 0332 	sub.w	r3, r4, #50	; 0x32
 8006926:	4258      	negs	r0, r3
 8006928:	4158      	adcs	r0, r3
 800692a:	e7e7      	b.n	80068fc <USB_SetCurrentMode+0x30>

0800692c <USB_FlushTxFifo>:
 800692c:	b082      	sub	sp, #8
 800692e:	2300      	movs	r3, #0
 8006930:	4a10      	ldr	r2, [pc, #64]	; (8006974 <USB_FlushTxFifo+0x48>)
 8006932:	9301      	str	r3, [sp, #4]
 8006934:	9b01      	ldr	r3, [sp, #4]
 8006936:	3301      	adds	r3, #1
 8006938:	9301      	str	r3, [sp, #4]
 800693a:	9b01      	ldr	r3, [sp, #4]
 800693c:	4293      	cmp	r3, r2
 800693e:	d816      	bhi.n	800696e <USB_FlushTxFifo+0x42>
 8006940:	6903      	ldr	r3, [r0, #16]
 8006942:	2b00      	cmp	r3, #0
 8006944:	daf6      	bge.n	8006934 <USB_FlushTxFifo+0x8>
 8006946:	0189      	lsls	r1, r1, #6
 8006948:	2300      	movs	r3, #0
 800694a:	f041 0120 	orr.w	r1, r1, #32
 800694e:	4a09      	ldr	r2, [pc, #36]	; (8006974 <USB_FlushTxFifo+0x48>)
 8006950:	9301      	str	r3, [sp, #4]
 8006952:	6101      	str	r1, [r0, #16]
 8006954:	9b01      	ldr	r3, [sp, #4]
 8006956:	3301      	adds	r3, #1
 8006958:	9301      	str	r3, [sp, #4]
 800695a:	9b01      	ldr	r3, [sp, #4]
 800695c:	4293      	cmp	r3, r2
 800695e:	d806      	bhi.n	800696e <USB_FlushTxFifo+0x42>
 8006960:	6903      	ldr	r3, [r0, #16]
 8006962:	f013 0320 	ands.w	r3, r3, #32
 8006966:	d1f5      	bne.n	8006954 <USB_FlushTxFifo+0x28>
 8006968:	4618      	mov	r0, r3
 800696a:	b002      	add	sp, #8
 800696c:	4770      	bx	lr
 800696e:	2003      	movs	r0, #3
 8006970:	e7fb      	b.n	800696a <USB_FlushTxFifo+0x3e>
 8006972:	bf00      	nop
 8006974:	00030d40 	.word	0x00030d40

08006978 <USB_FlushRxFifo>:
 8006978:	b082      	sub	sp, #8
 800697a:	2300      	movs	r3, #0
 800697c:	4a0f      	ldr	r2, [pc, #60]	; (80069bc <USB_FlushRxFifo+0x44>)
 800697e:	9301      	str	r3, [sp, #4]
 8006980:	9b01      	ldr	r3, [sp, #4]
 8006982:	3301      	adds	r3, #1
 8006984:	9301      	str	r3, [sp, #4]
 8006986:	9b01      	ldr	r3, [sp, #4]
 8006988:	4293      	cmp	r3, r2
 800698a:	d814      	bhi.n	80069b6 <USB_FlushRxFifo+0x3e>
 800698c:	6903      	ldr	r3, [r0, #16]
 800698e:	2b00      	cmp	r3, #0
 8006990:	daf6      	bge.n	8006980 <USB_FlushRxFifo+0x8>
 8006992:	2300      	movs	r3, #0
 8006994:	9301      	str	r3, [sp, #4]
 8006996:	4a09      	ldr	r2, [pc, #36]	; (80069bc <USB_FlushRxFifo+0x44>)
 8006998:	2310      	movs	r3, #16
 800699a:	6103      	str	r3, [r0, #16]
 800699c:	9b01      	ldr	r3, [sp, #4]
 800699e:	3301      	adds	r3, #1
 80069a0:	9301      	str	r3, [sp, #4]
 80069a2:	9b01      	ldr	r3, [sp, #4]
 80069a4:	4293      	cmp	r3, r2
 80069a6:	d806      	bhi.n	80069b6 <USB_FlushRxFifo+0x3e>
 80069a8:	6903      	ldr	r3, [r0, #16]
 80069aa:	f013 0310 	ands.w	r3, r3, #16
 80069ae:	d1f5      	bne.n	800699c <USB_FlushRxFifo+0x24>
 80069b0:	4618      	mov	r0, r3
 80069b2:	b002      	add	sp, #8
 80069b4:	4770      	bx	lr
 80069b6:	2003      	movs	r0, #3
 80069b8:	e7fb      	b.n	80069b2 <USB_FlushRxFifo+0x3a>
 80069ba:	bf00      	nop
 80069bc:	00030d40 	.word	0x00030d40

080069c0 <USB_WritePacket>:
 80069c0:	b510      	push	{r4, lr}
 80069c2:	f89d 4008 	ldrb.w	r4, [sp, #8]
 80069c6:	b944      	cbnz	r4, 80069da <USB_WritePacket+0x1a>
 80069c8:	3303      	adds	r3, #3
 80069ca:	3201      	adds	r2, #1
 80069cc:	089b      	lsrs	r3, r3, #2
 80069ce:	eb00 3002 	add.w	r0, r0, r2, lsl #12
 80069d2:	eb01 0383 	add.w	r3, r1, r3, lsl #2
 80069d6:	428b      	cmp	r3, r1
 80069d8:	d101      	bne.n	80069de <USB_WritePacket+0x1e>
 80069da:	2000      	movs	r0, #0
 80069dc:	bd10      	pop	{r4, pc}
 80069de:	f851 2b04 	ldr.w	r2, [r1], #4
 80069e2:	6002      	str	r2, [r0, #0]
 80069e4:	e7f7      	b.n	80069d6 <USB_WritePacket+0x16>

080069e6 <USB_ReadPacket>:
 80069e6:	4603      	mov	r3, r0
 80069e8:	b570      	push	{r4, r5, r6, lr}
 80069ea:	0890      	lsrs	r0, r2, #2
 80069ec:	2400      	movs	r4, #0
 80069ee:	f002 0203 	and.w	r2, r2, #3
 80069f2:	f503 5580 	add.w	r5, r3, #4096	; 0x1000
 80069f6:	4284      	cmp	r4, r0
 80069f8:	d310      	bcc.n	8006a1c <USB_ReadPacket+0x36>
 80069fa:	eb01 0080 	add.w	r0, r1, r0, lsl #2
 80069fe:	b162      	cbz	r2, 8006a1a <USB_ReadPacket+0x34>
 8006a00:	f503 5380 	add.w	r3, r3, #4096	; 0x1000
 8006a04:	681c      	ldr	r4, [r3, #0]
 8006a06:	2300      	movs	r3, #0
 8006a08:	00d9      	lsls	r1, r3, #3
 8006a0a:	fa24 f101 	lsr.w	r1, r4, r1
 8006a0e:	54c1      	strb	r1, [r0, r3]
 8006a10:	3301      	adds	r3, #1
 8006a12:	b299      	uxth	r1, r3
 8006a14:	428a      	cmp	r2, r1
 8006a16:	d1f7      	bne.n	8006a08 <USB_ReadPacket+0x22>
 8006a18:	4410      	add	r0, r2
 8006a1a:	bd70      	pop	{r4, r5, r6, pc}
 8006a1c:	682e      	ldr	r6, [r5, #0]
 8006a1e:	f841 6024 	str.w	r6, [r1, r4, lsl #2]
 8006a22:	3401      	adds	r4, #1
 8006a24:	e7e7      	b.n	80069f6 <USB_ReadPacket+0x10>

08006a26 <USB_ReadInterrupts>:
 8006a26:	6942      	ldr	r2, [r0, #20]
 8006a28:	6980      	ldr	r0, [r0, #24]
 8006a2a:	4010      	ands	r0, r2
 8006a2c:	4770      	bx	lr

08006a2e <USB_GetMode>:
 8006a2e:	6940      	ldr	r0, [r0, #20]
 8006a30:	f000 0001 	and.w	r0, r0, #1
 8006a34:	4770      	bx	lr
	...

08006a38 <USB_HostInit>:
 8006a38:	b084      	sub	sp, #16
 8006a3a:	b570      	push	{r4, r5, r6, lr}
 8006a3c:	4604      	mov	r4, r0
 8006a3e:	a805      	add	r0, sp, #20
 8006a40:	e880 000e 	stmia.w	r0, {r1, r2, r3}
 8006a44:	2300      	movs	r3, #0
 8006a46:	f8c4 3e00 	str.w	r3, [r4, #3584]	; 0xe00
 8006a4a:	6ba3      	ldr	r3, [r4, #56]	; 0x38
 8006a4c:	f443 1300 	orr.w	r3, r3, #2097152	; 0x200000
 8006a50:	63a3      	str	r3, [r4, #56]	; 0x38
 8006a52:	6ba3      	ldr	r3, [r4, #56]	; 0x38
 8006a54:	f423 2300 	bic.w	r3, r3, #524288	; 0x80000
 8006a58:	63a3      	str	r3, [r4, #56]	; 0x38
 8006a5a:	6ba3      	ldr	r3, [r4, #56]	; 0x38
 8006a5c:	f423 2380 	bic.w	r3, r3, #262144	; 0x40000
 8006a60:	63a3      	str	r3, [r4, #56]	; 0x38
 8006a62:	6be3      	ldr	r3, [r4, #60]	; 0x3c
 8006a64:	05da      	lsls	r2, r3, #23
 8006a66:	d53b      	bpl.n	8006ae0 <USB_HostInit+0xa8>
 8006a68:	9b07      	ldr	r3, [sp, #28]
 8006a6a:	2b01      	cmp	r3, #1
 8006a6c:	f8d4 3400 	ldr.w	r3, [r4, #1024]	; 0x400
 8006a70:	d138      	bne.n	8006ae4 <USB_HostInit+0xac>
 8006a72:	f043 0304 	orr.w	r3, r3, #4
 8006a76:	f8c4 3400 	str.w	r3, [r4, #1024]	; 0x400
 8006a7a:	2110      	movs	r1, #16
 8006a7c:	4620      	mov	r0, r4
 8006a7e:	f7ff ff55 	bl	800692c <USB_FlushTxFifo>
 8006a82:	4601      	mov	r1, r0
 8006a84:	4620      	mov	r0, r4
 8006a86:	f7ff ff77 	bl	8006978 <USB_FlushRxFifo>
 8006a8a:	4308      	orrs	r0, r1
 8006a8c:	b2c0      	uxtb	r0, r0
 8006a8e:	3800      	subs	r0, #0
 8006a90:	f04f 0300 	mov.w	r3, #0
 8006a94:	9e06      	ldr	r6, [sp, #24]
 8006a96:	bf18      	it	ne
 8006a98:	2001      	movne	r0, #1
 8006a9a:	f504 62a0 	add.w	r2, r4, #1280	; 0x500
 8006a9e:	461d      	mov	r5, r3
 8006aa0:	f04f 31ff 	mov.w	r1, #4294967295
 8006aa4:	429e      	cmp	r6, r3
 8006aa6:	d120      	bne.n	8006aea <USB_HostInit+0xb2>
 8006aa8:	61a5      	str	r5, [r4, #24]
 8006aaa:	6161      	str	r1, [r4, #20]
 8006aac:	6be3      	ldr	r3, [r4, #60]	; 0x3c
 8006aae:	05db      	lsls	r3, r3, #23
 8006ab0:	d520      	bpl.n	8006af4 <USB_HostInit+0xbc>
 8006ab2:	f44f 7300 	mov.w	r3, #512	; 0x200
 8006ab6:	6263      	str	r3, [r4, #36]	; 0x24
 8006ab8:	f103 7380 	add.w	r3, r3, #16777216	; 0x1000000
 8006abc:	62a3      	str	r3, [r4, #40]	; 0x28
 8006abe:	4b11      	ldr	r3, [pc, #68]	; (8006b04 <USB_HostInit+0xcc>)
 8006ac0:	f8c4 3100 	str.w	r3, [r4, #256]	; 0x100
 8006ac4:	9b08      	ldr	r3, [sp, #32]
 8006ac6:	b91b      	cbnz	r3, 8006ad0 <USB_HostInit+0x98>
 8006ac8:	69a3      	ldr	r3, [r4, #24]
 8006aca:	f043 0310 	orr.w	r3, r3, #16
 8006ace:	61a3      	str	r3, [r4, #24]
 8006ad0:	69a2      	ldr	r2, [r4, #24]
 8006ad2:	4b0d      	ldr	r3, [pc, #52]	; (8006b08 <USB_HostInit+0xd0>)
 8006ad4:	4313      	orrs	r3, r2
 8006ad6:	61a3      	str	r3, [r4, #24]
 8006ad8:	e8bd 4070 	ldmia.w	sp!, {r4, r5, r6, lr}
 8006adc:	b004      	add	sp, #16
 8006ade:	4770      	bx	lr
 8006ae0:	f8d4 3400 	ldr.w	r3, [r4, #1024]	; 0x400
 8006ae4:	f023 0304 	bic.w	r3, r3, #4
 8006ae8:	e7c5      	b.n	8006a76 <USB_HostInit+0x3e>
 8006aea:	6091      	str	r1, [r2, #8]
 8006aec:	3301      	adds	r3, #1
 8006aee:	60d5      	str	r5, [r2, #12]
 8006af0:	3220      	adds	r2, #32
 8006af2:	e7d7      	b.n	8006aa4 <USB_HostInit+0x6c>
 8006af4:	2380      	movs	r3, #128	; 0x80
 8006af6:	6263      	str	r3, [r4, #36]	; 0x24
 8006af8:	f503 03c0 	add.w	r3, r3, #6291456	; 0x600000
 8006afc:	62a3      	str	r3, [r4, #40]	; 0x28
 8006afe:	4b03      	ldr	r3, [pc, #12]	; (8006b0c <USB_HostInit+0xd4>)
 8006b00:	e7de      	b.n	8006ac0 <USB_HostInit+0x88>
 8006b02:	bf00      	nop
 8006b04:	00e00300 	.word	0x00e00300
 8006b08:	a3200008 	.word	0xa3200008
 8006b0c:	004000e0 	.word	0x004000e0

08006b10 <USB_InitFSLSPClkSel>:
 8006b10:	f8d0 3400 	ldr.w	r3, [r0, #1024]	; 0x400
 8006b14:	f023 0303 	bic.w	r3, r3, #3
 8006b18:	b510      	push	{r4, lr}
 8006b1a:	f8c0 3400 	str.w	r3, [r0, #1024]	; 0x400
 8006b1e:	f8d0 4400 	ldr.w	r4, [r0, #1024]	; 0x400
 8006b22:	f001 0303 	and.w	r3, r1, #3
 8006b26:	4323      	orrs	r3, r4
 8006b28:	2901      	cmp	r1, #1
 8006b2a:	f500 6280 	add.w	r2, r0, #1024	; 0x400
 8006b2e:	f8c0 3400 	str.w	r3, [r0, #1024]	; 0x400
 8006b32:	d104      	bne.n	8006b3e <USB_InitFSLSPClkSel+0x2e>
 8006b34:	f64b 3380 	movw	r3, #48000	; 0xbb80
 8006b38:	6053      	str	r3, [r2, #4]
 8006b3a:	2000      	movs	r0, #0
 8006b3c:	bd10      	pop	{r4, pc}
 8006b3e:	2902      	cmp	r1, #2
 8006b40:	d1fb      	bne.n	8006b3a <USB_InitFSLSPClkSel+0x2a>
 8006b42:	f241 7370 	movw	r3, #6000	; 0x1770
 8006b46:	e7f7      	b.n	8006b38 <USB_InitFSLSPClkSel+0x28>

08006b48 <USB_ResetPort>:
 8006b48:	b537      	push	{r0, r1, r2, r4, r5, lr}
 8006b4a:	2500      	movs	r5, #0
 8006b4c:	9501      	str	r5, [sp, #4]
 8006b4e:	f8d0 3440 	ldr.w	r3, [r0, #1088]	; 0x440
 8006b52:	9301      	str	r3, [sp, #4]
 8006b54:	9b01      	ldr	r3, [sp, #4]
 8006b56:	f023 032e 	bic.w	r3, r3, #46	; 0x2e
 8006b5a:	9301      	str	r3, [sp, #4]
 8006b5c:	9b01      	ldr	r3, [sp, #4]
 8006b5e:	f443 7380 	orr.w	r3, r3, #256	; 0x100
 8006b62:	4604      	mov	r4, r0
 8006b64:	f8c0 3440 	str.w	r3, [r0, #1088]	; 0x440
 8006b68:	2064      	movs	r0, #100	; 0x64
 8006b6a:	f7fc fc1d 	bl	80033a8 <HAL_Delay>
 8006b6e:	9b01      	ldr	r3, [sp, #4]
 8006b70:	f423 7380 	bic.w	r3, r3, #256	; 0x100
 8006b74:	f8c4 3440 	str.w	r3, [r4, #1088]	; 0x440
 8006b78:	200a      	movs	r0, #10
 8006b7a:	f7fc fc15 	bl	80033a8 <HAL_Delay>
 8006b7e:	4628      	mov	r0, r5
 8006b80:	b003      	add	sp, #12
 8006b82:	bd30      	pop	{r4, r5, pc}

08006b84 <USB_DriveVbus>:
 8006b84:	b082      	sub	sp, #8
 8006b86:	2300      	movs	r3, #0
 8006b88:	9301      	str	r3, [sp, #4]
 8006b8a:	f8d0 3440 	ldr.w	r3, [r0, #1088]	; 0x440
 8006b8e:	9301      	str	r3, [sp, #4]
 8006b90:	9b01      	ldr	r3, [sp, #4]
 8006b92:	f023 032e 	bic.w	r3, r3, #46	; 0x2e
 8006b96:	9301      	str	r3, [sp, #4]
 8006b98:	9b01      	ldr	r3, [sp, #4]
 8006b9a:	04da      	lsls	r2, r3, #19
 8006b9c:	d406      	bmi.n	8006bac <USB_DriveVbus+0x28>
 8006b9e:	2901      	cmp	r1, #1
 8006ba0:	bf02      	ittt	eq
 8006ba2:	9b01      	ldreq	r3, [sp, #4]
 8006ba4:	f443 5380 	orreq.w	r3, r3, #4096	; 0x1000
 8006ba8:	f8c0 3440 	streq.w	r3, [r0, #1088]	; 0x440
 8006bac:	9b01      	ldr	r3, [sp, #4]
 8006bae:	04db      	lsls	r3, r3, #19
 8006bb0:	d505      	bpl.n	8006bbe <USB_DriveVbus+0x3a>
 8006bb2:	b921      	cbnz	r1, 8006bbe <USB_DriveVbus+0x3a>
 8006bb4:	9b01      	ldr	r3, [sp, #4]
 8006bb6:	f423 5380 	bic.w	r3, r3, #4096	; 0x1000
 8006bba:	f8c0 3440 	str.w	r3, [r0, #1088]	; 0x440
 8006bbe:	2000      	movs	r0, #0
 8006bc0:	b002      	add	sp, #8
 8006bc2:	4770      	bx	lr

08006bc4 <USB_GetHostSpeed>:
 8006bc4:	b082      	sub	sp, #8
 8006bc6:	2300      	movs	r3, #0
 8006bc8:	9301      	str	r3, [sp, #4]
 8006bca:	f8d0 3440 	ldr.w	r3, [r0, #1088]	; 0x440
 8006bce:	9301      	str	r3, [sp, #4]
 8006bd0:	9801      	ldr	r0, [sp, #4]
 8006bd2:	f3c0 4041 	ubfx	r0, r0, #17, #2
 8006bd6:	b002      	add	sp, #8
 8006bd8:	4770      	bx	lr

08006bda <USB_GetCurrentFrame>:
 8006bda:	f500 6080 	add.w	r0, r0, #1024	; 0x400
 8006bde:	6880      	ldr	r0, [r0, #8]
 8006be0:	b280      	uxth	r0, r0
 8006be2:	4770      	bx	lr

08006be4 <USB_HC_Init>:
 8006be4:	e92d 41f0 	stmdb	sp!, {r4, r5, r6, r7, r8, lr}
 8006be8:	eb00 1741 	add.w	r7, r0, r1, lsl #5
 8006bec:	f507 6ca0 	add.w	ip, r7, #1280	; 0x500
 8006bf0:	f89d 601c 	ldrb.w	r6, [sp, #28]
 8006bf4:	461c      	mov	r4, r3
 8006bf6:	f04f 33ff 	mov.w	r3, #4294967295
 8006bfa:	f8cc 3008 	str.w	r3, [ip, #8]
 8006bfe:	fa4f fe82 	sxtb.w	lr, r2
 8006c02:	2e03      	cmp	r6, #3
 8006c04:	d874      	bhi.n	8006cf0 <USB_HC_Init+0x10c>
 8006c06:	e8df f006 	tbb	[pc, r6]
 8006c0a:	6702      	.short	0x6702
 8006c0c:	5f02      	.short	0x5f02
 8006c0e:	f240 439d 	movw	r3, #1181	; 0x49d
 8006c12:	f1be 0f00 	cmp.w	lr, #0
 8006c16:	f8cc 300c 	str.w	r3, [ip, #12]
 8006c1a:	da04      	bge.n	8006c26 <USB_HC_Init+0x42>
 8006c1c:	f8dc 300c 	ldr.w	r3, [ip, #12]
 8006c20:	f443 7380 	orr.w	r3, r3, #256	; 0x100
 8006c24:	e04d      	b.n	8006cc2 <USB_HC_Init+0xde>
 8006c26:	6bc3      	ldr	r3, [r0, #60]	; 0x3c
 8006c28:	05db      	lsls	r3, r3, #23
 8006c2a:	d446      	bmi.n	8006cba <USB_HC_Init+0xd6>
 8006c2c:	2500      	movs	r5, #0
 8006c2e:	f8dc 300c 	ldr.w	r3, [ip, #12]
 8006c32:	f043 0302 	orr.w	r3, r3, #2
 8006c36:	f8cc 300c 	str.w	r3, [ip, #12]
 8006c3a:	f8d0 8418 	ldr.w	r8, [r0, #1048]	; 0x418
 8006c3e:	f001 030f 	and.w	r3, r1, #15
 8006c42:	2101      	movs	r1, #1
 8006c44:	4099      	lsls	r1, r3
 8006c46:	ea41 0108 	orr.w	r1, r1, r8
 8006c4a:	f8c0 1418 	str.w	r1, [r0, #1048]	; 0x418
 8006c4e:	6983      	ldr	r3, [r0, #24]
 8006c50:	f043 7300 	orr.w	r3, r3, #33554432	; 0x2000000
 8006c54:	f1be 0f00 	cmp.w	lr, #0
 8006c58:	6183      	str	r3, [r0, #24]
 8006c5a:	bfb4      	ite	lt
 8006c5c:	f44f 4100 	movlt.w	r1, #32768	; 0x8000
 8006c60:	2100      	movge	r1, #0
 8006c62:	f7ff ffaf 	bl	8006bc4 <USB_GetHostSpeed>
 8006c66:	f89d 3018 	ldrb.w	r3, [sp, #24]
 8006c6a:	2b02      	cmp	r3, #2
 8006c6c:	d142      	bne.n	8006cf4 <USB_HC_Init+0x110>
 8006c6e:	2802      	cmp	r0, #2
 8006c70:	bf0c      	ite	eq
 8006c72:	2000      	moveq	r0, #0
 8006c74:	f44f 3000 	movne.w	r0, #131072	; 0x20000
 8006c78:	05a3      	lsls	r3, r4, #22
 8006c7a:	f8bd 4020 	ldrh.w	r4, [sp, #32]
 8006c7e:	f003 53fe 	and.w	r3, r3, #532676608	; 0x1fc00000
 8006c82:	f3c4 040a 	ubfx	r4, r4, #0, #11
 8006c86:	02d2      	lsls	r2, r2, #11
 8006c88:	4323      	orrs	r3, r4
 8006c8a:	f402 42f0 	and.w	r2, r2, #30720	; 0x7800
 8006c8e:	4313      	orrs	r3, r2
 8006c90:	04b2      	lsls	r2, r6, #18
 8006c92:	f402 2240 	and.w	r2, r2, #786432	; 0xc0000
 8006c96:	4313      	orrs	r3, r2
 8006c98:	430b      	orrs	r3, r1
 8006c9a:	4303      	orrs	r3, r0
 8006c9c:	f006 06fd 	and.w	r6, r6, #253	; 0xfd
 8006ca0:	f8c7 3500 	str.w	r3, [r7, #1280]	; 0x500
 8006ca4:	2e01      	cmp	r6, #1
 8006ca6:	bf02      	ittt	eq
 8006ca8:	f8d7 3500 	ldreq.w	r3, [r7, #1280]	; 0x500
 8006cac:	f043 5300 	orreq.w	r3, r3, #536870912	; 0x20000000
 8006cb0:	f8c7 3500 	streq.w	r3, [r7, #1280]	; 0x500
 8006cb4:	4628      	mov	r0, r5
 8006cb6:	e8bd 81f0 	ldmia.w	sp!, {r4, r5, r6, r7, r8, pc}
 8006cba:	f8dc 300c 	ldr.w	r3, [ip, #12]
 8006cbe:	f043 0360 	orr.w	r3, r3, #96	; 0x60
 8006cc2:	f8cc 300c 	str.w	r3, [ip, #12]
 8006cc6:	e7b1      	b.n	8006c2c <USB_HC_Init+0x48>
 8006cc8:	f240 639d 	movw	r3, #1693	; 0x69d
 8006ccc:	f1be 0f00 	cmp.w	lr, #0
 8006cd0:	f8cc 300c 	str.w	r3, [ip, #12]
 8006cd4:	daaa      	bge.n	8006c2c <USB_HC_Init+0x48>
 8006cd6:	e7a1      	b.n	8006c1c <USB_HC_Init+0x38>
 8006cd8:	f240 2325 	movw	r3, #549	; 0x225
 8006cdc:	f1be 0f00 	cmp.w	lr, #0
 8006ce0:	f8cc 300c 	str.w	r3, [ip, #12]
 8006ce4:	daa2      	bge.n	8006c2c <USB_HC_Init+0x48>
 8006ce6:	f8dc 300c 	ldr.w	r3, [ip, #12]
 8006cea:	f443 73c0 	orr.w	r3, r3, #384	; 0x180
 8006cee:	e7e8      	b.n	8006cc2 <USB_HC_Init+0xde>
 8006cf0:	2501      	movs	r5, #1
 8006cf2:	e79c      	b.n	8006c2e <USB_HC_Init+0x4a>
 8006cf4:	2000      	movs	r0, #0
 8006cf6:	e7bf      	b.n	8006c78 <USB_HC_Init+0x94>

08006cf8 <USB_HC_ReadInterrupt>:
 8006cf8:	f500 6080 	add.w	r0, r0, #1024	; 0x400
 8006cfc:	6940      	ldr	r0, [r0, #20]
 8006cfe:	b280      	uxth	r0, r0
 8006d00:	4770      	bx	lr

08006d02 <USB_HC_Halt>:
 8006d02:	b537      	push	{r0, r1, r2, r4, r5, lr}
 8006d04:	2300      	movs	r3, #0
 8006d06:	eb00 1141 	add.w	r1, r0, r1, lsl #5
 8006d0a:	9301      	str	r3, [sp, #4]
 8006d0c:	f8d1 3500 	ldr.w	r3, [r1, #1280]	; 0x500
 8006d10:	f8d1 4500 	ldr.w	r4, [r1, #1280]	; 0x500
 8006d14:	6885      	ldr	r5, [r0, #8]
 8006d16:	06ad      	lsls	r5, r5, #26
 8006d18:	f501 62a0 	add.w	r2, r1, #1280	; 0x500
 8006d1c:	ea4f 4393 	mov.w	r3, r3, lsr #18
 8006d20:	d501      	bpl.n	8006d26 <USB_HC_Halt+0x24>
 8006d22:	2c00      	cmp	r4, #0
 8006d24:	da25      	bge.n	8006d72 <USB_HC_Halt+0x70>
 8006d26:	f013 0f01 	tst.w	r3, #1
 8006d2a:	f8d1 3500 	ldr.w	r3, [r1, #1280]	; 0x500
 8006d2e:	f043 4380 	orr.w	r3, r3, #1073741824	; 0x40000000
 8006d32:	f8c1 3500 	str.w	r3, [r1, #1280]	; 0x500
 8006d36:	d11f      	bne.n	8006d78 <USB_HC_Halt+0x76>
 8006d38:	6883      	ldr	r3, [r0, #8]
 8006d3a:	069b      	lsls	r3, r3, #26
 8006d3c:	d419      	bmi.n	8006d72 <USB_HC_Halt+0x70>
 8006d3e:	6ac3      	ldr	r3, [r0, #44]	; 0x2c
 8006d40:	f413 0f7f 	tst.w	r3, #16711680	; 0xff0000
 8006d44:	f8d1 3500 	ldr.w	r3, [r1, #1280]	; 0x500
 8006d48:	d132      	bne.n	8006db0 <USB_HC_Halt+0xae>
 8006d4a:	f023 4300 	bic.w	r3, r3, #2147483648	; 0x80000000
 8006d4e:	f8c1 3500 	str.w	r3, [r1, #1280]	; 0x500
 8006d52:	f8d1 3500 	ldr.w	r3, [r1, #1280]	; 0x500
 8006d56:	f043 4300 	orr.w	r3, r3, #2147483648	; 0x80000000
 8006d5a:	f8c1 3500 	str.w	r3, [r1, #1280]	; 0x500
 8006d5e:	9b01      	ldr	r3, [sp, #4]
 8006d60:	3301      	adds	r3, #1
 8006d62:	9301      	str	r3, [sp, #4]
 8006d64:	9b01      	ldr	r3, [sp, #4]
 8006d66:	f5b3 7f7a 	cmp.w	r3, #1000	; 0x3e8
 8006d6a:	d802      	bhi.n	8006d72 <USB_HC_Halt+0x70>
 8006d6c:	6813      	ldr	r3, [r2, #0]
 8006d6e:	2b00      	cmp	r3, #0
 8006d70:	dbf5      	blt.n	8006d5e <USB_HC_Halt+0x5c>
 8006d72:	2000      	movs	r0, #0
 8006d74:	b003      	add	sp, #12
 8006d76:	bd30      	pop	{r4, r5, pc}
 8006d78:	f8d0 3410 	ldr.w	r3, [r0, #1040]	; 0x410
 8006d7c:	f413 0f7f 	tst.w	r3, #16711680	; 0xff0000
 8006d80:	f8d1 3500 	ldr.w	r3, [r1, #1280]	; 0x500
 8006d84:	d114      	bne.n	8006db0 <USB_HC_Halt+0xae>
 8006d86:	f023 4300 	bic.w	r3, r3, #2147483648	; 0x80000000
 8006d8a:	f8c1 3500 	str.w	r3, [r1, #1280]	; 0x500
 8006d8e:	f8d1 3500 	ldr.w	r3, [r1, #1280]	; 0x500
 8006d92:	f043 4300 	orr.w	r3, r3, #2147483648	; 0x80000000
 8006d96:	f8c1 3500 	str.w	r3, [r1, #1280]	; 0x500
 8006d9a:	9b01      	ldr	r3, [sp, #4]
 8006d9c:	3301      	adds	r3, #1
 8006d9e:	9301      	str	r3, [sp, #4]
 8006da0:	9b01      	ldr	r3, [sp, #4]
 8006da2:	f5b3 7f7a 	cmp.w	r3, #1000	; 0x3e8
 8006da6:	d8e4      	bhi.n	8006d72 <USB_HC_Halt+0x70>
 8006da8:	6813      	ldr	r3, [r2, #0]
 8006daa:	2b00      	cmp	r3, #0
 8006dac:	dbf5      	blt.n	8006d9a <USB_HC_Halt+0x98>
 8006dae:	e7e0      	b.n	8006d72 <USB_HC_Halt+0x70>
 8006db0:	f043 4300 	orr.w	r3, r3, #2147483648	; 0x80000000
 8006db4:	f8c1 3500 	str.w	r3, [r1, #1280]	; 0x500
 8006db8:	e7db      	b.n	8006d72 <USB_HC_Halt+0x70>
	...

08006dbc <USB_DoPing>:
 8006dbc:	eb00 1141 	add.w	r1, r0, r1, lsl #5
 8006dc0:	4a06      	ldr	r2, [pc, #24]	; (8006ddc <USB_DoPing+0x20>)
 8006dc2:	f8c1 2510 	str.w	r2, [r1, #1296]	; 0x510
 8006dc6:	f8d1 3500 	ldr.w	r3, [r1, #1280]	; 0x500
 8006dca:	f023 4380 	bic.w	r3, r3, #1073741824	; 0x40000000
 8006dce:	f043 4300 	orr.w	r3, r3, #2147483648	; 0x80000000
 8006dd2:	f8c1 3500 	str.w	r3, [r1, #1280]	; 0x500
 8006dd6:	2000      	movs	r0, #0
 8006dd8:	4770      	bx	lr
 8006dda:	bf00      	nop
 8006ddc:	80080000 	.word	0x80080000

08006de0 <USB_HC_StartXfer>:
 8006de0:	e92d 41ff 	stmdb	sp!, {r0, r1, r2, r3, r4, r5, r6, r7, r8, lr}
 8006de4:	6bc3      	ldr	r3, [r0, #60]	; 0x3c
 8006de6:	05db      	lsls	r3, r3, #23
 8006de8:	4615      	mov	r5, r2
 8006dea:	4604      	mov	r4, r0
 8006dec:	784a      	ldrb	r2, [r1, #1]
 8006dee:	d50f      	bpl.n	8006e10 <USB_HC_StartXfer+0x30>
 8006df0:	790b      	ldrb	r3, [r1, #4]
 8006df2:	b96b      	cbnz	r3, 8006e10 <USB_HC_StartXfer+0x30>
 8006df4:	2d01      	cmp	r5, #1
 8006df6:	d168      	bne.n	8006eca <USB_HC_StartXfer+0xea>
 8006df8:	79cb      	ldrb	r3, [r1, #7]
 8006dfa:	f013 0ffd 	tst.w	r3, #253	; 0xfd
 8006dfe:	d107      	bne.n	8006e10 <USB_HC_StartXfer+0x30>
 8006e00:	eb00 1342 	add.w	r3, r0, r2, lsl #5
 8006e04:	f8d3 050c 	ldr.w	r0, [r3, #1292]	; 0x50c
 8006e08:	f020 0070 	bic.w	r0, r0, #112	; 0x70
 8006e0c:	f8c3 050c 	str.w	r0, [r3, #1292]	; 0x50c
 8006e10:	694b      	ldr	r3, [r1, #20]
 8006e12:	2b00      	cmp	r3, #0
 8006e14:	d065      	beq.n	8006ee2 <USB_HC_StartXfer+0x102>
 8006e16:	890e      	ldrh	r6, [r1, #8]
 8006e18:	1e58      	subs	r0, r3, #1
 8006e1a:	4430      	add	r0, r6
 8006e1c:	fbb0 f0f6 	udiv	r0, r0, r6
 8006e20:	b280      	uxth	r0, r0
 8006e22:	f5b0 7f80 	cmp.w	r0, #256	; 0x100
 8006e26:	bf28      	it	cs
 8006e28:	f44f 7080 	movcs.w	r0, #256	; 0x100
 8006e2c:	78cf      	ldrb	r7, [r1, #3]
 8006e2e:	2f00      	cmp	r7, #0
 8006e30:	d059      	beq.n	8006ee6 <USB_HC_StartXfer+0x106>
 8006e32:	f8b1 8008 	ldrh.w	r8, [r1, #8]
 8006e36:	fb00 f808 	mul.w	r8, r0, r8
 8006e3a:	f891 c00a 	ldrb.w	ip, [r1, #10]
 8006e3e:	f8c1 8010 	str.w	r8, [r1, #16]
 8006e42:	ea4f 7c4c 	mov.w	ip, ip, lsl #29
 8006e46:	f00c 4cc0 	and.w	ip, ip, #1610612736	; 0x60000000
 8006e4a:	eb04 1642 	add.w	r6, r4, r2, lsl #5
 8006e4e:	ea4c 40c0 	orr.w	r0, ip, r0, lsl #19
 8006e52:	f3c8 0812 	ubfx	r8, r8, #0, #19
 8006e56:	ea40 0008 	orr.w	r0, r0, r8
 8006e5a:	f8c6 0510 	str.w	r0, [r6, #1296]	; 0x510
 8006e5e:	b115      	cbz	r5, 8006e66 <USB_HC_StartXfer+0x86>
 8006e60:	68c8      	ldr	r0, [r1, #12]
 8006e62:	f8c6 0514 	str.w	r0, [r6, #1300]	; 0x514
 8006e66:	f8d4 0408 	ldr.w	r0, [r4, #1032]	; 0x408
 8006e6a:	f8d6 e500 	ldr.w	lr, [r6, #1280]	; 0x500
 8006e6e:	f02e 5e00 	bic.w	lr, lr, #536870912	; 0x20000000
 8006e72:	f8c6 e500 	str.w	lr, [r6, #1280]	; 0x500
 8006e76:	43c0      	mvns	r0, r0
 8006e78:	f8d6 e500 	ldr.w	lr, [r6, #1280]	; 0x500
 8006e7c:	0740      	lsls	r0, r0, #29
 8006e7e:	f000 5000 	and.w	r0, r0, #536870912	; 0x20000000
 8006e82:	ea40 000e 	orr.w	r0, r0, lr
 8006e86:	f8c6 0500 	str.w	r0, [r6, #1280]	; 0x500
 8006e8a:	f8d6 0500 	ldr.w	r0, [r6, #1280]	; 0x500
 8006e8e:	9003      	str	r0, [sp, #12]
 8006e90:	9803      	ldr	r0, [sp, #12]
 8006e92:	f020 4080 	bic.w	r0, r0, #1073741824	; 0x40000000
 8006e96:	9003      	str	r0, [sp, #12]
 8006e98:	f504 6c80 	add.w	ip, r4, #1024	; 0x400
 8006e9c:	9803      	ldr	r0, [sp, #12]
 8006e9e:	b327      	cbz	r7, 8006eea <USB_HC_StartXfer+0x10a>
 8006ea0:	f440 4000 	orr.w	r0, r0, #32768	; 0x8000
 8006ea4:	9003      	str	r0, [sp, #12]
 8006ea6:	9803      	ldr	r0, [sp, #12]
 8006ea8:	f040 4000 	orr.w	r0, r0, #2147483648	; 0x80000000
 8006eac:	9003      	str	r0, [sp, #12]
 8006eae:	9803      	ldr	r0, [sp, #12]
 8006eb0:	f8c6 0500 	str.w	r0, [r6, #1280]	; 0x500
 8006eb4:	ea57 0005 	orrs.w	r0, r7, r5
 8006eb8:	d10f      	bne.n	8006eda <USB_HC_StartXfer+0xfa>
 8006eba:	b173      	cbz	r3, 8006eda <USB_HC_StartXfer+0xfa>
 8006ebc:	79c8      	ldrb	r0, [r1, #7]
 8006ebe:	2803      	cmp	r0, #3
 8006ec0:	d821      	bhi.n	8006f06 <USB_HC_StartXfer+0x126>
 8006ec2:	e8df f000 	tbb	[pc, r0]
 8006ec6:	2815      	.short	0x2815
 8006ec8:	2815      	.short	0x2815
 8006eca:	2d00      	cmp	r5, #0
 8006ecc:	d1a0      	bne.n	8006e10 <USB_HC_StartXfer+0x30>
 8006ece:	794b      	ldrb	r3, [r1, #5]
 8006ed0:	2b01      	cmp	r3, #1
 8006ed2:	d19d      	bne.n	8006e10 <USB_HC_StartXfer+0x30>
 8006ed4:	4611      	mov	r1, r2
 8006ed6:	f7ff ff71 	bl	8006dbc <USB_DoPing>
 8006eda:	2000      	movs	r0, #0
 8006edc:	b004      	add	sp, #16
 8006ede:	e8bd 81f0 	ldmia.w	sp!, {r4, r5, r6, r7, r8, pc}
 8006ee2:	2001      	movs	r0, #1
 8006ee4:	e7a2      	b.n	8006e2c <USB_HC_StartXfer+0x4c>
 8006ee6:	4698      	mov	r8, r3
 8006ee8:	e7a7      	b.n	8006e3a <USB_HC_StartXfer+0x5a>
 8006eea:	f420 4000 	bic.w	r0, r0, #32768	; 0x8000
 8006eee:	e7d9      	b.n	8006ea4 <USB_HC_StartXfer+0xc4>
 8006ef0:	6ae5      	ldr	r5, [r4, #44]	; 0x2c
 8006ef2:	1cd8      	adds	r0, r3, #3
 8006ef4:	b2ad      	uxth	r5, r5
 8006ef6:	f3c0 008f 	ubfx	r0, r0, #2, #16
 8006efa:	4285      	cmp	r5, r0
 8006efc:	d203      	bcs.n	8006f06 <USB_HC_StartXfer+0x126>
 8006efe:	69a0      	ldr	r0, [r4, #24]
 8006f00:	f040 0020 	orr.w	r0, r0, #32
 8006f04:	61a0      	str	r0, [r4, #24]
 8006f06:	2000      	movs	r0, #0
 8006f08:	9000      	str	r0, [sp, #0]
 8006f0a:	68c9      	ldr	r1, [r1, #12]
 8006f0c:	b29b      	uxth	r3, r3
 8006f0e:	4620      	mov	r0, r4
 8006f10:	f7ff fd56 	bl	80069c0 <USB_WritePacket>
 8006f14:	e7e1      	b.n	8006eda <USB_HC_StartXfer+0xfa>
 8006f16:	f8dc 5010 	ldr.w	r5, [ip, #16]
 8006f1a:	1cd8      	adds	r0, r3, #3
 8006f1c:	b2ad      	uxth	r5, r5
 8006f1e:	f3c0 008f 	ubfx	r0, r0, #2, #16
 8006f22:	4285      	cmp	r5, r0
 8006f24:	d2ef      	bcs.n	8006f06 <USB_HC_StartXfer+0x126>
 8006f26:	69a0      	ldr	r0, [r4, #24]
 8006f28:	f040 6080 	orr.w	r0, r0, #67108864	; 0x4000000
 8006f2c:	e7ea      	b.n	8006f04 <USB_HC_StartXfer+0x124>

08006f2e <USB_StopHost>:
 8006f2e:	b537      	push	{r0, r1, r2, r4, r5, lr}
 8006f30:	2300      	movs	r3, #0
 8006f32:	9301      	str	r3, [sp, #4]
 8006f34:	6883      	ldr	r3, [r0, #8]
 8006f36:	f023 0301 	bic.w	r3, r3, #1
 8006f3a:	6083      	str	r3, [r0, #8]
 8006f3c:	2110      	movs	r1, #16
 8006f3e:	4604      	mov	r4, r0
 8006f40:	f7ff fcf4 	bl	800692c <USB_FlushTxFifo>
 8006f44:	4601      	mov	r1, r0
 8006f46:	4620      	mov	r0, r4
 8006f48:	f7ff fd16 	bl	8006978 <USB_FlushRxFifo>
 8006f4c:	4308      	orrs	r0, r1
 8006f4e:	b2c0      	uxtb	r0, r0
 8006f50:	3800      	subs	r0, #0
 8006f52:	f504 63a0 	add.w	r3, r4, #1280	; 0x500
 8006f56:	bf18      	it	ne
 8006f58:	2001      	movne	r0, #1
 8006f5a:	f504 65e0 	add.w	r5, r4, #1792	; 0x700
 8006f5e:	4619      	mov	r1, r3
 8006f60:	680a      	ldr	r2, [r1, #0]
 8006f62:	f022 2280 	bic.w	r2, r2, #2147516416	; 0x80008000
 8006f66:	f042 4280 	orr.w	r2, r2, #1073741824	; 0x40000000
 8006f6a:	f841 2b20 	str.w	r2, [r1], #32
 8006f6e:	42a9      	cmp	r1, r5
 8006f70:	d1f6      	bne.n	8006f60 <USB_StopHost+0x32>
 8006f72:	681a      	ldr	r2, [r3, #0]
 8006f74:	f422 4200 	bic.w	r2, r2, #32768	; 0x8000
 8006f78:	f042 4240 	orr.w	r2, r2, #3221225472	; 0xc0000000
 8006f7c:	601a      	str	r2, [r3, #0]
 8006f7e:	9a01      	ldr	r2, [sp, #4]
 8006f80:	3201      	adds	r2, #1
 8006f82:	9201      	str	r2, [sp, #4]
 8006f84:	9a01      	ldr	r2, [sp, #4]
 8006f86:	f5b2 7f7a 	cmp.w	r2, #1000	; 0x3e8
 8006f8a:	d802      	bhi.n	8006f92 <USB_StopHost+0x64>
 8006f8c:	681a      	ldr	r2, [r3, #0]
 8006f8e:	2a00      	cmp	r2, #0
 8006f90:	dbf5      	blt.n	8006f7e <USB_StopHost+0x50>
 8006f92:	3320      	adds	r3, #32
 8006f94:	42ab      	cmp	r3, r5
 8006f96:	d1ec      	bne.n	8006f72 <USB_StopHost+0x44>
 8006f98:	f04f 33ff 	mov.w	r3, #4294967295
 8006f9c:	f8c4 3414 	str.w	r3, [r4, #1044]	; 0x414
 8006fa0:	6163      	str	r3, [r4, #20]
 8006fa2:	68a3      	ldr	r3, [r4, #8]
 8006fa4:	f043 0301 	orr.w	r3, r3, #1
 8006fa8:	60a3      	str	r3, [r4, #8]
 8006faa:	b003      	add	sp, #12
 8006fac:	bd30      	pop	{r4, r5, pc}

08006fae <USBH_MIDI_ClassRequest>:
 8006fae:	b508      	push	{r3, lr}
 8006fb0:	2102      	movs	r1, #2
 8006fb2:	f8d0 34a4 	ldr.w	r3, [r0, #1188]	; 0x4a4
 8006fb6:	4798      	blx	r3
 8006fb8:	2000      	movs	r0, #0
 8006fba:	bd08      	pop	{r3, pc}

08006fbc <USBH_MIDI_SOFProcess>:
 8006fbc:	2000      	movs	r0, #0
 8006fbe:	4770      	bx	lr

08006fc0 <USBH_MIDI_InterfaceDeInit>:
 8006fc0:	b538      	push	{r3, r4, r5, lr}
 8006fc2:	f8d0 344c 	ldr.w	r3, [r0, #1100]	; 0x44c
 8006fc6:	69dd      	ldr	r5, [r3, #28]
 8006fc8:	78a9      	ldrb	r1, [r5, #2]
 8006fca:	4604      	mov	r4, r0
 8006fcc:	b139      	cbz	r1, 8006fde <USBH_MIDI_InterfaceDeInit+0x1e>
 8006fce:	f000 feb1 	bl	8007d34 <USBH_ClosePipe>
 8006fd2:	78a9      	ldrb	r1, [r5, #2]
 8006fd4:	4620      	mov	r0, r4
 8006fd6:	f000 feca 	bl	8007d6e <USBH_FreePipe>
 8006fda:	2300      	movs	r3, #0
 8006fdc:	70ab      	strb	r3, [r5, #2]
 8006fde:	7869      	ldrb	r1, [r5, #1]
 8006fe0:	b141      	cbz	r1, 8006ff4 <USBH_MIDI_InterfaceDeInit+0x34>
 8006fe2:	4620      	mov	r0, r4
 8006fe4:	f000 fea6 	bl	8007d34 <USBH_ClosePipe>
 8006fe8:	7869      	ldrb	r1, [r5, #1]
 8006fea:	4620      	mov	r0, r4
 8006fec:	f000 febf 	bl	8007d6e <USBH_FreePipe>
 8006ff0:	2300      	movs	r3, #0
 8006ff2:	706b      	strb	r3, [r5, #1]
 8006ff4:	f8d4 344c 	ldr.w	r3, [r4, #1100]	; 0x44c
 8006ff8:	69d8      	ldr	r0, [r3, #28]
 8006ffa:	b128      	cbz	r0, 8007008 <USBH_MIDI_InterfaceDeInit+0x48>
 8006ffc:	f002 ff28 	bl	8009e50 <free>
 8007000:	f8d4 344c 	ldr.w	r3, [r4, #1100]	; 0x44c
 8007004:	2200      	movs	r2, #0
 8007006:	61da      	str	r2, [r3, #28]
 8007008:	2000      	movs	r0, #0
 800700a:	bd38      	pop	{r3, r4, r5, pc}

0800700c <USBH_MIDI_InterfaceInit>:
 800700c:	b57f      	push	{r0, r1, r2, r3, r4, r5, r6, lr}
 800700e:	2101      	movs	r1, #1
 8007010:	23ff      	movs	r3, #255	; 0xff
 8007012:	2203      	movs	r2, #3
 8007014:	4605      	mov	r5, r0
 8007016:	f000 f94f 	bl	80072b8 <USBH_FindInterface>
 800701a:	28ff      	cmp	r0, #255	; 0xff
 800701c:	4601      	mov	r1, r0
 800701e:	d102      	bne.n	8007026 <USBH_MIDI_InterfaceInit+0x1a>
 8007020:	2002      	movs	r0, #2
 8007022:	b004      	add	sp, #16
 8007024:	bd70      	pop	{r4, r5, r6, pc}
 8007026:	4628      	mov	r0, r5
 8007028:	f000 f93d 	bl	80072a6 <USBH_SelectInterface>
 800702c:	201c      	movs	r0, #28
 800702e:	f8d5 644c 	ldr.w	r6, [r5, #1100]	; 0x44c
 8007032:	f002 ff05 	bl	8009e40 <malloc>
 8007036:	4604      	mov	r4, r0
 8007038:	61f0      	str	r0, [r6, #28]
 800703a:	2800      	cmp	r0, #0
 800703c:	d0f0      	beq.n	8007020 <USBH_MIDI_InterfaceInit+0x14>
 800703e:	221c      	movs	r2, #28
 8007040:	2100      	movs	r1, #0
 8007042:	f002 ff0d 	bl	8009e60 <memset>
 8007046:	f895 3324 	ldrb.w	r3, [r5, #804]	; 0x324
 800704a:	211a      	movs	r1, #26
 800704c:	fb01 5203 	mla	r2, r1, r3, r5
 8007050:	fb01 5303 	mla	r3, r1, r3, r5
 8007054:	f992 634e 	ldrsb.w	r6, [r2, #846]	; 0x34e
 8007058:	f892 034e 	ldrb.w	r0, [r2, #846]	; 0x34e
 800705c:	f8b2 2350 	ldrh.w	r2, [r2, #848]	; 0x350
 8007060:	f893 1356 	ldrb.w	r1, [r3, #854]	; 0x356
 8007064:	2e00      	cmp	r6, #0
 8007066:	bfb4      	ite	lt
 8007068:	8122      	strhlt	r2, [r4, #8]
 800706a:	80e2      	strhge	r2, [r4, #6]
 800706c:	f8b3 2358 	ldrh.w	r2, [r3, #856]	; 0x358
 8007070:	f993 3356 	ldrsb.w	r3, [r3, #854]	; 0x356
 8007074:	bfac      	ite	ge
 8007076:	70e0      	strbge	r0, [r4, #3]
 8007078:	7120      	strblt	r0, [r4, #4]
 800707a:	2b00      	cmp	r3, #0
 800707c:	bfac      	ite	ge
 800707e:	70e1      	strbge	r1, [r4, #3]
 8007080:	7121      	strblt	r1, [r4, #4]
 8007082:	4628      	mov	r0, r5
 8007084:	78e1      	ldrb	r1, [r4, #3]
 8007086:	bfb4      	ite	lt
 8007088:	8122      	strhlt	r2, [r4, #8]
 800708a:	80e2      	strhge	r2, [r4, #6]
 800708c:	f000 fe57 	bl	8007d3e <USBH_AllocPipe>
 8007090:	7921      	ldrb	r1, [r4, #4]
 8007092:	70a0      	strb	r0, [r4, #2]
 8007094:	4628      	mov	r0, r5
 8007096:	f000 fe52 	bl	8007d3e <USBH_AllocPipe>
 800709a:	88e3      	ldrh	r3, [r4, #6]
 800709c:	9302      	str	r3, [sp, #8]
 800709e:	2602      	movs	r6, #2
 80070a0:	f895 331d 	ldrb.w	r3, [r5, #797]	; 0x31d
 80070a4:	78e2      	ldrb	r2, [r4, #3]
 80070a6:	78a1      	ldrb	r1, [r4, #2]
 80070a8:	7060      	strb	r0, [r4, #1]
 80070aa:	9601      	str	r6, [sp, #4]
 80070ac:	9300      	str	r3, [sp, #0]
 80070ae:	4628      	mov	r0, r5
 80070b0:	f895 331c 	ldrb.w	r3, [r5, #796]	; 0x31c
 80070b4:	f000 fe2f 	bl	8007d16 <USBH_OpenPipe>
 80070b8:	8923      	ldrh	r3, [r4, #8]
 80070ba:	7922      	ldrb	r2, [r4, #4]
 80070bc:	7861      	ldrb	r1, [r4, #1]
 80070be:	e9cd 6301 	strd	r6, r3, [sp, #4]
 80070c2:	f895 331d 	ldrb.w	r3, [r5, #797]	; 0x31d
 80070c6:	9300      	str	r3, [sp, #0]
 80070c8:	2600      	movs	r6, #0
 80070ca:	f895 331c 	ldrb.w	r3, [r5, #796]	; 0x31c
 80070ce:	4628      	mov	r0, r5
 80070d0:	f000 fe21 	bl	8007d16 <USBH_OpenPipe>
 80070d4:	7861      	ldrb	r1, [r4, #1]
 80070d6:	7026      	strb	r6, [r4, #0]
 80070d8:	4632      	mov	r2, r6
 80070da:	4628      	mov	r0, r5
 80070dc:	f000 ff3d 	bl	8007f5a <USBH_LL_SetToggle>
 80070e0:	78a1      	ldrb	r1, [r4, #2]
 80070e2:	4632      	mov	r2, r6
 80070e4:	4628      	mov	r0, r5
 80070e6:	f000 ff38 	bl	8007f5a <USBH_LL_SetToggle>
 80070ea:	4630      	mov	r0, r6
 80070ec:	e799      	b.n	8007022 <USBH_MIDI_InterfaceInit+0x16>

080070ee <USBH_MIDI_GetLastReceivedDataSize>:
 80070ee:	b508      	push	{r3, lr}
 80070f0:	7802      	ldrb	r2, [r0, #0]
 80070f2:	2a0b      	cmp	r2, #11
 80070f4:	d107      	bne.n	8007106 <USBH_MIDI_GetLastReceivedDataSize+0x18>
 80070f6:	f8d0 344c 	ldr.w	r3, [r0, #1100]	; 0x44c
 80070fa:	69db      	ldr	r3, [r3, #28]
 80070fc:	7859      	ldrb	r1, [r3, #1]
 80070fe:	f000 ff17 	bl	8007f30 <USBH_LL_GetLastXferSize>
 8007102:	b280      	uxth	r0, r0
 8007104:	bd08      	pop	{r3, pc}
 8007106:	2000      	movs	r0, #0
 8007108:	e7fc      	b.n	8007104 <USBH_MIDI_GetLastReceivedDataSize+0x16>

0800710a <USBH_MIDI_Receive>:
 800710a:	f8d0 344c 	ldr.w	r3, [r0, #1100]	; 0x44c
 800710e:	69db      	ldr	r3, [r3, #28]
 8007110:	7818      	ldrb	r0, [r3, #0]
 8007112:	2801      	cmp	r0, #1
 8007114:	f04f 0001 	mov.w	r0, #1
 8007118:	d805      	bhi.n	8007126 <USBH_MIDI_Receive+0x1c>
 800711a:	82da      	strh	r2, [r3, #22]
 800711c:	2203      	movs	r2, #3
 800711e:	7018      	strb	r0, [r3, #0]
 8007120:	6119      	str	r1, [r3, #16]
 8007122:	765a      	strb	r2, [r3, #25]
 8007124:	2000      	movs	r0, #0
 8007126:	4770      	bx	lr

08007128 <USBH_MIDI_TransmitCallback>:
 8007128:	4770      	bx	lr

0800712a <USBH_MIDI_Process>:
 800712a:	b5f7      	push	{r0, r1, r2, r4, r5, r6, r7, lr}
 800712c:	f8d0 344c 	ldr.w	r3, [r0, #1100]	; 0x44c
 8007130:	69dc      	ldr	r4, [r3, #28]
 8007132:	7825      	ldrb	r5, [r4, #0]
 8007134:	2d01      	cmp	r5, #1
 8007136:	4606      	mov	r6, r0
 8007138:	d005      	beq.n	8007146 <USBH_MIDI_Process+0x1c>
 800713a:	2d02      	cmp	r5, #2
 800713c:	d062      	beq.n	8007204 <USBH_MIDI_Process+0xda>
 800713e:	2d00      	cmp	r5, #0
 8007140:	d057      	beq.n	80071f2 <USBH_MIDI_Process+0xc8>
 8007142:	2501      	movs	r5, #1
 8007144:	e055      	b.n	80071f2 <USBH_MIDI_Process+0xc8>
 8007146:	7e23      	ldrb	r3, [r4, #24]
 8007148:	2b01      	cmp	r3, #1
 800714a:	d023      	beq.n	8007194 <USBH_MIDI_Process+0x6a>
 800714c:	2b02      	cmp	r3, #2
 800714e:	d02e      	beq.n	80071ae <USBH_MIDI_Process+0x84>
 8007150:	f8d6 344c 	ldr.w	r3, [r6, #1100]	; 0x44c
 8007154:	69dc      	ldr	r4, [r3, #28]
 8007156:	7e63      	ldrb	r3, [r4, #25]
 8007158:	2b03      	cmp	r3, #3
 800715a:	d042      	beq.n	80071e2 <USBH_MIDI_Process+0xb8>
 800715c:	2b04      	cmp	r3, #4
 800715e:	d1f0      	bne.n	8007142 <USBH_MIDI_Process+0x18>
 8007160:	7861      	ldrb	r1, [r4, #1]
 8007162:	4630      	mov	r0, r6
 8007164:	f000 fee8 	bl	8007f38 <USBH_LL_GetURBState>
 8007168:	2801      	cmp	r0, #1
 800716a:	4605      	mov	r5, r0
 800716c:	d1e9      	bne.n	8007142 <USBH_MIDI_Process+0x18>
 800716e:	7861      	ldrb	r1, [r4, #1]
 8007170:	4630      	mov	r0, r6
 8007172:	f000 fedd 	bl	8007f30 <USBH_LL_GetLastXferSize>
 8007176:	8ae3      	ldrh	r3, [r4, #22]
 8007178:	b282      	uxth	r2, r0
 800717a:	1a99      	subs	r1, r3, r2
 800717c:	2900      	cmp	r1, #0
 800717e:	dd3b      	ble.n	80071f8 <USBH_MIDI_Process+0xce>
 8007180:	8921      	ldrh	r1, [r4, #8]
 8007182:	4291      	cmp	r1, r2
 8007184:	d238      	bcs.n	80071f8 <USBH_MIDI_Process+0xce>
 8007186:	1a98      	subs	r0, r3, r2
 8007188:	6923      	ldr	r3, [r4, #16]
 800718a:	82e0      	strh	r0, [r4, #22]
 800718c:	4413      	add	r3, r2
 800718e:	6123      	str	r3, [r4, #16]
 8007190:	2303      	movs	r3, #3
 8007192:	e02d      	b.n	80071f0 <USBH_MIDI_Process+0xc6>
 8007194:	8aa2      	ldrh	r2, [r4, #20]
 8007196:	88e7      	ldrh	r7, [r4, #6]
 8007198:	78a3      	ldrb	r3, [r4, #2]
 800719a:	68e1      	ldr	r1, [r4, #12]
 800719c:	9500      	str	r5, [sp, #0]
 800719e:	42ba      	cmp	r2, r7
 80071a0:	bf88      	it	hi
 80071a2:	463a      	movhi	r2, r7
 80071a4:	f000 fd90 	bl	8007cc8 <USBH_BulkSendData>
 80071a8:	2302      	movs	r3, #2
 80071aa:	7623      	strb	r3, [r4, #24]
 80071ac:	e7d0      	b.n	8007150 <USBH_MIDI_Process+0x26>
 80071ae:	78a1      	ldrb	r1, [r4, #2]
 80071b0:	f000 fec2 	bl	8007f38 <USBH_LL_GetURBState>
 80071b4:	2801      	cmp	r0, #1
 80071b6:	d111      	bne.n	80071dc <USBH_MIDI_Process+0xb2>
 80071b8:	8aa3      	ldrh	r3, [r4, #20]
 80071ba:	88e2      	ldrh	r2, [r4, #6]
 80071bc:	4293      	cmp	r3, r2
 80071be:	d906      	bls.n	80071ce <USBH_MIDI_Process+0xa4>
 80071c0:	1a9b      	subs	r3, r3, r2
 80071c2:	82a3      	strh	r3, [r4, #20]
 80071c4:	68e3      	ldr	r3, [r4, #12]
 80071c6:	4413      	add	r3, r2
 80071c8:	60e3      	str	r3, [r4, #12]
 80071ca:	7625      	strb	r5, [r4, #24]
 80071cc:	e7c0      	b.n	8007150 <USBH_MIDI_Process+0x26>
 80071ce:	2300      	movs	r3, #0
 80071d0:	82a3      	strh	r3, [r4, #20]
 80071d2:	7623      	strb	r3, [r4, #24]
 80071d4:	4630      	mov	r0, r6
 80071d6:	f7ff ffa7 	bl	8007128 <USBH_MIDI_TransmitCallback>
 80071da:	e7b9      	b.n	8007150 <USBH_MIDI_Process+0x26>
 80071dc:	2802      	cmp	r0, #2
 80071de:	d1b7      	bne.n	8007150 <USBH_MIDI_Process+0x26>
 80071e0:	e7f3      	b.n	80071ca <USBH_MIDI_Process+0xa0>
 80071e2:	7863      	ldrb	r3, [r4, #1]
 80071e4:	8922      	ldrh	r2, [r4, #8]
 80071e6:	6921      	ldr	r1, [r4, #16]
 80071e8:	4630      	mov	r0, r6
 80071ea:	f000 fd84 	bl	8007cf6 <USBH_BulkReceiveData>
 80071ee:	2304      	movs	r3, #4
 80071f0:	7663      	strb	r3, [r4, #25]
 80071f2:	4628      	mov	r0, r5
 80071f4:	b003      	add	sp, #12
 80071f6:	bdf0      	pop	{r4, r5, r6, r7, pc}
 80071f8:	2300      	movs	r3, #0
 80071fa:	7663      	strb	r3, [r4, #25]
 80071fc:	4630      	mov	r0, r6
 80071fe:	f7fa f8bd 	bl	800137c <USBH_MIDI_ReceiveCallback>
 8007202:	e7f6      	b.n	80071f2 <USBH_MIDI_Process+0xc8>
 8007204:	2100      	movs	r1, #0
 8007206:	f000 fd1b 	bl	8007c40 <USBH_ClrFeature>
 800720a:	2800      	cmp	r0, #0
 800720c:	d199      	bne.n	8007142 <USBH_MIDI_Process+0x18>
 800720e:	7020      	strb	r0, [r4, #0]
 8007210:	e797      	b.n	8007142 <USBH_MIDI_Process+0x18>

08007212 <DeInitStateMachine.isra.0>:
 8007212:	b538      	push	{r3, r4, r5, lr}
 8007214:	2540      	movs	r5, #64	; 0x40
 8007216:	4604      	mov	r4, r0
 8007218:	462a      	mov	r2, r5
 800721a:	2100      	movs	r1, #0
 800721c:	f200 4054 	addw	r0, r0, #1108	; 0x454
 8007220:	f002 fe1e 	bl	8009e60 <memset>
 8007224:	f44f 7200 	mov.w	r2, #512	; 0x200
 8007228:	2100      	movs	r1, #0
 800722a:	f504 708e 	add.w	r0, r4, #284	; 0x11c
 800722e:	f002 fe17 	bl	8009e60 <memset>
 8007232:	2300      	movs	r3, #0
 8007234:	7023      	strb	r3, [r4, #0]
 8007236:	2201      	movs	r2, #1
 8007238:	7063      	strb	r3, [r4, #1]
 800723a:	f8c4 3494 	str.w	r3, [r4, #1172]	; 0x494
 800723e:	f44f 7380 	mov.w	r3, #256	; 0x100
 8007242:	70a2      	strb	r2, [r4, #2]
 8007244:	71a5      	strb	r5, [r4, #6]
 8007246:	8322      	strh	r2, [r4, #24]
 8007248:	f8c4 331c 	str.w	r3, [r4, #796]	; 0x31c
 800724c:	bd38      	pop	{r3, r4, r5, pc}

0800724e <USBH_Init>:
 800724e:	b570      	push	{r4, r5, r6, lr}
 8007250:	460e      	mov	r6, r1
 8007252:	4604      	mov	r4, r0
 8007254:	b1c0      	cbz	r0, 8007288 <USBH_Init+0x3a>
 8007256:	2500      	movs	r5, #0
 8007258:	f880 249c 	strb.w	r2, [r0, #1180]	; 0x49c
 800725c:	f8c0 544c 	str.w	r5, [r0, #1100]	; 0x44c
 8007260:	f8c0 5450 	str.w	r5, [r0, #1104]	; 0x450
 8007264:	f7ff ffd5 	bl	8007212 <DeInitStateMachine.isra.0>
 8007268:	f884 5320 	strb.w	r5, [r4, #800]	; 0x320
 800726c:	f884 5323 	strb.w	r5, [r4, #803]	; 0x323
 8007270:	f884 5321 	strb.w	r5, [r4, #801]	; 0x321
 8007274:	f884 5322 	strb.w	r5, [r4, #802]	; 0x322
 8007278:	b10e      	cbz	r6, 800727e <USBH_Init+0x30>
 800727a:	f8c4 64a4 	str.w	r6, [r4, #1188]	; 0x4a4
 800727e:	4620      	mov	r0, r4
 8007280:	f000 fe26 	bl	8007ed0 <USBH_LL_Init>
 8007284:	2000      	movs	r0, #0
 8007286:	bd70      	pop	{r4, r5, r6, pc}
 8007288:	2002      	movs	r0, #2
 800728a:	e7fc      	b.n	8007286 <USBH_Init+0x38>

0800728c <USBH_RegisterClass>:
 800728c:	b149      	cbz	r1, 80072a2 <USBH_RegisterClass+0x16>
 800728e:	f8d0 3450 	ldr.w	r3, [r0, #1104]	; 0x450
 8007292:	b933      	cbnz	r3, 80072a2 <USBH_RegisterClass+0x16>
 8007294:	2201      	movs	r2, #1
 8007296:	f8c0 2450 	str.w	r2, [r0, #1104]	; 0x450
 800729a:	f8c0 1448 	str.w	r1, [r0, #1096]	; 0x448
 800729e:	4618      	mov	r0, r3
 80072a0:	4770      	bx	lr
 80072a2:	2002      	movs	r0, #2
 80072a4:	4770      	bx	lr

080072a6 <USBH_SelectInterface>:
 80072a6:	f890 333c 	ldrb.w	r3, [r0, #828]	; 0x33c
 80072aa:	428b      	cmp	r3, r1
 80072ac:	bf86      	itte	hi
 80072ae:	f880 1324 	strbhi.w	r1, [r0, #804]	; 0x324
 80072b2:	2000      	movhi	r0, #0
 80072b4:	2002      	movls	r0, #2
 80072b6:	4770      	bx	lr

080072b8 <USBH_FindInterface>:
 80072b8:	b570      	push	{r4, r5, r6, lr}
 80072ba:	2400      	movs	r4, #0
 80072bc:	f890 6347 	ldrb.w	r6, [r0, #839]	; 0x347
 80072c0:	428e      	cmp	r6, r1
 80072c2:	b2e5      	uxtb	r5, r4
 80072c4:	d001      	beq.n	80072ca <USBH_FindInterface+0x12>
 80072c6:	29ff      	cmp	r1, #255	; 0xff
 80072c8:	d10b      	bne.n	80072e2 <USBH_FindInterface+0x2a>
 80072ca:	f890 6348 	ldrb.w	r6, [r0, #840]	; 0x348
 80072ce:	4296      	cmp	r6, r2
 80072d0:	d001      	beq.n	80072d6 <USBH_FindInterface+0x1e>
 80072d2:	2aff      	cmp	r2, #255	; 0xff
 80072d4:	d105      	bne.n	80072e2 <USBH_FindInterface+0x2a>
 80072d6:	f890 6349 	ldrb.w	r6, [r0, #841]	; 0x349
 80072da:	429e      	cmp	r6, r3
 80072dc:	d007      	beq.n	80072ee <USBH_FindInterface+0x36>
 80072de:	2bff      	cmp	r3, #255	; 0xff
 80072e0:	d005      	beq.n	80072ee <USBH_FindInterface+0x36>
 80072e2:	3401      	adds	r4, #1
 80072e4:	2c0a      	cmp	r4, #10
 80072e6:	f100 001a 	add.w	r0, r0, #26
 80072ea:	d1e7      	bne.n	80072bc <USBH_FindInterface+0x4>
 80072ec:	25ff      	movs	r5, #255	; 0xff
 80072ee:	4628      	mov	r0, r5
 80072f0:	bd70      	pop	{r4, r5, r6, pc}

080072f2 <USBH_Start>:
 80072f2:	b510      	push	{r4, lr}
 80072f4:	4604      	mov	r4, r0
 80072f6:	f000 fe49 	bl	8007f8c <USBH_LL_Start>
 80072fa:	2101      	movs	r1, #1
 80072fc:	4620      	mov	r0, r4
 80072fe:	f000 fe1f 	bl	8007f40 <USBH_LL_DriverVBUS>
 8007302:	2000      	movs	r0, #0
 8007304:	bd10      	pop	{r4, pc}

08007306 <USBH_Process>:
 8007306:	b570      	push	{r4, r5, r6, lr}
 8007308:	b086      	sub	sp, #24
 800730a:	2302      	movs	r3, #2
 800730c:	f88d 3017 	strb.w	r3, [sp, #23]
 8007310:	f890 3321 	ldrb.w	r3, [r0, #801]	; 0x321
 8007314:	2b01      	cmp	r3, #1
 8007316:	bf04      	itt	eq
 8007318:	2303      	moveq	r3, #3
 800731a:	7003      	strbeq	r3, [r0, #0]
 800731c:	7803      	ldrb	r3, [r0, #0]
 800731e:	4604      	mov	r4, r0
 8007320:	2b0b      	cmp	r3, #11
 8007322:	d81d      	bhi.n	8007360 <USBH_Process+0x5a>
 8007324:	e8df f013 	tbh	[pc, r3, lsl #1]
 8007328:	001f000c 	.word	0x001f000c
 800732c:	01bd0041 	.word	0x01bd0041
 8007330:	0076001c 	.word	0x0076001c
 8007334:	015a01a1 	.word	0x015a01a1
 8007338:	016b0162 	.word	0x016b0162
 800733c:	01b5017f 	.word	0x01b5017f
 8007340:	f890 3320 	ldrb.w	r3, [r0, #800]	; 0x320
 8007344:	b163      	cbz	r3, 8007360 <USBH_Process+0x5a>
 8007346:	2301      	movs	r3, #1
 8007348:	7003      	strb	r3, [r0, #0]
 800734a:	20c8      	movs	r0, #200	; 0xc8
 800734c:	f000 fe14 	bl	8007f78 <USBH_Delay>
 8007350:	4620      	mov	r0, r4
 8007352:	f000 fe2d 	bl	8007fb0 <USBH_LL_ResetPort>
 8007356:	2300      	movs	r3, #0
 8007358:	f884 331c 	strb.w	r3, [r4, #796]	; 0x31c
 800735c:	f8c4 3498 	str.w	r3, [r4, #1176]	; 0x498
 8007360:	2000      	movs	r0, #0
 8007362:	b006      	add	sp, #24
 8007364:	bd70      	pop	{r4, r5, r6, pc}
 8007366:	f890 3323 	ldrb.w	r3, [r0, #803]	; 0x323
 800736a:	2b01      	cmp	r3, #1
 800736c:	d105      	bne.n	800737a <USBH_Process+0x74>
 800736e:	2300      	movs	r3, #0
 8007370:	f880 331f 	strb.w	r3, [r0, #799]	; 0x31f
 8007374:	2302      	movs	r3, #2
 8007376:	7023      	strb	r3, [r4, #0]
 8007378:	e7f2      	b.n	8007360 <USBH_Process+0x5a>
 800737a:	f8d0 3498 	ldr.w	r3, [r0, #1176]	; 0x498
 800737e:	f5b3 7f7a 	cmp.w	r3, #1000	; 0x3e8
 8007382:	d90b      	bls.n	800739c <USBH_Process+0x96>
 8007384:	f890 331f 	ldrb.w	r3, [r0, #799]	; 0x31f
 8007388:	3301      	adds	r3, #1
 800738a:	b2db      	uxtb	r3, r3
 800738c:	2b03      	cmp	r3, #3
 800738e:	f880 331f 	strb.w	r3, [r0, #799]	; 0x31f
 8007392:	d901      	bls.n	8007398 <USBH_Process+0x92>
 8007394:	230d      	movs	r3, #13
 8007396:	e7ee      	b.n	8007376 <USBH_Process+0x70>
 8007398:	2300      	movs	r3, #0
 800739a:	e7ec      	b.n	8007376 <USBH_Process+0x70>
 800739c:	330a      	adds	r3, #10
 800739e:	f8c0 3498 	str.w	r3, [r0, #1176]	; 0x498
 80073a2:	200a      	movs	r0, #10
 80073a4:	f000 fde8 	bl	8007f78 <USBH_Delay>
 80073a8:	e7da      	b.n	8007360 <USBH_Process+0x5a>
 80073aa:	f8d0 34a4 	ldr.w	r3, [r0, #1188]	; 0x4a4
 80073ae:	b10b      	cbz	r3, 80073b4 <USBH_Process+0xae>
 80073b0:	2104      	movs	r1, #4
 80073b2:	4798      	blx	r3
 80073b4:	2064      	movs	r0, #100	; 0x64
 80073b6:	f000 fddf 	bl	8007f78 <USBH_Delay>
 80073ba:	4620      	mov	r0, r4
 80073bc:	f000 fdae 	bl	8007f1c <USBH_LL_GetSpeed>
 80073c0:	2305      	movs	r3, #5
 80073c2:	7023      	strb	r3, [r4, #0]
 80073c4:	f884 031d 	strb.w	r0, [r4, #797]	; 0x31d
 80073c8:	2100      	movs	r1, #0
 80073ca:	4620      	mov	r0, r4
 80073cc:	f000 fcb7 	bl	8007d3e <USBH_AllocPipe>
 80073d0:	2180      	movs	r1, #128	; 0x80
 80073d2:	7160      	strb	r0, [r4, #5]
 80073d4:	4620      	mov	r0, r4
 80073d6:	f000 fcb2 	bl	8007d3e <USBH_AllocPipe>
 80073da:	79a3      	ldrb	r3, [r4, #6]
 80073dc:	9302      	str	r3, [sp, #8]
 80073de:	2500      	movs	r5, #0
 80073e0:	f894 331d 	ldrb.w	r3, [r4, #797]	; 0x31d
 80073e4:	7120      	strb	r0, [r4, #4]
 80073e6:	4601      	mov	r1, r0
 80073e8:	9300      	str	r3, [sp, #0]
 80073ea:	9501      	str	r5, [sp, #4]
 80073ec:	f894 331c 	ldrb.w	r3, [r4, #796]	; 0x31c
 80073f0:	2280      	movs	r2, #128	; 0x80
 80073f2:	4620      	mov	r0, r4
 80073f4:	f000 fc8f 	bl	8007d16 <USBH_OpenPipe>
 80073f8:	79a3      	ldrb	r3, [r4, #6]
 80073fa:	7961      	ldrb	r1, [r4, #5]
 80073fc:	e9cd 5301 	strd	r5, r3, [sp, #4]
 8007400:	f894 331d 	ldrb.w	r3, [r4, #797]	; 0x31d
 8007404:	9300      	str	r3, [sp, #0]
 8007406:	462a      	mov	r2, r5
 8007408:	f894 331c 	ldrb.w	r3, [r4, #796]	; 0x31c
 800740c:	4620      	mov	r0, r4
 800740e:	f000 fc82 	bl	8007d16 <USBH_OpenPipe>
 8007412:	e7a5      	b.n	8007360 <USBH_Process+0x5a>
 8007414:	7845      	ldrb	r5, [r0, #1]
 8007416:	2d07      	cmp	r5, #7
 8007418:	d82b      	bhi.n	8007472 <USBH_Process+0x16c>
 800741a:	e8df f005 	tbb	[pc, r5]
 800741e:	4104      	.short	0x4104
 8007420:	af938d71 	.word	0xaf938d71
 8007424:	cdbe      	.short	0xcdbe
 8007426:	2108      	movs	r1, #8
 8007428:	f000 fa6d 	bl	8007906 <USBH_Get_DevDesc>
 800742c:	4606      	mov	r6, r0
 800742e:	b9f0      	cbnz	r0, 800746e <USBH_Process+0x168>
 8007430:	f894 332d 	ldrb.w	r3, [r4, #813]	; 0x32d
 8007434:	71a3      	strb	r3, [r4, #6]
 8007436:	e9cd 0301 	strd	r0, r3, [sp, #4]
 800743a:	f894 331d 	ldrb.w	r3, [r4, #797]	; 0x31d
 800743e:	9300      	str	r3, [sp, #0]
 8007440:	2501      	movs	r5, #1
 8007442:	f894 331c 	ldrb.w	r3, [r4, #796]	; 0x31c
 8007446:	7065      	strb	r5, [r4, #1]
 8007448:	7921      	ldrb	r1, [r4, #4]
 800744a:	2280      	movs	r2, #128	; 0x80
 800744c:	4620      	mov	r0, r4
 800744e:	f000 fc62 	bl	8007d16 <USBH_OpenPipe>
 8007452:	79a3      	ldrb	r3, [r4, #6]
 8007454:	7961      	ldrb	r1, [r4, #5]
 8007456:	e9cd 6301 	strd	r6, r3, [sp, #4]
 800745a:	f894 331d 	ldrb.w	r3, [r4, #797]	; 0x31d
 800745e:	9300      	str	r3, [sp, #0]
 8007460:	4632      	mov	r2, r6
 8007462:	f894 331c 	ldrb.w	r3, [r4, #796]	; 0x31c
 8007466:	4620      	mov	r0, r4
 8007468:	f000 fc55 	bl	8007d16 <USBH_OpenPipe>
 800746c:	e01e      	b.n	80074ac <USBH_Process+0x1a6>
 800746e:	2803      	cmp	r0, #3
 8007470:	d001      	beq.n	8007476 <USBH_Process+0x170>
 8007472:	2501      	movs	r5, #1
 8007474:	e01a      	b.n	80074ac <USBH_Process+0x1a6>
 8007476:	f894 331e 	ldrb.w	r3, [r4, #798]	; 0x31e
 800747a:	3301      	adds	r3, #1
 800747c:	b2db      	uxtb	r3, r3
 800747e:	2b03      	cmp	r3, #3
 8007480:	f884 331e 	strb.w	r3, [r4, #798]	; 0x31e
 8007484:	d901      	bls.n	800748a <USBH_Process+0x184>
 8007486:	230d      	movs	r3, #13
 8007488:	e008      	b.n	800749c <USBH_Process+0x196>
 800748a:	7961      	ldrb	r1, [r4, #5]
 800748c:	4620      	mov	r0, r4
 800748e:	f000 fc6e 	bl	8007d6e <USBH_FreePipe>
 8007492:	7921      	ldrb	r1, [r4, #4]
 8007494:	4620      	mov	r0, r4
 8007496:	f000 fc6a 	bl	8007d6e <USBH_FreePipe>
 800749a:	2300      	movs	r3, #0
 800749c:	7023      	strb	r3, [r4, #0]
 800749e:	e7e8      	b.n	8007472 <USBH_Process+0x16c>
 80074a0:	2112      	movs	r1, #18
 80074a2:	f000 fa30 	bl	8007906 <USBH_Get_DevDesc>
 80074a6:	b998      	cbnz	r0, 80074d0 <USBH_Process+0x1ca>
 80074a8:	2302      	movs	r3, #2
 80074aa:	7063      	strb	r3, [r4, #1]
 80074ac:	f88d 5017 	strb.w	r5, [sp, #23]
 80074b0:	f89d 3017 	ldrb.w	r3, [sp, #23]
 80074b4:	f003 02ff 	and.w	r2, r3, #255	; 0xff
 80074b8:	2b00      	cmp	r3, #0
 80074ba:	f47f af51 	bne.w	8007360 <USBH_Process+0x5a>
 80074be:	f894 3337 	ldrb.w	r3, [r4, #823]	; 0x337
 80074c2:	f884 2324 	strb.w	r2, [r4, #804]	; 0x324
 80074c6:	2b01      	cmp	r3, #1
 80074c8:	f040 8086 	bne.w	80075d8 <USBH_Process+0x2d2>
 80074cc:	2308      	movs	r3, #8
 80074ce:	e752      	b.n	8007376 <USBH_Process+0x70>
 80074d0:	2803      	cmp	r0, #3
 80074d2:	d1ce      	bne.n	8007472 <USBH_Process+0x16c>
 80074d4:	f894 331e 	ldrb.w	r3, [r4, #798]	; 0x31e
 80074d8:	3301      	adds	r3, #1
 80074da:	b2db      	uxtb	r3, r3
 80074dc:	2b03      	cmp	r3, #3
 80074de:	f884 331e 	strb.w	r3, [r4, #798]	; 0x31e
 80074e2:	d902      	bls.n	80074ea <USBH_Process+0x1e4>
 80074e4:	230d      	movs	r3, #13
 80074e6:	7023      	strb	r3, [r4, #0]
 80074e8:	e7e0      	b.n	80074ac <USBH_Process+0x1a6>
 80074ea:	7961      	ldrb	r1, [r4, #5]
 80074ec:	4620      	mov	r0, r4
 80074ee:	f000 fc3e 	bl	8007d6e <USBH_FreePipe>
 80074f2:	7921      	ldrb	r1, [r4, #4]
 80074f4:	4620      	mov	r0, r4
 80074f6:	f000 fc3a 	bl	8007d6e <USBH_FreePipe>
 80074fa:	2300      	movs	r3, #0
 80074fc:	7063      	strb	r3, [r4, #1]
 80074fe:	e7f2      	b.n	80074e6 <USBH_Process+0x1e0>
 8007500:	2101      	movs	r1, #1
 8007502:	f000 fb76 	bl	8007bf2 <USBH_SetAddress>
 8007506:	4606      	mov	r6, r0
 8007508:	b978      	cbnz	r0, 800752a <USBH_Process+0x224>
 800750a:	2002      	movs	r0, #2
 800750c:	f000 fd34 	bl	8007f78 <USBH_Delay>
 8007510:	2303      	movs	r3, #3
 8007512:	7063      	strb	r3, [r4, #1]
 8007514:	79a3      	ldrb	r3, [r4, #6]
 8007516:	2501      	movs	r5, #1
 8007518:	e9cd 6301 	strd	r6, r3, [sp, #4]
 800751c:	f894 331d 	ldrb.w	r3, [r4, #797]	; 0x31d
 8007520:	9300      	str	r3, [sp, #0]
 8007522:	f884 531c 	strb.w	r5, [r4, #796]	; 0x31c
 8007526:	462b      	mov	r3, r5
 8007528:	e78e      	b.n	8007448 <USBH_Process+0x142>
 800752a:	2803      	cmp	r0, #3
 800752c:	d1a1      	bne.n	8007472 <USBH_Process+0x16c>
 800752e:	230d      	movs	r3, #13
 8007530:	7023      	strb	r3, [r4, #0]
 8007532:	2300      	movs	r3, #0
 8007534:	7063      	strb	r3, [r4, #1]
 8007536:	e79c      	b.n	8007472 <USBH_Process+0x16c>
 8007538:	2109      	movs	r1, #9
 800753a:	f000 fa41 	bl	80079c0 <USBH_Get_CfgDesc>
 800753e:	b940      	cbnz	r0, 8007552 <USBH_Process+0x24c>
 8007540:	2304      	movs	r3, #4
 8007542:	e7f7      	b.n	8007534 <USBH_Process+0x22e>
 8007544:	f8b0 133a 	ldrh.w	r1, [r0, #826]	; 0x33a
 8007548:	f000 fa3a 	bl	80079c0 <USBH_Get_CfgDesc>
 800754c:	b908      	cbnz	r0, 8007552 <USBH_Process+0x24c>
 800754e:	2305      	movs	r3, #5
 8007550:	e7f0      	b.n	8007534 <USBH_Process+0x22e>
 8007552:	2803      	cmp	r0, #3
 8007554:	d18d      	bne.n	8007472 <USBH_Process+0x16c>
 8007556:	f894 331e 	ldrb.w	r3, [r4, #798]	; 0x31e
 800755a:	3301      	adds	r3, #1
 800755c:	b2db      	uxtb	r3, r3
 800755e:	2b03      	cmp	r3, #3
 8007560:	f884 331e 	strb.w	r3, [r4, #798]	; 0x31e
 8007564:	d88f      	bhi.n	8007486 <USBH_Process+0x180>
 8007566:	7961      	ldrb	r1, [r4, #5]
 8007568:	4620      	mov	r0, r4
 800756a:	f000 fc00 	bl	8007d6e <USBH_FreePipe>
 800756e:	7921      	ldrb	r1, [r4, #4]
 8007570:	4620      	mov	r0, r4
 8007572:	f000 fbfc 	bl	8007d6e <USBH_FreePipe>
 8007576:	2300      	movs	r3, #0
 8007578:	7063      	strb	r3, [r4, #1]
 800757a:	e78f      	b.n	800749c <USBH_Process+0x196>
 800757c:	f890 1334 	ldrb.w	r1, [r0, #820]	; 0x334
 8007580:	b129      	cbz	r1, 800758e <USBH_Process+0x288>
 8007582:	23ff      	movs	r3, #255	; 0xff
 8007584:	f500 728e 	add.w	r2, r0, #284	; 0x11c
 8007588:	f000 fb0c 	bl	8007ba4 <USBH_Get_StringDesc>
 800758c:	b908      	cbnz	r0, 8007592 <USBH_Process+0x28c>
 800758e:	2306      	movs	r3, #6
 8007590:	e7d0      	b.n	8007534 <USBH_Process+0x22e>
 8007592:	2803      	cmp	r0, #3
 8007594:	f47f af6d 	bne.w	8007472 <USBH_Process+0x16c>
 8007598:	e7f9      	b.n	800758e <USBH_Process+0x288>
 800759a:	f890 1335 	ldrb.w	r1, [r0, #821]	; 0x335
 800759e:	b129      	cbz	r1, 80075ac <USBH_Process+0x2a6>
 80075a0:	23ff      	movs	r3, #255	; 0xff
 80075a2:	f500 728e 	add.w	r2, r0, #284	; 0x11c
 80075a6:	f000 fafd 	bl	8007ba4 <USBH_Get_StringDesc>
 80075aa:	b908      	cbnz	r0, 80075b0 <USBH_Process+0x2aa>
 80075ac:	2307      	movs	r3, #7
 80075ae:	e7c1      	b.n	8007534 <USBH_Process+0x22e>
 80075b0:	2803      	cmp	r0, #3
 80075b2:	f47f af5e 	bne.w	8007472 <USBH_Process+0x16c>
 80075b6:	e7f9      	b.n	80075ac <USBH_Process+0x2a6>
 80075b8:	f890 1336 	ldrb.w	r1, [r0, #822]	; 0x336
 80075bc:	b909      	cbnz	r1, 80075c2 <USBH_Process+0x2bc>
 80075be:	2500      	movs	r5, #0
 80075c0:	e774      	b.n	80074ac <USBH_Process+0x1a6>
 80075c2:	23ff      	movs	r3, #255	; 0xff
 80075c4:	f500 728e 	add.w	r2, r0, #284	; 0x11c
 80075c8:	f000 faec 	bl	8007ba4 <USBH_Get_StringDesc>
 80075cc:	2800      	cmp	r0, #0
 80075ce:	d0f6      	beq.n	80075be <USBH_Process+0x2b8>
 80075d0:	1ec5      	subs	r5, r0, #3
 80075d2:	bf18      	it	ne
 80075d4:	2501      	movne	r5, #1
 80075d6:	e769      	b.n	80074ac <USBH_Process+0x1a6>
 80075d8:	2307      	movs	r3, #7
 80075da:	e6cc      	b.n	8007376 <USBH_Process+0x70>
 80075dc:	f8d0 34a4 	ldr.w	r3, [r0, #1188]	; 0x4a4
 80075e0:	2b00      	cmp	r3, #0
 80075e2:	f43f aebd 	beq.w	8007360 <USBH_Process+0x5a>
 80075e6:	2101      	movs	r1, #1
 80075e8:	4798      	blx	r3
 80075ea:	e76f      	b.n	80074cc <USBH_Process+0x1c6>
 80075ec:	f890 133d 	ldrb.w	r1, [r0, #829]	; 0x33d
 80075f0:	f000 fb0c 	bl	8007c0c <USBH_SetCfg>
 80075f4:	2800      	cmp	r0, #0
 80075f6:	f47f aeb3 	bne.w	8007360 <USBH_Process+0x5a>
 80075fa:	2309      	movs	r3, #9
 80075fc:	e6bb      	b.n	8007376 <USBH_Process+0x70>
 80075fe:	f890 333f 	ldrb.w	r3, [r0, #831]	; 0x33f
 8007602:	069b      	lsls	r3, r3, #26
 8007604:	d507      	bpl.n	8007616 <USBH_Process+0x310>
 8007606:	2101      	movs	r1, #1
 8007608:	f000 fb0d 	bl	8007c26 <USBH_SetFeature>
 800760c:	f88d 0017 	strb.w	r0, [sp, #23]
 8007610:	f89d 3017 	ldrb.w	r3, [sp, #23]
 8007614:	b90b      	cbnz	r3, 800761a <USBH_Process+0x314>
 8007616:	230a      	movs	r3, #10
 8007618:	e6ad      	b.n	8007376 <USBH_Process+0x70>
 800761a:	f89d 3017 	ldrb.w	r3, [sp, #23]
 800761e:	2b03      	cmp	r3, #3
 8007620:	f47f ae9e 	bne.w	8007360 <USBH_Process+0x5a>
 8007624:	e7f7      	b.n	8007616 <USBH_Process+0x310>
 8007626:	f8d0 3450 	ldr.w	r3, [r0, #1104]	; 0x450
 800762a:	2b00      	cmp	r3, #0
 800762c:	f43f ae98 	beq.w	8007360 <USBH_Process+0x5a>
 8007630:	2300      	movs	r3, #0
 8007632:	f8c0 344c 	str.w	r3, [r0, #1100]	; 0x44c
 8007636:	f8d0 3448 	ldr.w	r3, [r0, #1096]	; 0x448
 800763a:	f890 2347 	ldrb.w	r2, [r0, #839]	; 0x347
 800763e:	7919      	ldrb	r1, [r3, #4]
 8007640:	4291      	cmp	r1, r2
 8007642:	bf18      	it	ne
 8007644:	2300      	movne	r3, #0
 8007646:	f8c0 344c 	str.w	r3, [r0, #1100]	; 0x44c
 800764a:	2b00      	cmp	r3, #0
 800764c:	f43f aea2 	beq.w	8007394 <USBH_Process+0x8e>
 8007650:	689b      	ldr	r3, [r3, #8]
 8007652:	4798      	blx	r3
 8007654:	2800      	cmp	r0, #0
 8007656:	f47f ae9d 	bne.w	8007394 <USBH_Process+0x8e>
 800765a:	2306      	movs	r3, #6
 800765c:	7023      	strb	r3, [r4, #0]
 800765e:	2103      	movs	r1, #3
 8007660:	f8d4 34a4 	ldr.w	r3, [r4, #1188]	; 0x4a4
 8007664:	4620      	mov	r0, r4
 8007666:	4798      	blx	r3
 8007668:	e67a      	b.n	8007360 <USBH_Process+0x5a>
 800766a:	f8d0 344c 	ldr.w	r3, [r0, #1100]	; 0x44c
 800766e:	2b00      	cmp	r3, #0
 8007670:	f43f ae90 	beq.w	8007394 <USBH_Process+0x8e>
 8007674:	691b      	ldr	r3, [r3, #16]
 8007676:	4798      	blx	r3
 8007678:	f88d 0017 	strb.w	r0, [sp, #23]
 800767c:	f89d 3017 	ldrb.w	r3, [sp, #23]
 8007680:	b90b      	cbnz	r3, 8007686 <USBH_Process+0x380>
 8007682:	230b      	movs	r3, #11
 8007684:	e677      	b.n	8007376 <USBH_Process+0x70>
 8007686:	f89d 3017 	ldrb.w	r3, [sp, #23]
 800768a:	2b02      	cmp	r3, #2
 800768c:	f47f ae68 	bne.w	8007360 <USBH_Process+0x5a>
 8007690:	e680      	b.n	8007394 <USBH_Process+0x8e>
 8007692:	f8d0 344c 	ldr.w	r3, [r0, #1100]	; 0x44c
 8007696:	2b00      	cmp	r3, #0
 8007698:	f43f ae62 	beq.w	8007360 <USBH_Process+0x5a>
 800769c:	695b      	ldr	r3, [r3, #20]
 800769e:	4798      	blx	r3
 80076a0:	e65e      	b.n	8007360 <USBH_Process+0x5a>
 80076a2:	2500      	movs	r5, #0
 80076a4:	f880 5321 	strb.w	r5, [r0, #801]	; 0x321
 80076a8:	f7ff fdb3 	bl	8007212 <DeInitStateMachine.isra.0>
 80076ac:	f8d4 344c 	ldr.w	r3, [r4, #1100]	; 0x44c
 80076b0:	b123      	cbz	r3, 80076bc <USBH_Process+0x3b6>
 80076b2:	68db      	ldr	r3, [r3, #12]
 80076b4:	4620      	mov	r0, r4
 80076b6:	4798      	blx	r3
 80076b8:	f8c4 544c 	str.w	r5, [r4, #1100]	; 0x44c
 80076bc:	f8d4 34a4 	ldr.w	r3, [r4, #1188]	; 0x4a4
 80076c0:	b113      	cbz	r3, 80076c8 <USBH_Process+0x3c2>
 80076c2:	2105      	movs	r1, #5
 80076c4:	4620      	mov	r0, r4
 80076c6:	4798      	blx	r3
 80076c8:	f894 3322 	ldrb.w	r3, [r4, #802]	; 0x322
 80076cc:	2b01      	cmp	r3, #1
 80076ce:	d106      	bne.n	80076de <USBH_Process+0x3d8>
 80076d0:	2300      	movs	r3, #0
 80076d2:	f884 3322 	strb.w	r3, [r4, #802]	; 0x322
 80076d6:	4620      	mov	r0, r4
 80076d8:	f7ff fe0b 	bl	80072f2 <USBH_Start>
 80076dc:	e640      	b.n	8007360 <USBH_Process+0x5a>
 80076de:	4620      	mov	r0, r4
 80076e0:	f000 fc54 	bl	8007f8c <USBH_LL_Start>
 80076e4:	e63c      	b.n	8007360 <USBH_Process+0x5a>

080076e6 <USBH_LL_SetTimer>:
 80076e6:	f8c0 1494 	str.w	r1, [r0, #1172]	; 0x494
 80076ea:	4770      	bx	lr

080076ec <USBH_LL_IncTimer>:
 80076ec:	f8d0 2494 	ldr.w	r2, [r0, #1172]	; 0x494
 80076f0:	3201      	adds	r2, #1
 80076f2:	f8c0 2494 	str.w	r2, [r0, #1172]	; 0x494
 80076f6:	7802      	ldrb	r2, [r0, #0]
 80076f8:	2a0b      	cmp	r2, #11
 80076fa:	d104      	bne.n	8007706 <USBH_LL_IncTimer+0x1a>
 80076fc:	f8d0 344c 	ldr.w	r3, [r0, #1100]	; 0x44c
 8007700:	b10b      	cbz	r3, 8007706 <USBH_LL_IncTimer+0x1a>
 8007702:	699b      	ldr	r3, [r3, #24]
 8007704:	4718      	bx	r3
 8007706:	4770      	bx	lr

08007708 <USBH_LL_PortEnabled>:
 8007708:	2301      	movs	r3, #1
 800770a:	f880 3323 	strb.w	r3, [r0, #803]	; 0x323
 800770e:	4770      	bx	lr

08007710 <USBH_LL_PortDisabled>:
 8007710:	2300      	movs	r3, #0
 8007712:	f880 3323 	strb.w	r3, [r0, #803]	; 0x323
 8007716:	4770      	bx	lr

08007718 <USBH_LL_Connect>:
 8007718:	2301      	movs	r3, #1
 800771a:	f880 3320 	strb.w	r3, [r0, #800]	; 0x320
 800771e:	2300      	movs	r3, #0
 8007720:	f880 3321 	strb.w	r3, [r0, #801]	; 0x321
 8007724:	f880 3322 	strb.w	r3, [r0, #802]	; 0x322
 8007728:	4618      	mov	r0, r3
 800772a:	4770      	bx	lr

0800772c <USBH_LL_Disconnect>:
 800772c:	b538      	push	{r3, r4, r5, lr}
 800772e:	4604      	mov	r4, r0
 8007730:	2301      	movs	r3, #1
 8007732:	2500      	movs	r5, #0
 8007734:	f880 3321 	strb.w	r3, [r0, #801]	; 0x321
 8007738:	f880 5323 	strb.w	r5, [r0, #803]	; 0x323
 800773c:	f880 5320 	strb.w	r5, [r0, #800]	; 0x320
 8007740:	f000 fc2d 	bl	8007f9e <USBH_LL_Stop>
 8007744:	7921      	ldrb	r1, [r4, #4]
 8007746:	4620      	mov	r0, r4
 8007748:	f000 fb11 	bl	8007d6e <USBH_FreePipe>
 800774c:	7961      	ldrb	r1, [r4, #5]
 800774e:	4620      	mov	r0, r4
 8007750:	f000 fb0d 	bl	8007d6e <USBH_FreePipe>
 8007754:	4628      	mov	r0, r5
 8007756:	bd38      	pop	{r3, r4, r5, pc}

08007758 <USBH_CtlReq>:
 8007758:	b573      	push	{r0, r1, r4, r5, r6, lr}
 800775a:	7885      	ldrb	r5, [r0, #2]
 800775c:	2d01      	cmp	r5, #1
 800775e:	4604      	mov	r4, r0
 8007760:	d003      	beq.n	800776a <USBH_CtlReq+0x12>
 8007762:	2d02      	cmp	r5, #2
 8007764:	d007      	beq.n	8007776 <USBH_CtlReq+0x1e>
 8007766:	2501      	movs	r5, #1
 8007768:	e019      	b.n	800779e <USBH_CtlReq+0x46>
 800776a:	6081      	str	r1, [r0, #8]
 800776c:	8182      	strh	r2, [r0, #12]
 800776e:	7605      	strb	r5, [r0, #24]
 8007770:	2302      	movs	r3, #2
 8007772:	70a3      	strb	r3, [r4, #2]
 8007774:	e013      	b.n	800779e <USBH_CtlReq+0x46>
 8007776:	7e06      	ldrb	r6, [r0, #24]
 8007778:	1e73      	subs	r3, r6, #1
 800777a:	2b0a      	cmp	r3, #10
 800777c:	d8f3      	bhi.n	8007766 <USBH_CtlReq+0xe>
 800777e:	e8df f003 	tbb	[pc, r3]
 8007782:	1106      	.short	0x1106
 8007784:	4e42392f 	.word	0x4e42392f
 8007788:	8478675d 	.word	0x8478675d
 800778c:	8c          	.byte	0x8c
 800778d:	00          	.byte	0x00
 800778e:	7942      	ldrb	r2, [r0, #5]
 8007790:	f100 0110 	add.w	r1, r0, #16
 8007794:	f000 fa61 	bl	8007c5a <USBH_CtlSendSetup>
 8007798:	2302      	movs	r3, #2
 800779a:	7623      	strb	r3, [r4, #24]
 800779c:	4635      	mov	r5, r6
 800779e:	4628      	mov	r0, r5
 80077a0:	b002      	add	sp, #8
 80077a2:	bd70      	pop	{r4, r5, r6, pc}
 80077a4:	7941      	ldrb	r1, [r0, #5]
 80077a6:	f000 fbc7 	bl	8007f38 <USBH_LL_GetURBState>
 80077aa:	2801      	cmp	r0, #1
 80077ac:	4605      	mov	r5, r0
 80077ae:	d111      	bne.n	80077d4 <USBH_CtlReq+0x7c>
 80077b0:	8ae2      	ldrh	r2, [r4, #22]
 80077b2:	f994 3010 	ldrsb.w	r3, [r4, #16]
 80077b6:	b13a      	cbz	r2, 80077c8 <USBH_CtlReq+0x70>
 80077b8:	2b00      	cmp	r3, #0
 80077ba:	da02      	bge.n	80077c2 <USBH_CtlReq+0x6a>
 80077bc:	2303      	movs	r3, #3
 80077be:	7623      	strb	r3, [r4, #24]
 80077c0:	e7ed      	b.n	800779e <USBH_CtlReq+0x46>
 80077c2:	2305      	movs	r3, #5
 80077c4:	7623      	strb	r3, [r4, #24]
 80077c6:	e7ce      	b.n	8007766 <USBH_CtlReq+0xe>
 80077c8:	2b00      	cmp	r3, #0
 80077ca:	da01      	bge.n	80077d0 <USBH_CtlReq+0x78>
 80077cc:	2309      	movs	r3, #9
 80077ce:	e7f9      	b.n	80077c4 <USBH_CtlReq+0x6c>
 80077d0:	2307      	movs	r3, #7
 80077d2:	e7f7      	b.n	80077c4 <USBH_CtlReq+0x6c>
 80077d4:	2804      	cmp	r0, #4
 80077d6:	d001      	beq.n	80077dc <USBH_CtlReq+0x84>
 80077d8:	2802      	cmp	r0, #2
 80077da:	d1c4      	bne.n	8007766 <USBH_CtlReq+0xe>
 80077dc:	230b      	movs	r3, #11
 80077de:	e7f1      	b.n	80077c4 <USBH_CtlReq+0x6c>
 80077e0:	f8d0 3494 	ldr.w	r3, [r0, #1172]	; 0x494
 80077e4:	81c3      	strh	r3, [r0, #14]
 80077e6:	8982      	ldrh	r2, [r0, #12]
 80077e8:	7903      	ldrb	r3, [r0, #4]
 80077ea:	6881      	ldr	r1, [r0, #8]
 80077ec:	f000 fa5c 	bl	8007ca8 <USBH_CtlReceiveData>
 80077f0:	2304      	movs	r3, #4
 80077f2:	e7e7      	b.n	80077c4 <USBH_CtlReq+0x6c>
 80077f4:	7901      	ldrb	r1, [r0, #4]
 80077f6:	f000 fb9f 	bl	8007f38 <USBH_LL_GetURBState>
 80077fa:	2801      	cmp	r0, #1
 80077fc:	d0e6      	beq.n	80077cc <USBH_CtlReq+0x74>
 80077fe:	2805      	cmp	r0, #5
 8007800:	d035      	beq.n	800786e <USBH_CtlReq+0x116>
 8007802:	2804      	cmp	r0, #4
 8007804:	e7e9      	b.n	80077da <USBH_CtlReq+0x82>
 8007806:	2501      	movs	r5, #1
 8007808:	9500      	str	r5, [sp, #0]
 800780a:	7943      	ldrb	r3, [r0, #5]
 800780c:	8982      	ldrh	r2, [r0, #12]
 800780e:	6881      	ldr	r1, [r0, #8]
 8007810:	f000 fa33 	bl	8007c7a <USBH_CtlSendData>
 8007814:	f8d4 3494 	ldr.w	r3, [r4, #1172]	; 0x494
 8007818:	81e3      	strh	r3, [r4, #14]
 800781a:	2306      	movs	r3, #6
 800781c:	e7cf      	b.n	80077be <USBH_CtlReq+0x66>
 800781e:	7941      	ldrb	r1, [r0, #5]
 8007820:	f000 fb8a 	bl	8007f38 <USBH_LL_GetURBState>
 8007824:	2801      	cmp	r0, #1
 8007826:	d0d3      	beq.n	80077d0 <USBH_CtlReq+0x78>
 8007828:	2805      	cmp	r0, #5
 800782a:	d020      	beq.n	800786e <USBH_CtlReq+0x116>
 800782c:	2802      	cmp	r0, #2
 800782e:	d0c8      	beq.n	80077c2 <USBH_CtlReq+0x6a>
 8007830:	2804      	cmp	r0, #4
 8007832:	d198      	bne.n	8007766 <USBH_CtlReq+0xe>
 8007834:	230b      	movs	r3, #11
 8007836:	7623      	strb	r3, [r4, #24]
 8007838:	2301      	movs	r3, #1
 800783a:	e79a      	b.n	8007772 <USBH_CtlReq+0x1a>
 800783c:	2200      	movs	r2, #0
 800783e:	7903      	ldrb	r3, [r0, #4]
 8007840:	4611      	mov	r1, r2
 8007842:	f000 fa31 	bl	8007ca8 <USBH_CtlReceiveData>
 8007846:	f8d4 3494 	ldr.w	r3, [r4, #1172]	; 0x494
 800784a:	81e3      	strh	r3, [r4, #14]
 800784c:	2308      	movs	r3, #8
 800784e:	e7b9      	b.n	80077c4 <USBH_CtlReq+0x6c>
 8007850:	7901      	ldrb	r1, [r0, #4]
 8007852:	f000 fb71 	bl	8007f38 <USBH_LL_GetURBState>
 8007856:	2801      	cmp	r0, #1
 8007858:	d104      	bne.n	8007864 <USBH_CtlReq+0x10c>
 800785a:	2500      	movs	r5, #0
 800785c:	2301      	movs	r3, #1
 800785e:	70a3      	strb	r3, [r4, #2]
 8007860:	2300      	movs	r3, #0
 8007862:	e7ac      	b.n	80077be <USBH_CtlReq+0x66>
 8007864:	2804      	cmp	r0, #4
 8007866:	d0b9      	beq.n	80077dc <USBH_CtlReq+0x84>
 8007868:	2805      	cmp	r0, #5
 800786a:	f47f af7c 	bne.w	8007766 <USBH_CtlReq+0xe>
 800786e:	2503      	movs	r5, #3
 8007870:	e7f4      	b.n	800785c <USBH_CtlReq+0x104>
 8007872:	2501      	movs	r5, #1
 8007874:	9500      	str	r5, [sp, #0]
 8007876:	2200      	movs	r2, #0
 8007878:	7943      	ldrb	r3, [r0, #5]
 800787a:	4611      	mov	r1, r2
 800787c:	f000 f9fd 	bl	8007c7a <USBH_CtlSendData>
 8007880:	f8d4 3494 	ldr.w	r3, [r4, #1172]	; 0x494
 8007884:	81e3      	strh	r3, [r4, #14]
 8007886:	230a      	movs	r3, #10
 8007888:	e799      	b.n	80077be <USBH_CtlReq+0x66>
 800788a:	7941      	ldrb	r1, [r0, #5]
 800788c:	f000 fb54 	bl	8007f38 <USBH_LL_GetURBState>
 8007890:	2801      	cmp	r0, #1
 8007892:	d0e2      	beq.n	800785a <USBH_CtlReq+0x102>
 8007894:	2802      	cmp	r0, #2
 8007896:	d1b4      	bne.n	8007802 <USBH_CtlReq+0xaa>
 8007898:	e798      	b.n	80077cc <USBH_CtlReq+0x74>
 800789a:	7e43      	ldrb	r3, [r0, #25]
 800789c:	3301      	adds	r3, #1
 800789e:	b2db      	uxtb	r3, r3
 80078a0:	2b02      	cmp	r3, #2
 80078a2:	7643      	strb	r3, [r0, #25]
 80078a4:	d803      	bhi.n	80078ae <USBH_CtlReq+0x156>
 80078a6:	2501      	movs	r5, #1
 80078a8:	7605      	strb	r5, [r0, #24]
 80078aa:	7085      	strb	r5, [r0, #2]
 80078ac:	e777      	b.n	800779e <USBH_CtlReq+0x46>
 80078ae:	f8d0 34a4 	ldr.w	r3, [r0, #1188]	; 0x4a4
 80078b2:	2106      	movs	r1, #6
 80078b4:	2600      	movs	r6, #0
 80078b6:	4798      	blx	r3
 80078b8:	7961      	ldrb	r1, [r4, #5]
 80078ba:	7666      	strb	r6, [r4, #25]
 80078bc:	4620      	mov	r0, r4
 80078be:	f000 fa56 	bl	8007d6e <USBH_FreePipe>
 80078c2:	7921      	ldrb	r1, [r4, #4]
 80078c4:	4620      	mov	r0, r4
 80078c6:	f000 fa52 	bl	8007d6e <USBH_FreePipe>
 80078ca:	7026      	strb	r6, [r4, #0]
 80078cc:	e7b4      	b.n	8007838 <USBH_CtlReq+0xe0>

080078ce <USBH_GetDescriptor>:
 80078ce:	b430      	push	{r4, r5}
 80078d0:	460c      	mov	r4, r1
 80078d2:	4619      	mov	r1, r3
 80078d4:	7883      	ldrb	r3, [r0, #2]
 80078d6:	f8bd 5008 	ldrh.w	r5, [sp, #8]
 80078da:	2b01      	cmp	r3, #1
 80078dc:	d10f      	bne.n	80078fe <USBH_GetDescriptor+0x30>
 80078de:	f064 047f 	orn	r4, r4, #127	; 0x7f
 80078e2:	7404      	strb	r4, [r0, #16]
 80078e4:	f402 447f 	and.w	r4, r2, #65280	; 0xff00
 80078e8:	2306      	movs	r3, #6
 80078ea:	f5b4 7f40 	cmp.w	r4, #768	; 0x300
 80078ee:	7443      	strb	r3, [r0, #17]
 80078f0:	f240 4309 	movw	r3, #1033	; 0x409
 80078f4:	bf18      	it	ne
 80078f6:	2300      	movne	r3, #0
 80078f8:	8242      	strh	r2, [r0, #18]
 80078fa:	8283      	strh	r3, [r0, #20]
 80078fc:	82c5      	strh	r5, [r0, #22]
 80078fe:	462a      	mov	r2, r5
 8007900:	bc30      	pop	{r4, r5}
 8007902:	f7ff bf29 	b.w	8007758 <USBH_CtlReq>

08007906 <USBH_Get_DevDesc>:
 8007906:	b537      	push	{r0, r1, r2, r4, r5, lr}
 8007908:	f500 738e 	add.w	r3, r0, #284	; 0x11c
 800790c:	460d      	mov	r5, r1
 800790e:	9100      	str	r1, [sp, #0]
 8007910:	f44f 7280 	mov.w	r2, #256	; 0x100
 8007914:	2100      	movs	r1, #0
 8007916:	4604      	mov	r4, r0
 8007918:	f7ff ffd9 	bl	80078ce <USBH_GetDescriptor>
 800791c:	2800      	cmp	r0, #0
 800791e:	d147      	bne.n	80079b0 <USBH_Get_DevDesc+0xaa>
 8007920:	f894 311c 	ldrb.w	r3, [r4, #284]	; 0x11c
 8007924:	f884 3326 	strb.w	r3, [r4, #806]	; 0x326
 8007928:	f894 311d 	ldrb.w	r3, [r4, #285]	; 0x11d
 800792c:	f884 3327 	strb.w	r3, [r4, #807]	; 0x327
 8007930:	f8b4 311e 	ldrh.w	r3, [r4, #286]	; 0x11e
 8007934:	f894 2123 	ldrb.w	r2, [r4, #291]	; 0x123
 8007938:	f8a4 3328 	strh.w	r3, [r4, #808]	; 0x328
 800793c:	f894 3120 	ldrb.w	r3, [r4, #288]	; 0x120
 8007940:	f884 332a 	strb.w	r3, [r4, #810]	; 0x32a
 8007944:	f894 3121 	ldrb.w	r3, [r4, #289]	; 0x121
 8007948:	f884 332b 	strb.w	r3, [r4, #811]	; 0x32b
 800794c:	2a20      	cmp	r2, #32
 800794e:	f894 3122 	ldrb.w	r3, [r4, #290]	; 0x122
 8007952:	f884 332c 	strb.w	r3, [r4, #812]	; 0x32c
 8007956:	d82d      	bhi.n	80079b4 <USBH_Get_DevDesc+0xae>
 8007958:	2a07      	cmp	r2, #7
 800795a:	d92d      	bls.n	80079b8 <USBH_Get_DevDesc+0xb2>
 800795c:	f1a2 0308 	sub.w	r3, r2, #8
 8007960:	b2d9      	uxtb	r1, r3
 8007962:	2301      	movs	r3, #1
 8007964:	408b      	lsls	r3, r1
 8007966:	f003 3301 	and.w	r3, r3, #16843009	; 0x1010101
 800796a:	f423 3380 	bic.w	r3, r3, #65536	; 0x10000
 800796e:	b31b      	cbz	r3, 80079b8 <USBH_Get_DevDesc+0xb2>
 8007970:	f884 232d 	strb.w	r2, [r4, #813]	; 0x32d
 8007974:	2d08      	cmp	r5, #8
 8007976:	d91b      	bls.n	80079b0 <USBH_Get_DevDesc+0xaa>
 8007978:	f8b4 3124 	ldrh.w	r3, [r4, #292]	; 0x124
 800797c:	f8a4 332e 	strh.w	r3, [r4, #814]	; 0x32e
 8007980:	f8b4 3126 	ldrh.w	r3, [r4, #294]	; 0x126
 8007984:	f8a4 3330 	strh.w	r3, [r4, #816]	; 0x330
 8007988:	f8b4 3128 	ldrh.w	r3, [r4, #296]	; 0x128
 800798c:	f8a4 3332 	strh.w	r3, [r4, #818]	; 0x332
 8007990:	f894 312a 	ldrb.w	r3, [r4, #298]	; 0x12a
 8007994:	f884 3334 	strb.w	r3, [r4, #820]	; 0x334
 8007998:	f894 312b 	ldrb.w	r3, [r4, #299]	; 0x12b
 800799c:	f884 3335 	strb.w	r3, [r4, #821]	; 0x335
 80079a0:	f894 312c 	ldrb.w	r3, [r4, #300]	; 0x12c
 80079a4:	f884 3336 	strb.w	r3, [r4, #822]	; 0x336
 80079a8:	f894 312d 	ldrb.w	r3, [r4, #301]	; 0x12d
 80079ac:	f884 3337 	strb.w	r3, [r4, #823]	; 0x337
 80079b0:	b003      	add	sp, #12
 80079b2:	bd30      	pop	{r4, r5, pc}
 80079b4:	2a40      	cmp	r2, #64	; 0x40
 80079b6:	d0db      	beq.n	8007970 <USBH_Get_DevDesc+0x6a>
 80079b8:	2340      	movs	r3, #64	; 0x40
 80079ba:	f884 332d 	strb.w	r3, [r4, #813]	; 0x32d
 80079be:	e7d9      	b.n	8007974 <USBH_Get_DevDesc+0x6e>

080079c0 <USBH_Get_CfgDesc>:
 80079c0:	e92d 4ff0 	stmdb	sp!, {r4, r5, r6, r7, r8, r9, sl, fp, lr}
 80079c4:	b087      	sub	sp, #28
 80079c6:	f100 041c 	add.w	r4, r0, #28
 80079ca:	460e      	mov	r6, r1
 80079cc:	9100      	str	r1, [sp, #0]
 80079ce:	4623      	mov	r3, r4
 80079d0:	f44f 7200 	mov.w	r2, #512	; 0x200
 80079d4:	2100      	movs	r1, #0
 80079d6:	4605      	mov	r5, r0
 80079d8:	f7ff ff79 	bl	80078ce <USBH_GetDescriptor>
 80079dc:	2800      	cmp	r0, #0
 80079de:	d172      	bne.n	8007ac6 <USBH_Get_CfgDesc+0x106>
 80079e0:	f8b5 801e 	ldrh.w	r8, [r5, #30]
 80079e4:	7f2b      	ldrb	r3, [r5, #28]
 80079e6:	7f6a      	ldrb	r2, [r5, #29]
 80079e8:	f885 2339 	strb.w	r2, [r5, #825]	; 0x339
 80079ec:	f5b8 7f80 	cmp.w	r8, #256	; 0x100
 80079f0:	f895 2021 	ldrb.w	r2, [r5, #33]	; 0x21
 80079f4:	f885 233d 	strb.w	r2, [r5, #829]	; 0x33d
 80079f8:	bf28      	it	cs
 80079fa:	f44f 7880 	movcs.w	r8, #256	; 0x100
 80079fe:	f895 2022 	ldrb.w	r2, [r5, #34]	; 0x22
 8007a02:	f885 3338 	strb.w	r3, [r5, #824]	; 0x338
 8007a06:	2b09      	cmp	r3, #9
 8007a08:	bf18      	it	ne
 8007a0a:	2309      	movne	r3, #9
 8007a0c:	f885 233e 	strb.w	r2, [r5, #830]	; 0x33e
 8007a10:	f895 2023 	ldrb.w	r2, [r5, #35]	; 0x23
 8007a14:	f895 a020 	ldrb.w	sl, [r5, #32]
 8007a18:	f885 233f 	strb.w	r2, [r5, #831]	; 0x33f
 8007a1c:	bf18      	it	ne
 8007a1e:	f885 3338 	strbne.w	r3, [r5, #824]	; 0x338
 8007a22:	f895 2024 	ldrb.w	r2, [r5, #36]	; 0x24
 8007a26:	f8a5 833a 	strh.w	r8, [r5, #826]	; 0x33a
 8007a2a:	2e09      	cmp	r6, #9
 8007a2c:	f885 a33c 	strb.w	sl, [r5, #828]	; 0x33c
 8007a30:	f885 2340 	strb.w	r2, [r5, #832]	; 0x340
 8007a34:	f240 80b0 	bls.w	8007b98 <USBH_Get_CfgDesc+0x1d8>
 8007a38:	2000      	movs	r0, #0
 8007a3a:	462b      	mov	r3, r5
 8007a3c:	4686      	mov	lr, r0
 8007a3e:	2209      	movs	r2, #9
 8007a40:	fa5f f68e 	uxtb.w	r6, lr
 8007a44:	f1be 0f0a 	cmp.w	lr, #10
 8007a48:	d03d      	beq.n	8007ac6 <USBH_Get_CfgDesc+0x106>
 8007a4a:	4590      	cmp	r8, r2
 8007a4c:	d806      	bhi.n	8007a5c <USBH_Get_CfgDesc+0x9c>
 8007a4e:	4653      	mov	r3, sl
 8007a50:	2b0a      	cmp	r3, #10
 8007a52:	bf28      	it	cs
 8007a54:	230a      	movcs	r3, #10
 8007a56:	42b3      	cmp	r3, r6
 8007a58:	d935      	bls.n	8007ac6 <USBH_Get_CfgDesc+0x106>
 8007a5a:	e033      	b.n	8007ac4 <USBH_Get_CfgDesc+0x104>
 8007a5c:	7821      	ldrb	r1, [r4, #0]
 8007a5e:	440c      	add	r4, r1
 8007a60:	440a      	add	r2, r1
 8007a62:	7861      	ldrb	r1, [r4, #1]
 8007a64:	2904      	cmp	r1, #4
 8007a66:	b292      	uxth	r2, r2
 8007a68:	d1ec      	bne.n	8007a44 <USBH_Get_CfgDesc+0x84>
 8007a6a:	7821      	ldrb	r1, [r4, #0]
 8007a6c:	2909      	cmp	r1, #9
 8007a6e:	bf1c      	itt	ne
 8007a70:	2109      	movne	r1, #9
 8007a72:	7021      	strbne	r1, [r4, #0]
 8007a74:	7821      	ldrb	r1, [r4, #0]
 8007a76:	f883 1342 	strb.w	r1, [r3, #834]	; 0x342
 8007a7a:	7861      	ldrb	r1, [r4, #1]
 8007a7c:	f883 1343 	strb.w	r1, [r3, #835]	; 0x343
 8007a80:	78a1      	ldrb	r1, [r4, #2]
 8007a82:	f883 1344 	strb.w	r1, [r3, #836]	; 0x344
 8007a86:	78e1      	ldrb	r1, [r4, #3]
 8007a88:	f883 1345 	strb.w	r1, [r3, #837]	; 0x345
 8007a8c:	7921      	ldrb	r1, [r4, #4]
 8007a8e:	f883 1346 	strb.w	r1, [r3, #838]	; 0x346
 8007a92:	9102      	str	r1, [sp, #8]
 8007a94:	7961      	ldrb	r1, [r4, #5]
 8007a96:	f883 1347 	strb.w	r1, [r3, #839]	; 0x347
 8007a9a:	9103      	str	r1, [sp, #12]
 8007a9c:	79a1      	ldrb	r1, [r4, #6]
 8007a9e:	f883 1348 	strb.w	r1, [r3, #840]	; 0x348
 8007aa2:	9104      	str	r1, [sp, #16]
 8007aa4:	79e1      	ldrb	r1, [r4, #7]
 8007aa6:	f883 1349 	strb.w	r1, [r3, #841]	; 0x349
 8007aaa:	9105      	str	r1, [sp, #20]
 8007aac:	7a21      	ldrb	r1, [r4, #8]
 8007aae:	f883 134a 	strb.w	r1, [r3, #842]	; 0x34a
 8007ab2:	211a      	movs	r1, #26
 8007ab4:	2700      	movs	r7, #0
 8007ab6:	fb01 fb0e 	mul.w	fp, r1, lr
 8007aba:	9902      	ldr	r1, [sp, #8]
 8007abc:	428f      	cmp	r7, r1
 8007abe:	d26d      	bcs.n	8007b9c <USBH_Get_CfgDesc+0x1dc>
 8007ac0:	4590      	cmp	r8, r2
 8007ac2:	d803      	bhi.n	8007acc <USBH_Get_CfgDesc+0x10c>
 8007ac4:	2003      	movs	r0, #3
 8007ac6:	b007      	add	sp, #28
 8007ac8:	e8bd 8ff0 	ldmia.w	sp!, {r4, r5, r6, r7, r8, r9, sl, fp, pc}
 8007acc:	7821      	ldrb	r1, [r4, #0]
 8007ace:	440c      	add	r4, r1
 8007ad0:	440a      	add	r2, r1
 8007ad2:	7861      	ldrb	r1, [r4, #1]
 8007ad4:	2905      	cmp	r1, #5
 8007ad6:	b292      	uxth	r2, r2
 8007ad8:	d1ef      	bne.n	8007aba <USBH_Get_CfgDesc+0xfa>
 8007ada:	9803      	ldr	r0, [sp, #12]
 8007adc:	7821      	ldrb	r1, [r4, #0]
 8007ade:	2801      	cmp	r0, #1
 8007ae0:	d147      	bne.n	8007b72 <USBH_Get_CfgDesc+0x1b2>
 8007ae2:	9804      	ldr	r0, [sp, #16]
 8007ae4:	2802      	cmp	r0, #2
 8007ae6:	d144      	bne.n	8007b72 <USBH_Get_CfgDesc+0x1b2>
 8007ae8:	9805      	ldr	r0, [sp, #20]
 8007aea:	b920      	cbnz	r0, 8007af6 <USBH_Get_CfgDesc+0x136>
 8007aec:	2909      	cmp	r1, #9
 8007aee:	d002      	beq.n	8007af6 <USBH_Get_CfgDesc+0x136>
 8007af0:	f04f 0109 	mov.w	r1, #9
 8007af4:	7021      	strb	r1, [r4, #0]
 8007af6:	1c78      	adds	r0, r7, #1
 8007af8:	eb0b 00c0 	add.w	r0, fp, r0, lsl #3
 8007afc:	4428      	add	r0, r5
 8007afe:	7821      	ldrb	r1, [r4, #0]
 8007b00:	f880 1344 	strb.w	r1, [r0, #836]	; 0x344
 8007b04:	7861      	ldrb	r1, [r4, #1]
 8007b06:	f880 1345 	strb.w	r1, [r0, #837]	; 0x345
 8007b0a:	78a1      	ldrb	r1, [r4, #2]
 8007b0c:	f880 1346 	strb.w	r1, [r0, #838]	; 0x346
 8007b10:	f894 c003 	ldrb.w	ip, [r4, #3]
 8007b14:	f880 c347 	strb.w	ip, [r0, #839]	; 0x347
 8007b18:	88a1      	ldrh	r1, [r4, #4]
 8007b1a:	f8a0 1348 	strh.w	r1, [r0, #840]	; 0x348
 8007b1e:	79a6      	ldrb	r6, [r4, #6]
 8007b20:	f880 634a 	strb.w	r6, [r0, #842]	; 0x34a
 8007b24:	b351      	cbz	r1, 8007b7c <USBH_Get_CfgDesc+0x1bc>
 8007b26:	f421 61ff 	bic.w	r1, r1, #2040	; 0x7f8
 8007b2a:	f021 0107 	bic.w	r1, r1, #7
 8007b2e:	f8a0 1348 	strh.w	r1, [r0, #840]	; 0x348
 8007b32:	f8b4 9004 	ldrh.w	r9, [r4, #4]
 8007b36:	1c78      	adds	r0, r7, #1
 8007b38:	f419 6fc0 	tst.w	r9, #1536	; 0x600
 8007b3c:	eb0b 00c0 	add.w	r0, fp, r0, lsl #3
 8007b40:	4428      	add	r0, r5
 8007b42:	b209      	sxth	r1, r1
 8007b44:	bf0c      	ite	eq
 8007b46:	f3c9 090a 	ubfxeq	r9, r9, #0, #11
 8007b4a:	f44f 7900 	movne.w	r9, #512	; 0x200
 8007b4e:	ea41 0109 	orr.w	r1, r1, r9
 8007b52:	f8a0 1348 	strh.w	r1, [r0, #840]	; 0x348
 8007b56:	2000      	movs	r0, #0
 8007b58:	f895 131d 	ldrb.w	r1, [r5, #797]	; 0x31d
 8007b5c:	b981      	cbnz	r1, 8007b80 <USBH_Get_CfgDesc+0x1c0>
 8007b5e:	f01c 0f01 	tst.w	ip, #1
 8007b62:	d003      	beq.n	8007b6c <USBH_Get_CfgDesc+0x1ac>
 8007b64:	3e01      	subs	r6, #1
 8007b66:	2e0f      	cmp	r6, #15
 8007b68:	bf88      	it	hi
 8007b6a:	2003      	movhi	r0, #3
 8007b6c:	3701      	adds	r7, #1
 8007b6e:	b2ff      	uxtb	r7, r7
 8007b70:	e7a3      	b.n	8007aba <USBH_Get_CfgDesc+0xfa>
 8007b72:	2907      	cmp	r1, #7
 8007b74:	d0bf      	beq.n	8007af6 <USBH_Get_CfgDesc+0x136>
 8007b76:	f04f 0107 	mov.w	r1, #7
 8007b7a:	e7bb      	b.n	8007af4 <USBH_Get_CfgDesc+0x134>
 8007b7c:	2003      	movs	r0, #3
 8007b7e:	e7eb      	b.n	8007b58 <USBH_Get_CfgDesc+0x198>
 8007b80:	f00c 0c03 	and.w	ip, ip, #3
 8007b84:	f1bc 0f01 	cmp.w	ip, #1
 8007b88:	d0ec      	beq.n	8007b64 <USBH_Get_CfgDesc+0x1a4>
 8007b8a:	f1bc 0f03 	cmp.w	ip, #3
 8007b8e:	d1ed      	bne.n	8007b6c <USBH_Get_CfgDesc+0x1ac>
 8007b90:	2e00      	cmp	r6, #0
 8007b92:	bf08      	it	eq
 8007b94:	2003      	moveq	r0, #3
 8007b96:	e7e9      	b.n	8007b6c <USBH_Get_CfgDesc+0x1ac>
 8007b98:	2000      	movs	r0, #0
 8007b9a:	e794      	b.n	8007ac6 <USBH_Get_CfgDesc+0x106>
 8007b9c:	f10e 0e01 	add.w	lr, lr, #1
 8007ba0:	331a      	adds	r3, #26
 8007ba2:	e74d      	b.n	8007a40 <USBH_Get_CfgDesc+0x80>

08007ba4 <USBH_Get_StringDesc>:
 8007ba4:	b5f7      	push	{r0, r1, r2, r4, r5, r6, r7, lr}
 8007ba6:	f500 768e 	add.w	r6, r0, #284	; 0x11c
 8007baa:	4615      	mov	r5, r2
 8007bac:	461f      	mov	r7, r3
 8007bae:	9300      	str	r3, [sp, #0]
 8007bb0:	f441 7240 	orr.w	r2, r1, #768	; 0x300
 8007bb4:	4633      	mov	r3, r6
 8007bb6:	2100      	movs	r1, #0
 8007bb8:	4604      	mov	r4, r0
 8007bba:	f7ff fe88 	bl	80078ce <USBH_GetDescriptor>
 8007bbe:	b978      	cbnz	r0, 8007be0 <USBH_Get_StringDesc+0x3c>
 8007bc0:	f894 311d 	ldrb.w	r3, [r4, #285]	; 0x11d
 8007bc4:	2b03      	cmp	r3, #3
 8007bc6:	d10b      	bne.n	8007be0 <USBH_Get_StringDesc+0x3c>
 8007bc8:	f894 411c 	ldrb.w	r4, [r4, #284]	; 0x11c
 8007bcc:	1ea1      	subs	r1, r4, #2
 8007bce:	42b9      	cmp	r1, r7
 8007bd0:	bf28      	it	cs
 8007bd2:	4639      	movcs	r1, r7
 8007bd4:	b289      	uxth	r1, r1
 8007bd6:	4604      	mov	r4, r0
 8007bd8:	42a1      	cmp	r1, r4
 8007bda:	d803      	bhi.n	8007be4 <USBH_Get_StringDesc+0x40>
 8007bdc:	2300      	movs	r3, #0
 8007bde:	702b      	strb	r3, [r5, #0]
 8007be0:	b003      	add	sp, #12
 8007be2:	bdf0      	pop	{r4, r5, r6, r7, pc}
 8007be4:	1933      	adds	r3, r6, r4
 8007be6:	3402      	adds	r4, #2
 8007be8:	789b      	ldrb	r3, [r3, #2]
 8007bea:	f805 3b01 	strb.w	r3, [r5], #1
 8007bee:	b2a4      	uxth	r4, r4
 8007bf0:	e7f2      	b.n	8007bd8 <USBH_Get_StringDesc+0x34>

08007bf2 <USBH_SetAddress>:
 8007bf2:	7883      	ldrb	r3, [r0, #2]
 8007bf4:	2b01      	cmp	r3, #1
 8007bf6:	d105      	bne.n	8007c04 <USBH_SetAddress+0x12>
 8007bf8:	f44f 63a0 	mov.w	r3, #1280	; 0x500
 8007bfc:	8203      	strh	r3, [r0, #16]
 8007bfe:	2300      	movs	r3, #0
 8007c00:	8241      	strh	r1, [r0, #18]
 8007c02:	6143      	str	r3, [r0, #20]
 8007c04:	2200      	movs	r2, #0
 8007c06:	4611      	mov	r1, r2
 8007c08:	f7ff bda6 	b.w	8007758 <USBH_CtlReq>

08007c0c <USBH_SetCfg>:
 8007c0c:	7883      	ldrb	r3, [r0, #2]
 8007c0e:	2b01      	cmp	r3, #1
 8007c10:	d105      	bne.n	8007c1e <USBH_SetCfg+0x12>
 8007c12:	f44f 6310 	mov.w	r3, #2304	; 0x900
 8007c16:	8203      	strh	r3, [r0, #16]
 8007c18:	2300      	movs	r3, #0
 8007c1a:	8241      	strh	r1, [r0, #18]
 8007c1c:	6143      	str	r3, [r0, #20]
 8007c1e:	2200      	movs	r2, #0
 8007c20:	4611      	mov	r1, r2
 8007c22:	f7ff bd99 	b.w	8007758 <USBH_CtlReq>

08007c26 <USBH_SetFeature>:
 8007c26:	7883      	ldrb	r3, [r0, #2]
 8007c28:	2b01      	cmp	r3, #1
 8007c2a:	d105      	bne.n	8007c38 <USBH_SetFeature+0x12>
 8007c2c:	f44f 7340 	mov.w	r3, #768	; 0x300
 8007c30:	8203      	strh	r3, [r0, #16]
 8007c32:	2300      	movs	r3, #0
 8007c34:	8241      	strh	r1, [r0, #18]
 8007c36:	6143      	str	r3, [r0, #20]
 8007c38:	2200      	movs	r2, #0
 8007c3a:	4611      	mov	r1, r2
 8007c3c:	f7ff bd8c 	b.w	8007758 <USBH_CtlReq>

08007c40 <USBH_ClrFeature>:
 8007c40:	7883      	ldrb	r3, [r0, #2]
 8007c42:	2b01      	cmp	r3, #1
 8007c44:	d105      	bne.n	8007c52 <USBH_ClrFeature+0x12>
 8007c46:	f44f 7381 	mov.w	r3, #258	; 0x102
 8007c4a:	6103      	str	r3, [r0, #16]
 8007c4c:	2300      	movs	r3, #0
 8007c4e:	8281      	strh	r1, [r0, #20]
 8007c50:	82c3      	strh	r3, [r0, #22]
 8007c52:	2200      	movs	r2, #0
 8007c54:	4611      	mov	r1, r2
 8007c56:	f7ff bd7f 	b.w	8007758 <USBH_CtlReq>

08007c5a <USBH_CtlSendSetup>:
 8007c5a:	b51f      	push	{r0, r1, r2, r3, r4, lr}
 8007c5c:	2400      	movs	r4, #0
 8007c5e:	460b      	mov	r3, r1
 8007c60:	4611      	mov	r1, r2
 8007c62:	2208      	movs	r2, #8
 8007c64:	e9cd 2402 	strd	r2, r4, [sp, #8]
 8007c68:	e9cd 4300 	strd	r4, r3, [sp]
 8007c6c:	4622      	mov	r2, r4
 8007c6e:	4623      	mov	r3, r4
 8007c70:	f000 f9c3 	bl	8007ffa <USBH_LL_SubmitURB>
 8007c74:	4620      	mov	r0, r4
 8007c76:	b004      	add	sp, #16
 8007c78:	bd10      	pop	{r4, pc}

08007c7a <USBH_CtlSendData>:
 8007c7a:	b530      	push	{r4, r5, lr}
 8007c7c:	b085      	sub	sp, #20
 8007c7e:	f890 531d 	ldrb.w	r5, [r0, #797]	; 0x31d
 8007c82:	460c      	mov	r4, r1
 8007c84:	2d00      	cmp	r5, #0
 8007c86:	4619      	mov	r1, r3
 8007c88:	f89d 3020 	ldrb.w	r3, [sp, #32]
 8007c8c:	9401      	str	r4, [sp, #4]
 8007c8e:	bf18      	it	ne
 8007c90:	2300      	movne	r3, #0
 8007c92:	e9cd 2302 	strd	r2, r3, [sp, #8]
 8007c96:	2301      	movs	r3, #1
 8007c98:	9300      	str	r3, [sp, #0]
 8007c9a:	2300      	movs	r3, #0
 8007c9c:	461a      	mov	r2, r3
 8007c9e:	f000 f9ac 	bl	8007ffa <USBH_LL_SubmitURB>
 8007ca2:	2000      	movs	r0, #0
 8007ca4:	b005      	add	sp, #20
 8007ca6:	bd30      	pop	{r4, r5, pc}

08007ca8 <USBH_CtlReceiveData>:
 8007ca8:	b530      	push	{r4, r5, lr}
 8007caa:	2400      	movs	r4, #0
 8007cac:	b085      	sub	sp, #20
 8007cae:	e9cd 2402 	strd	r2, r4, [sp, #8]
 8007cb2:	460d      	mov	r5, r1
 8007cb4:	2201      	movs	r2, #1
 8007cb6:	4619      	mov	r1, r3
 8007cb8:	9501      	str	r5, [sp, #4]
 8007cba:	9200      	str	r2, [sp, #0]
 8007cbc:	4623      	mov	r3, r4
 8007cbe:	f000 f99c 	bl	8007ffa <USBH_LL_SubmitURB>
 8007cc2:	4620      	mov	r0, r4
 8007cc4:	b005      	add	sp, #20
 8007cc6:	bd30      	pop	{r4, r5, pc}

08007cc8 <USBH_BulkSendData>:
 8007cc8:	b530      	push	{r4, r5, lr}
 8007cca:	b085      	sub	sp, #20
 8007ccc:	f890 531d 	ldrb.w	r5, [r0, #797]	; 0x31d
 8007cd0:	460c      	mov	r4, r1
 8007cd2:	2d00      	cmp	r5, #0
 8007cd4:	4619      	mov	r1, r3
 8007cd6:	f89d 3020 	ldrb.w	r3, [sp, #32]
 8007cda:	9401      	str	r4, [sp, #4]
 8007cdc:	bf18      	it	ne
 8007cde:	2300      	movne	r3, #0
 8007ce0:	e9cd 2302 	strd	r2, r3, [sp, #8]
 8007ce4:	2301      	movs	r3, #1
 8007ce6:	9300      	str	r3, [sp, #0]
 8007ce8:	2200      	movs	r2, #0
 8007cea:	2302      	movs	r3, #2
 8007cec:	f000 f985 	bl	8007ffa <USBH_LL_SubmitURB>
 8007cf0:	2000      	movs	r0, #0
 8007cf2:	b005      	add	sp, #20
 8007cf4:	bd30      	pop	{r4, r5, pc}

08007cf6 <USBH_BulkReceiveData>:
 8007cf6:	b530      	push	{r4, r5, lr}
 8007cf8:	2400      	movs	r4, #0
 8007cfa:	b085      	sub	sp, #20
 8007cfc:	e9cd 2402 	strd	r2, r4, [sp, #8]
 8007d00:	460d      	mov	r5, r1
 8007d02:	2201      	movs	r2, #1
 8007d04:	4619      	mov	r1, r3
 8007d06:	9501      	str	r5, [sp, #4]
 8007d08:	9200      	str	r2, [sp, #0]
 8007d0a:	2302      	movs	r3, #2
 8007d0c:	f000 f975 	bl	8007ffa <USBH_LL_SubmitURB>
 8007d10:	4620      	mov	r0, r4
 8007d12:	b005      	add	sp, #20
 8007d14:	bd30      	pop	{r4, r5, pc}

08007d16 <USBH_OpenPipe>:
 8007d16:	b51f      	push	{r0, r1, r2, r3, r4, lr}
 8007d18:	f8bd 4020 	ldrh.w	r4, [sp, #32]
 8007d1c:	9402      	str	r4, [sp, #8]
 8007d1e:	f89d 401c 	ldrb.w	r4, [sp, #28]
 8007d22:	9401      	str	r4, [sp, #4]
 8007d24:	f89d 4018 	ldrb.w	r4, [sp, #24]
 8007d28:	9400      	str	r4, [sp, #0]
 8007d2a:	f000 f94a 	bl	8007fc2 <USBH_LL_OpenPipe>
 8007d2e:	2000      	movs	r0, #0
 8007d30:	b004      	add	sp, #16
 8007d32:	bd10      	pop	{r4, pc}

08007d34 <USBH_ClosePipe>:
 8007d34:	b508      	push	{r3, lr}
 8007d36:	f000 f957 	bl	8007fe8 <USBH_LL_ClosePipe>
 8007d3a:	2000      	movs	r0, #0
 8007d3c:	bd08      	pop	{r3, pc}

08007d3e <USBH_AllocPipe>:
 8007d3e:	b530      	push	{r4, r5, lr}
 8007d40:	2300      	movs	r3, #0
 8007d42:	f200 4454 	addw	r4, r0, #1108	; 0x454
 8007d46:	f854 5b04 	ldr.w	r5, [r4], #4
 8007d4a:	042d      	lsls	r5, r5, #16
 8007d4c:	b2da      	uxtb	r2, r3
 8007d4e:	d408      	bmi.n	8007d62 <USBH_AllocPipe+0x24>
 8007d50:	eb00 0083 	add.w	r0, r0, r3, lsl #2
 8007d54:	f441 4100 	orr.w	r1, r1, #32768	; 0x8000
 8007d58:	b292      	uxth	r2, r2
 8007d5a:	f8c0 1454 	str.w	r1, [r0, #1108]	; 0x454
 8007d5e:	b2d0      	uxtb	r0, r2
 8007d60:	bd30      	pop	{r4, r5, pc}
 8007d62:	3301      	adds	r3, #1
 8007d64:	2b10      	cmp	r3, #16
 8007d66:	d1ee      	bne.n	8007d46 <USBH_AllocPipe+0x8>
 8007d68:	f64f 72ff 	movw	r2, #65535	; 0xffff
 8007d6c:	e7f7      	b.n	8007d5e <USBH_AllocPipe+0x20>

08007d6e <USBH_FreePipe>:
 8007d6e:	290f      	cmp	r1, #15
 8007d70:	bf98      	it	ls
 8007d72:	eb00 0181 	addls.w	r1, r0, r1, lsl #2
 8007d76:	f04f 0000 	mov.w	r0, #0
 8007d7a:	bf9e      	ittt	ls
 8007d7c:	f8d1 3454 	ldrls.w	r3, [r1, #1108]	; 0x454
 8007d80:	f3c3 030e 	ubfxls	r3, r3, #0, #15
 8007d84:	f8c1 3454 	strls.w	r3, [r1, #1108]	; 0x454
 8007d88:	4770      	bx	lr
	...

08007d8c <USBH_UserProcess>:
 8007d8c:	2904      	cmp	r1, #4
 8007d8e:	d00a      	beq.n	8007da6 <USBH_UserProcess+0x1a>
 8007d90:	2905      	cmp	r1, #5
 8007d92:	d004      	beq.n	8007d9e <USBH_UserProcess+0x12>
 8007d94:	2902      	cmp	r1, #2
 8007d96:	d105      	bne.n	8007da4 <USBH_UserProcess+0x18>
 8007d98:	4b04      	ldr	r3, [pc, #16]	; (8007dac <USBH_UserProcess+0x20>)
 8007d9a:	7019      	strb	r1, [r3, #0]
 8007d9c:	4770      	bx	lr
 8007d9e:	4b03      	ldr	r3, [pc, #12]	; (8007dac <USBH_UserProcess+0x20>)
 8007da0:	2203      	movs	r2, #3
 8007da2:	701a      	strb	r2, [r3, #0]
 8007da4:	4770      	bx	lr
 8007da6:	4b01      	ldr	r3, [pc, #4]	; (8007dac <USBH_UserProcess+0x20>)
 8007da8:	2201      	movs	r2, #1
 8007daa:	e7fa      	b.n	8007da2 <USBH_UserProcess+0x16>
 8007dac:	200059c8 	.word	0x200059c8

08007db0 <MX_USB_HOST_Init>:
 8007db0:	b508      	push	{r3, lr}
 8007db2:	490c      	ldr	r1, [pc, #48]	; (8007de4 <MX_USB_HOST_Init+0x34>)
 8007db4:	480c      	ldr	r0, [pc, #48]	; (8007de8 <MX_USB_HOST_Init+0x38>)
 8007db6:	2201      	movs	r2, #1
 8007db8:	f7ff fa49 	bl	800724e <USBH_Init>
 8007dbc:	b108      	cbz	r0, 8007dc2 <MX_USB_HOST_Init+0x12>
 8007dbe:	f7f9 fac5 	bl	800134c <Error_Handler>
 8007dc2:	490a      	ldr	r1, [pc, #40]	; (8007dec <MX_USB_HOST_Init+0x3c>)
 8007dc4:	4808      	ldr	r0, [pc, #32]	; (8007de8 <MX_USB_HOST_Init+0x38>)
 8007dc6:	f7ff fa61 	bl	800728c <USBH_RegisterClass>
 8007dca:	b108      	cbz	r0, 8007dd0 <MX_USB_HOST_Init+0x20>
 8007dcc:	f7f9 fabe 	bl	800134c <Error_Handler>
 8007dd0:	4805      	ldr	r0, [pc, #20]	; (8007de8 <MX_USB_HOST_Init+0x38>)
 8007dd2:	f7ff fa8e 	bl	80072f2 <USBH_Start>
 8007dd6:	b118      	cbz	r0, 8007de0 <MX_USB_HOST_Init+0x30>
 8007dd8:	e8bd 4008 	ldmia.w	sp!, {r3, lr}
 8007ddc:	f7f9 bab6 	b.w	800134c <Error_Handler>
 8007de0:	bd08      	pop	{r3, pc}
 8007de2:	bf00      	nop
 8007de4:	08007d8d 	.word	0x08007d8d
 8007de8:	20006b5c 	.word	0x20006b5c
 8007dec:	2000005c 	.word	0x2000005c

08007df0 <MX_USB_HOST_Process>:
 8007df0:	4801      	ldr	r0, [pc, #4]	; (8007df8 <MX_USB_HOST_Process+0x8>)
 8007df2:	f7ff ba88 	b.w	8007306 <USBH_Process>
 8007df6:	bf00      	nop
 8007df8:	20006b5c 	.word	0x20006b5c

08007dfc <HAL_HCD_MspInit>:
 8007dfc:	b5f0      	push	{r4, r5, r6, r7, lr}
 8007dfe:	4604      	mov	r4, r0
 8007e00:	b089      	sub	sp, #36	; 0x24
 8007e02:	2214      	movs	r2, #20
 8007e04:	2100      	movs	r1, #0
 8007e06:	a803      	add	r0, sp, #12
 8007e08:	f002 f82a 	bl	8009e60 <memset>
 8007e0c:	6823      	ldr	r3, [r4, #0]
 8007e0e:	f1b3 4fa0 	cmp.w	r3, #1342177280	; 0x50000000
 8007e12:	d141      	bne.n	8007e98 <HAL_HCD_MspInit+0x9c>
 8007e14:	4c21      	ldr	r4, [pc, #132]	; (8007e9c <HAL_HCD_MspInit+0xa0>)
 8007e16:	4822      	ldr	r0, [pc, #136]	; (8007ea0 <HAL_HCD_MspInit+0xa4>)
 8007e18:	2500      	movs	r5, #0
 8007e1a:	9501      	str	r5, [sp, #4]
 8007e1c:	6b23      	ldr	r3, [r4, #48]	; 0x30
 8007e1e:	f043 0301 	orr.w	r3, r3, #1
 8007e22:	6323      	str	r3, [r4, #48]	; 0x30
 8007e24:	6b23      	ldr	r3, [r4, #48]	; 0x30
 8007e26:	f003 0301 	and.w	r3, r3, #1
 8007e2a:	9301      	str	r3, [sp, #4]
 8007e2c:	9b01      	ldr	r3, [sp, #4]
 8007e2e:	a903      	add	r1, sp, #12
 8007e30:	f44f 7300 	mov.w	r3, #512	; 0x200
 8007e34:	9303      	str	r3, [sp, #12]
 8007e36:	2702      	movs	r7, #2
 8007e38:	f7fb fd2e 	bl	8003898 <HAL_GPIO_Init>
 8007e3c:	f44f 6380 	mov.w	r3, #1024	; 0x400
 8007e40:	e9cd 3703 	strd	r3, r7, [sp, #12]
 8007e44:	4816      	ldr	r0, [pc, #88]	; (8007ea0 <HAL_HCD_MspInit+0xa4>)
 8007e46:	9505      	str	r5, [sp, #20]
 8007e48:	2303      	movs	r3, #3
 8007e4a:	260a      	movs	r6, #10
 8007e4c:	a903      	add	r1, sp, #12
 8007e4e:	e9cd 3606 	strd	r3, r6, [sp, #24]
 8007e52:	f7fb fd21 	bl	8003898 <HAL_GPIO_Init>
 8007e56:	f44f 53c0 	mov.w	r3, #6144	; 0x1800
 8007e5a:	4811      	ldr	r0, [pc, #68]	; (8007ea0 <HAL_HCD_MspInit+0xa4>)
 8007e5c:	9607      	str	r6, [sp, #28]
 8007e5e:	a903      	add	r1, sp, #12
 8007e60:	e9cd 3703 	strd	r3, r7, [sp, #12]
 8007e64:	e9cd 5505 	strd	r5, r5, [sp, #20]
 8007e68:	f7fb fd16 	bl	8003898 <HAL_GPIO_Init>
 8007e6c:	6b63      	ldr	r3, [r4, #52]	; 0x34
 8007e6e:	f043 0380 	orr.w	r3, r3, #128	; 0x80
 8007e72:	6363      	str	r3, [r4, #52]	; 0x34
 8007e74:	9502      	str	r5, [sp, #8]
 8007e76:	6c63      	ldr	r3, [r4, #68]	; 0x44
 8007e78:	f443 4380 	orr.w	r3, r3, #16384	; 0x4000
 8007e7c:	6463      	str	r3, [r4, #68]	; 0x44
 8007e7e:	6c63      	ldr	r3, [r4, #68]	; 0x44
 8007e80:	f403 4380 	and.w	r3, r3, #16384	; 0x4000
 8007e84:	9302      	str	r3, [sp, #8]
 8007e86:	2043      	movs	r0, #67	; 0x43
 8007e88:	462a      	mov	r2, r5
 8007e8a:	4629      	mov	r1, r5
 8007e8c:	9b02      	ldr	r3, [sp, #8]
 8007e8e:	f7fb fab1 	bl	80033f4 <HAL_NVIC_SetPriority>
 8007e92:	2043      	movs	r0, #67	; 0x43
 8007e94:	f7fb fae0 	bl	8003458 <HAL_NVIC_EnableIRQ>
 8007e98:	b009      	add	sp, #36	; 0x24
 8007e9a:	bdf0      	pop	{r4, r5, r6, r7, pc}
 8007e9c:	40023800 	.word	0x40023800
 8007ea0:	40020000 	.word	0x40020000

08007ea4 <HAL_HCD_SOF_Callback>:
 8007ea4:	f8d0 0300 	ldr.w	r0, [r0, #768]	; 0x300
 8007ea8:	f7ff bc20 	b.w	80076ec <USBH_LL_IncTimer>

08007eac <HAL_HCD_Connect_Callback>:
 8007eac:	f8d0 0300 	ldr.w	r0, [r0, #768]	; 0x300
 8007eb0:	f7ff bc32 	b.w	8007718 <USBH_LL_Connect>

08007eb4 <HAL_HCD_Disconnect_Callback>:
 8007eb4:	f8d0 0300 	ldr.w	r0, [r0, #768]	; 0x300
 8007eb8:	f7ff bc38 	b.w	800772c <USBH_LL_Disconnect>

08007ebc <HAL_HCD_HC_NotifyURBChange_Callback>:
 8007ebc:	4770      	bx	lr

08007ebe <HAL_HCD_PortEnabled_Callback>:
 8007ebe:	f8d0 0300 	ldr.w	r0, [r0, #768]	; 0x300
 8007ec2:	f7ff bc21 	b.w	8007708 <USBH_LL_PortEnabled>

08007ec6 <HAL_HCD_PortDisabled_Callback>:
 8007ec6:	f8d0 0300 	ldr.w	r0, [r0, #768]	; 0x300
 8007eca:	f7ff bc21 	b.w	8007710 <USBH_LL_PortDisabled>
	...

08007ed0 <USBH_LL_Init>:
 8007ed0:	b510      	push	{r4, lr}
 8007ed2:	f890 349c 	ldrb.w	r3, [r0, #1180]	; 0x49c
 8007ed6:	2b01      	cmp	r3, #1
 8007ed8:	4604      	mov	r4, r0
 8007eda:	d11b      	bne.n	8007f14 <USBH_LL_Init+0x44>
 8007edc:	480e      	ldr	r0, [pc, #56]	; (8007f18 <USBH_LL_Init+0x48>)
 8007ede:	f8c4 04a0 	str.w	r0, [r4, #1184]	; 0x4a0
 8007ee2:	f04f 42a0 	mov.w	r2, #1342177280	; 0x50000000
 8007ee6:	6002      	str	r2, [r0, #0]
 8007ee8:	2208      	movs	r2, #8
 8007eea:	e9c0 2302 	strd	r2, r3, [r0, #8]
 8007eee:	2300      	movs	r3, #0
 8007ef0:	2202      	movs	r2, #2
 8007ef2:	e9c0 2306 	strd	r2, r3, [r0, #24]
 8007ef6:	f8c0 4300 	str.w	r4, [r0, #768]	; 0x300
 8007efa:	6103      	str	r3, [r0, #16]
 8007efc:	f7fb fe9c 	bl	8003c38 <HAL_HCD_Init>
 8007f00:	b108      	cbz	r0, 8007f06 <USBH_LL_Init+0x36>
 8007f02:	f7f9 fa23 	bl	800134c <Error_Handler>
 8007f06:	4804      	ldr	r0, [pc, #16]	; (8007f18 <USBH_LL_Init+0x48>)
 8007f08:	f7fc fa6d 	bl	80043e6 <HAL_HCD_GetCurrentFrame>
 8007f0c:	4601      	mov	r1, r0
 8007f0e:	4620      	mov	r0, r4
 8007f10:	f7ff fbe9 	bl	80076e6 <USBH_LL_SetTimer>
 8007f14:	2000      	movs	r0, #0
 8007f16:	bd10      	pop	{r4, pc}
 8007f18:	20007004 	.word	0x20007004

08007f1c <USBH_LL_GetSpeed>:
 8007f1c:	b508      	push	{r3, lr}
 8007f1e:	f8d0 04a0 	ldr.w	r0, [r0, #1184]	; 0x4a0
 8007f22:	f7fc fa63 	bl	80043ec <HAL_HCD_GetCurrentSpeed>
 8007f26:	2803      	cmp	r0, #3
 8007f28:	bf28      	it	cs
 8007f2a:	2001      	movcs	r0, #1
 8007f2c:	b2c0      	uxtb	r0, r0
 8007f2e:	bd08      	pop	{r3, pc}

08007f30 <USBH_LL_GetLastXferSize>:
 8007f30:	f8d0 04a0 	ldr.w	r0, [r0, #1184]	; 0x4a0
 8007f34:	f7fc ba52 	b.w	80043dc <HAL_HCD_HC_GetXferCount>

08007f38 <USBH_LL_GetURBState>:
 8007f38:	f8d0 04a0 	ldr.w	r0, [r0, #1184]	; 0x4a0
 8007f3c:	f7fc ba48 	b.w	80043d0 <HAL_HCD_HC_GetURBState>

08007f40 <USBH_LL_DriverVBUS>:
 8007f40:	b508      	push	{r3, lr}
 8007f42:	f890 349c 	ldrb.w	r3, [r0, #1180]	; 0x49c
 8007f46:	2b01      	cmp	r3, #1
 8007f48:	d102      	bne.n	8007f50 <USBH_LL_DriverVBUS+0x10>
 8007f4a:	4608      	mov	r0, r1
 8007f4c:	f000 f86a 	bl	8008024 <MX_DriverVbusFS>
 8007f50:	20c8      	movs	r0, #200	; 0xc8
 8007f52:	f7fb fa29 	bl	80033a8 <HAL_Delay>
 8007f56:	2000      	movs	r0, #0
 8007f58:	bd08      	pop	{r3, pc}

08007f5a <USBH_LL_SetToggle>:
 8007f5a:	f8d0 34a0 	ldr.w	r3, [r0, #1184]	; 0x4a0
 8007f5e:	202c      	movs	r0, #44	; 0x2c
 8007f60:	fb00 3101 	mla	r1, r0, r1, r3
 8007f64:	f891 303b 	ldrb.w	r3, [r1, #59]	; 0x3b
 8007f68:	b11b      	cbz	r3, 8007f72 <USBH_LL_SetToggle+0x18>
 8007f6a:	f881 2054 	strb.w	r2, [r1, #84]	; 0x54
 8007f6e:	2000      	movs	r0, #0
 8007f70:	4770      	bx	lr
 8007f72:	f881 2055 	strb.w	r2, [r1, #85]	; 0x55
 8007f76:	e7fa      	b.n	8007f6e <USBH_LL_SetToggle+0x14>

08007f78 <USBH_Delay>:
 8007f78:	f7fb ba16 	b.w	80033a8 <HAL_Delay>

08007f7c <USBH_Get_USB_Status>:
 8007f7c:	2803      	cmp	r0, #3
 8007f7e:	bf9a      	itte	ls
 8007f80:	4b01      	ldrls	r3, [pc, #4]	; (8007f88 <USBH_Get_USB_Status+0xc>)
 8007f82:	5c18      	ldrbls	r0, [r3, r0]
 8007f84:	2002      	movhi	r0, #2
 8007f86:	4770      	bx	lr
 8007f88:	0800ca31 	.word	0x0800ca31

08007f8c <USBH_LL_Start>:
 8007f8c:	b508      	push	{r3, lr}
 8007f8e:	f8d0 04a0 	ldr.w	r0, [r0, #1184]	; 0x4a0
 8007f92:	f7fc f9f3 	bl	800437c <HAL_HCD_Start>
 8007f96:	e8bd 4008 	ldmia.w	sp!, {r3, lr}
 8007f9a:	f7ff bfef 	b.w	8007f7c <USBH_Get_USB_Status>

08007f9e <USBH_LL_Stop>:
 8007f9e:	b508      	push	{r3, lr}
 8007fa0:	f8d0 04a0 	ldr.w	r0, [r0, #1184]	; 0x4a0
 8007fa4:	f7fc f9ff 	bl	80043a6 <HAL_HCD_Stop>
 8007fa8:	e8bd 4008 	ldmia.w	sp!, {r3, lr}
 8007fac:	f7ff bfe6 	b.w	8007f7c <USBH_Get_USB_Status>

08007fb0 <USBH_LL_ResetPort>:
 8007fb0:	b508      	push	{r3, lr}
 8007fb2:	f8d0 04a0 	ldr.w	r0, [r0, #1184]	; 0x4a0
 8007fb6:	f7fc fa08 	bl	80043ca <HAL_HCD_ResetPort>
 8007fba:	e8bd 4008 	ldmia.w	sp!, {r3, lr}
 8007fbe:	f7ff bfdd 	b.w	8007f7c <USBH_Get_USB_Status>

08007fc2 <USBH_LL_OpenPipe>:
 8007fc2:	b57f      	push	{r0, r1, r2, r3, r4, r5, r6, lr}
 8007fc4:	f89d 5024 	ldrb.w	r5, [sp, #36]	; 0x24
 8007fc8:	f8bd 6028 	ldrh.w	r6, [sp, #40]	; 0x28
 8007fcc:	f89d 4020 	ldrb.w	r4, [sp, #32]
 8007fd0:	9400      	str	r4, [sp, #0]
 8007fd2:	e9cd 5601 	strd	r5, r6, [sp, #4]
 8007fd6:	f8d0 04a0 	ldr.w	r0, [r0, #1184]	; 0x4a0
 8007fda:	f7fb fde5 	bl	8003ba8 <HAL_HCD_HC_Init>
 8007fde:	b004      	add	sp, #16
 8007fe0:	e8bd 4070 	ldmia.w	sp!, {r4, r5, r6, lr}
 8007fe4:	f7ff bfca 	b.w	8007f7c <USBH_Get_USB_Status>

08007fe8 <USBH_LL_ClosePipe>:
 8007fe8:	b508      	push	{r3, lr}
 8007fea:	f8d0 04a0 	ldr.w	r0, [r0, #1184]	; 0x4a0
 8007fee:	f7fb fe11 	bl	8003c14 <HAL_HCD_HC_Halt>
 8007ff2:	e8bd 4008 	ldmia.w	sp!, {r3, lr}
 8007ff6:	f7ff bfc1 	b.w	8007f7c <USBH_Get_USB_Status>

08007ffa <USBH_LL_SubmitURB>:
 8007ffa:	b57f      	push	{r0, r1, r2, r3, r4, r5, r6, lr}
 8007ffc:	f8bd 5028 	ldrh.w	r5, [sp, #40]	; 0x28
 8008000:	f89d 602c 	ldrb.w	r6, [sp, #44]	; 0x2c
 8008004:	f89d 4020 	ldrb.w	r4, [sp, #32]
 8008008:	e9cd 5602 	strd	r5, r6, [sp, #8]
 800800c:	9d09      	ldr	r5, [sp, #36]	; 0x24
 800800e:	e9cd 4500 	strd	r4, r5, [sp]
 8008012:	f8d0 04a0 	ldr.w	r0, [r0, #1184]	; 0x4a0
 8008016:	f7fb fe5b 	bl	8003cd0 <HAL_HCD_HC_SubmitRequest>
 800801a:	b004      	add	sp, #16
 800801c:	e8bd 4070 	ldmia.w	sp!, {r4, r5, r6, lr}
 8008020:	f7ff bfac 	b.w	8007f7c <USBH_Get_USB_Status>

08008024 <MX_DriverVbusFS>:
 8008024:	fab0 f280 	clz	r2, r0
 8008028:	0952      	lsrs	r2, r2, #5
 800802a:	4802      	ldr	r0, [pc, #8]	; (8008034 <MX_DriverVbusFS+0x10>)
 800802c:	2101      	movs	r1, #1
 800802e:	f7fb bda9 	b.w	8003b84 <HAL_GPIO_WritePin>
 8008032:	bf00      	nop
 8008034:	40020800 	.word	0x40020800

08008038 <sin>:
 8008038:	b51f      	push	{r0, r1, r2, r3, r4, lr}
 800803a:	ec53 2b10 	vmov	r2, r3, d0
 800803e:	4828      	ldr	r0, [pc, #160]	; (80080e0 <sin+0xa8>)
 8008040:	f023 4100 	bic.w	r1, r3, #2147483648	; 0x80000000
 8008044:	4281      	cmp	r1, r0
 8008046:	dc07      	bgt.n	8008058 <sin+0x20>
 8008048:	ed9f 1b23 	vldr	d1, [pc, #140]	; 80080d8 <sin+0xa0>
 800804c:	2000      	movs	r0, #0
 800804e:	b005      	add	sp, #20
 8008050:	f85d eb04 	ldr.w	lr, [sp], #4
 8008054:	f001 bcc0 	b.w	80099d8 <__kernel_sin>
 8008058:	4822      	ldr	r0, [pc, #136]	; (80080e4 <sin+0xac>)
 800805a:	4281      	cmp	r1, r0
 800805c:	dd09      	ble.n	8008072 <sin+0x3a>
 800805e:	ee10 0a10 	vmov	r0, s0
 8008062:	4619      	mov	r1, r3
 8008064:	f7f8 f910 	bl	8000288 <__aeabi_dsub>
 8008068:	ec41 0b10 	vmov	d0, r0, r1
 800806c:	b005      	add	sp, #20
 800806e:	f85d fb04 	ldr.w	pc, [sp], #4
 8008072:	4668      	mov	r0, sp
 8008074:	f000 fdd8 	bl	8008c28 <__ieee754_rem_pio2>
 8008078:	f000 0003 	and.w	r0, r0, #3
 800807c:	2801      	cmp	r0, #1
 800807e:	d00c      	beq.n	800809a <sin+0x62>
 8008080:	2802      	cmp	r0, #2
 8008082:	d011      	beq.n	80080a8 <sin+0x70>
 8008084:	b9f0      	cbnz	r0, 80080c4 <sin+0x8c>
 8008086:	ed9d 1b02 	vldr	d1, [sp, #8]
 800808a:	ed9d 0b00 	vldr	d0, [sp]
 800808e:	2001      	movs	r0, #1
 8008090:	f001 fca2 	bl	80099d8 <__kernel_sin>
 8008094:	ec51 0b10 	vmov	r0, r1, d0
 8008098:	e7e6      	b.n	8008068 <sin+0x30>
 800809a:	ed9d 1b02 	vldr	d1, [sp, #8]
 800809e:	ed9d 0b00 	vldr	d0, [sp]
 80080a2:	f001 f881 	bl	80091a8 <__kernel_cos>
 80080a6:	e7f5      	b.n	8008094 <sin+0x5c>
 80080a8:	ed9d 1b02 	vldr	d1, [sp, #8]
 80080ac:	ed9d 0b00 	vldr	d0, [sp]
 80080b0:	2001      	movs	r0, #1
 80080b2:	f001 fc91 	bl	80099d8 <__kernel_sin>
 80080b6:	ec53 2b10 	vmov	r2, r3, d0
 80080ba:	ee10 0a10 	vmov	r0, s0
 80080be:	f103 4100 	add.w	r1, r3, #2147483648	; 0x80000000
 80080c2:	e7d1      	b.n	8008068 <sin+0x30>
 80080c4:	ed9d 1b02 	vldr	d1, [sp, #8]
 80080c8:	ed9d 0b00 	vldr	d0, [sp]
 80080cc:	f001 f86c 	bl	80091a8 <__kernel_cos>
 80080d0:	e7f1      	b.n	80080b6 <sin+0x7e>
 80080d2:	bf00      	nop
 80080d4:	f3af 8000 	nop.w
	...
 80080e0:	3fe921fb 	.word	0x3fe921fb
 80080e4:	7fefffff 	.word	0x7fefffff

080080e8 <pow>:
 80080e8:	b5f8      	push	{r3, r4, r5, r6, r7, lr}
 80080ea:	ed2d 8b02 	vpush	{d8}
 80080ee:	eeb0 8a40 	vmov.f32	s16, s0
 80080f2:	eef0 8a60 	vmov.f32	s17, s1
 80080f6:	ec55 4b11 	vmov	r4, r5, d1
 80080fa:	f000 f865 	bl	80081c8 <__ieee754_pow>
 80080fe:	4622      	mov	r2, r4
 8008100:	462b      	mov	r3, r5
 8008102:	4620      	mov	r0, r4
 8008104:	4629      	mov	r1, r5
 8008106:	ec57 6b10 	vmov	r6, r7, d0
 800810a:	f7f8 fd0f 	bl	8000b2c <__aeabi_dcmpun>
 800810e:	2800      	cmp	r0, #0
 8008110:	d13b      	bne.n	800818a <pow+0xa2>
 8008112:	ec51 0b18 	vmov	r0, r1, d8
 8008116:	2200      	movs	r2, #0
 8008118:	2300      	movs	r3, #0
 800811a:	f7f8 fcd5 	bl	8000ac8 <__aeabi_dcmpeq>
 800811e:	b1b8      	cbz	r0, 8008150 <pow+0x68>
 8008120:	2200      	movs	r2, #0
 8008122:	2300      	movs	r3, #0
 8008124:	4620      	mov	r0, r4
 8008126:	4629      	mov	r1, r5
 8008128:	f7f8 fcce 	bl	8000ac8 <__aeabi_dcmpeq>
 800812c:	2800      	cmp	r0, #0
 800812e:	d146      	bne.n	80081be <pow+0xd6>
 8008130:	ec45 4b10 	vmov	d0, r4, r5
 8008134:	f001 fd47 	bl	8009bc6 <finite>
 8008138:	b338      	cbz	r0, 800818a <pow+0xa2>
 800813a:	2200      	movs	r2, #0
 800813c:	2300      	movs	r3, #0
 800813e:	4620      	mov	r0, r4
 8008140:	4629      	mov	r1, r5
 8008142:	f7f8 fccb 	bl	8000adc <__aeabi_dcmplt>
 8008146:	b300      	cbz	r0, 800818a <pow+0xa2>
 8008148:	f001 fe50 	bl	8009dec <__errno>
 800814c:	2322      	movs	r3, #34	; 0x22
 800814e:	e01b      	b.n	8008188 <pow+0xa0>
 8008150:	ec47 6b10 	vmov	d0, r6, r7
 8008154:	f001 fd37 	bl	8009bc6 <finite>
 8008158:	b9e0      	cbnz	r0, 8008194 <pow+0xac>
 800815a:	eeb0 0a48 	vmov.f32	s0, s16
 800815e:	eef0 0a68 	vmov.f32	s1, s17
 8008162:	f001 fd30 	bl	8009bc6 <finite>
 8008166:	b1a8      	cbz	r0, 8008194 <pow+0xac>
 8008168:	ec45 4b10 	vmov	d0, r4, r5
 800816c:	f001 fd2b 	bl	8009bc6 <finite>
 8008170:	b180      	cbz	r0, 8008194 <pow+0xac>
 8008172:	4632      	mov	r2, r6
 8008174:	463b      	mov	r3, r7
 8008176:	4630      	mov	r0, r6
 8008178:	4639      	mov	r1, r7
 800817a:	f7f8 fcd7 	bl	8000b2c <__aeabi_dcmpun>
 800817e:	2800      	cmp	r0, #0
 8008180:	d0e2      	beq.n	8008148 <pow+0x60>
 8008182:	f001 fe33 	bl	8009dec <__errno>
 8008186:	2321      	movs	r3, #33	; 0x21
 8008188:	6003      	str	r3, [r0, #0]
 800818a:	ecbd 8b02 	vpop	{d8}
 800818e:	ec47 6b10 	vmov	d0, r6, r7
 8008192:	bdf8      	pop	{r3, r4, r5, r6, r7, pc}
 8008194:	2200      	movs	r2, #0
 8008196:	2300      	movs	r3, #0
 8008198:	4630      	mov	r0, r6
 800819a:	4639      	mov	r1, r7
 800819c:	f7f8 fc94 	bl	8000ac8 <__aeabi_dcmpeq>
 80081a0:	2800      	cmp	r0, #0
 80081a2:	d0f2      	beq.n	800818a <pow+0xa2>
 80081a4:	eeb0 0a48 	vmov.f32	s0, s16
 80081a8:	eef0 0a68 	vmov.f32	s1, s17
 80081ac:	f001 fd0b 	bl	8009bc6 <finite>
 80081b0:	2800      	cmp	r0, #0
 80081b2:	d0ea      	beq.n	800818a <pow+0xa2>
 80081b4:	ec45 4b10 	vmov	d0, r4, r5
 80081b8:	f001 fd05 	bl	8009bc6 <finite>
 80081bc:	e7c3      	b.n	8008146 <pow+0x5e>
 80081be:	4f01      	ldr	r7, [pc, #4]	; (80081c4 <pow+0xdc>)
 80081c0:	2600      	movs	r6, #0
 80081c2:	e7e2      	b.n	800818a <pow+0xa2>
 80081c4:	3ff00000 	.word	0x3ff00000

080081c8 <__ieee754_pow>:
 80081c8:	e92d 4ff0 	stmdb	sp!, {r4, r5, r6, r7, r8, r9, sl, fp, lr}
 80081cc:	ed2d 8b06 	vpush	{d8-d10}
 80081d0:	b089      	sub	sp, #36	; 0x24
 80081d2:	ed8d 1b00 	vstr	d1, [sp]
 80081d6:	e9dd 2900 	ldrd	r2, r9, [sp]
 80081da:	f029 4800 	bic.w	r8, r9, #2147483648	; 0x80000000
 80081de:	ea58 0102 	orrs.w	r1, r8, r2
 80081e2:	ec57 6b10 	vmov	r6, r7, d0
 80081e6:	d115      	bne.n	8008214 <__ieee754_pow+0x4c>
 80081e8:	19b3      	adds	r3, r6, r6
 80081ea:	f487 2200 	eor.w	r2, r7, #524288	; 0x80000
 80081ee:	4152      	adcs	r2, r2
 80081f0:	4299      	cmp	r1, r3
 80081f2:	4b89      	ldr	r3, [pc, #548]	; (8008418 <__ieee754_pow+0x250>)
 80081f4:	4193      	sbcs	r3, r2
 80081f6:	f080 84d2 	bcs.w	8008b9e <__ieee754_pow+0x9d6>
 80081fa:	e9dd 2300 	ldrd	r2, r3, [sp]
 80081fe:	4630      	mov	r0, r6
 8008200:	4639      	mov	r1, r7
 8008202:	f7f8 f843 	bl	800028c <__adddf3>
 8008206:	ec41 0b10 	vmov	d0, r0, r1
 800820a:	b009      	add	sp, #36	; 0x24
 800820c:	ecbd 8b06 	vpop	{d8-d10}
 8008210:	e8bd 8ff0 	ldmia.w	sp!, {r4, r5, r6, r7, r8, r9, sl, fp, pc}
 8008214:	4b81      	ldr	r3, [pc, #516]	; (800841c <__ieee754_pow+0x254>)
 8008216:	f027 4400 	bic.w	r4, r7, #2147483648	; 0x80000000
 800821a:	429c      	cmp	r4, r3
 800821c:	ee10 aa10 	vmov	sl, s0
 8008220:	463d      	mov	r5, r7
 8008222:	dc06      	bgt.n	8008232 <__ieee754_pow+0x6a>
 8008224:	d101      	bne.n	800822a <__ieee754_pow+0x62>
 8008226:	2e00      	cmp	r6, #0
 8008228:	d1e7      	bne.n	80081fa <__ieee754_pow+0x32>
 800822a:	4598      	cmp	r8, r3
 800822c:	dc01      	bgt.n	8008232 <__ieee754_pow+0x6a>
 800822e:	d10f      	bne.n	8008250 <__ieee754_pow+0x88>
 8008230:	b172      	cbz	r2, 8008250 <__ieee754_pow+0x88>
 8008232:	f105 4540 	add.w	r5, r5, #3221225472	; 0xc0000000
 8008236:	f505 1580 	add.w	r5, r5, #1048576	; 0x100000
 800823a:	ea55 050a 	orrs.w	r5, r5, sl
 800823e:	d1dc      	bne.n	80081fa <__ieee754_pow+0x32>
 8008240:	e9dd 3200 	ldrd	r3, r2, [sp]
 8008244:	18db      	adds	r3, r3, r3
 8008246:	f482 2200 	eor.w	r2, r2, #524288	; 0x80000
 800824a:	4152      	adcs	r2, r2
 800824c:	429d      	cmp	r5, r3
 800824e:	e7d0      	b.n	80081f2 <__ieee754_pow+0x2a>
 8008250:	2d00      	cmp	r5, #0
 8008252:	da3b      	bge.n	80082cc <__ieee754_pow+0x104>
 8008254:	4b72      	ldr	r3, [pc, #456]	; (8008420 <__ieee754_pow+0x258>)
 8008256:	4598      	cmp	r8, r3
 8008258:	dc51      	bgt.n	80082fe <__ieee754_pow+0x136>
 800825a:	f1a3 7354 	sub.w	r3, r3, #55574528	; 0x3500000
 800825e:	4598      	cmp	r8, r3
 8008260:	f340 84ac 	ble.w	8008bbc <__ieee754_pow+0x9f4>
 8008264:	ea4f 5328 	mov.w	r3, r8, asr #20
 8008268:	f2a3 33ff 	subw	r3, r3, #1023	; 0x3ff
 800826c:	2b14      	cmp	r3, #20
 800826e:	dd0f      	ble.n	8008290 <__ieee754_pow+0xc8>
 8008270:	f1c3 0334 	rsb	r3, r3, #52	; 0x34
 8008274:	fa22 f103 	lsr.w	r1, r2, r3
 8008278:	fa01 f303 	lsl.w	r3, r1, r3
 800827c:	4293      	cmp	r3, r2
 800827e:	f040 849d 	bne.w	8008bbc <__ieee754_pow+0x9f4>
 8008282:	f001 0101 	and.w	r1, r1, #1
 8008286:	f1c1 0302 	rsb	r3, r1, #2
 800828a:	9304      	str	r3, [sp, #16]
 800828c:	b182      	cbz	r2, 80082b0 <__ieee754_pow+0xe8>
 800828e:	e05f      	b.n	8008350 <__ieee754_pow+0x188>
 8008290:	2a00      	cmp	r2, #0
 8008292:	d15b      	bne.n	800834c <__ieee754_pow+0x184>
 8008294:	f1c3 0314 	rsb	r3, r3, #20
 8008298:	fa48 f103 	asr.w	r1, r8, r3
 800829c:	fa01 f303 	lsl.w	r3, r1, r3
 80082a0:	4543      	cmp	r3, r8
 80082a2:	f040 8488 	bne.w	8008bb6 <__ieee754_pow+0x9ee>
 80082a6:	f001 0101 	and.w	r1, r1, #1
 80082aa:	f1c1 0302 	rsb	r3, r1, #2
 80082ae:	9304      	str	r3, [sp, #16]
 80082b0:	4b5c      	ldr	r3, [pc, #368]	; (8008424 <__ieee754_pow+0x25c>)
 80082b2:	4598      	cmp	r8, r3
 80082b4:	d132      	bne.n	800831c <__ieee754_pow+0x154>
 80082b6:	f1b9 0f00 	cmp.w	r9, #0
 80082ba:	f280 8478 	bge.w	8008bae <__ieee754_pow+0x9e6>
 80082be:	4959      	ldr	r1, [pc, #356]	; (8008424 <__ieee754_pow+0x25c>)
 80082c0:	4632      	mov	r2, r6
 80082c2:	463b      	mov	r3, r7
 80082c4:	2000      	movs	r0, #0
 80082c6:	f7f8 fac1 	bl	800084c <__aeabi_ddiv>
 80082ca:	e79c      	b.n	8008206 <__ieee754_pow+0x3e>
 80082cc:	2300      	movs	r3, #0
 80082ce:	9304      	str	r3, [sp, #16]
 80082d0:	2a00      	cmp	r2, #0
 80082d2:	d13d      	bne.n	8008350 <__ieee754_pow+0x188>
 80082d4:	4b51      	ldr	r3, [pc, #324]	; (800841c <__ieee754_pow+0x254>)
 80082d6:	4598      	cmp	r8, r3
 80082d8:	d1ea      	bne.n	80082b0 <__ieee754_pow+0xe8>
 80082da:	f104 4340 	add.w	r3, r4, #3221225472	; 0xc0000000
 80082de:	f503 1380 	add.w	r3, r3, #1048576	; 0x100000
 80082e2:	ea53 030a 	orrs.w	r3, r3, sl
 80082e6:	f000 845a 	beq.w	8008b9e <__ieee754_pow+0x9d6>
 80082ea:	4b4f      	ldr	r3, [pc, #316]	; (8008428 <__ieee754_pow+0x260>)
 80082ec:	429c      	cmp	r4, r3
 80082ee:	dd08      	ble.n	8008302 <__ieee754_pow+0x13a>
 80082f0:	f1b9 0f00 	cmp.w	r9, #0
 80082f4:	f2c0 8457 	blt.w	8008ba6 <__ieee754_pow+0x9de>
 80082f8:	e9dd 0100 	ldrd	r0, r1, [sp]
 80082fc:	e783      	b.n	8008206 <__ieee754_pow+0x3e>
 80082fe:	2302      	movs	r3, #2
 8008300:	e7e5      	b.n	80082ce <__ieee754_pow+0x106>
 8008302:	f1b9 0f00 	cmp.w	r9, #0
 8008306:	f04f 0000 	mov.w	r0, #0
 800830a:	f04f 0100 	mov.w	r1, #0
 800830e:	f6bf af7a 	bge.w	8008206 <__ieee754_pow+0x3e>
 8008312:	e9dd 0300 	ldrd	r0, r3, [sp]
 8008316:	f103 4100 	add.w	r1, r3, #2147483648	; 0x80000000
 800831a:	e774      	b.n	8008206 <__ieee754_pow+0x3e>
 800831c:	f1b9 4f80 	cmp.w	r9, #1073741824	; 0x40000000
 8008320:	d106      	bne.n	8008330 <__ieee754_pow+0x168>
 8008322:	4632      	mov	r2, r6
 8008324:	463b      	mov	r3, r7
 8008326:	4630      	mov	r0, r6
 8008328:	4639      	mov	r1, r7
 800832a:	f7f8 f965 	bl	80005f8 <__aeabi_dmul>
 800832e:	e76a      	b.n	8008206 <__ieee754_pow+0x3e>
 8008330:	4b3e      	ldr	r3, [pc, #248]	; (800842c <__ieee754_pow+0x264>)
 8008332:	4599      	cmp	r9, r3
 8008334:	d10c      	bne.n	8008350 <__ieee754_pow+0x188>
 8008336:	2d00      	cmp	r5, #0
 8008338:	db0a      	blt.n	8008350 <__ieee754_pow+0x188>
 800833a:	ec47 6b10 	vmov	d0, r6, r7
 800833e:	b009      	add	sp, #36	; 0x24
 8008340:	ecbd 8b06 	vpop	{d8-d10}
 8008344:	e8bd 4ff0 	ldmia.w	sp!, {r4, r5, r6, r7, r8, r9, sl, fp, lr}
 8008348:	f000 be7a 	b.w	8009040 <__ieee754_sqrt>
 800834c:	2300      	movs	r3, #0
 800834e:	9304      	str	r3, [sp, #16]
 8008350:	ec47 6b10 	vmov	d0, r6, r7
 8008354:	f001 fc2e 	bl	8009bb4 <fabs>
 8008358:	ec51 0b10 	vmov	r0, r1, d0
 800835c:	f1ba 0f00 	cmp.w	sl, #0
 8008360:	d129      	bne.n	80083b6 <__ieee754_pow+0x1ee>
 8008362:	b124      	cbz	r4, 800836e <__ieee754_pow+0x1a6>
 8008364:	4b2f      	ldr	r3, [pc, #188]	; (8008424 <__ieee754_pow+0x25c>)
 8008366:	f025 4240 	bic.w	r2, r5, #3221225472	; 0xc0000000
 800836a:	429a      	cmp	r2, r3
 800836c:	d123      	bne.n	80083b6 <__ieee754_pow+0x1ee>
 800836e:	f1b9 0f00 	cmp.w	r9, #0
 8008372:	da05      	bge.n	8008380 <__ieee754_pow+0x1b8>
 8008374:	4602      	mov	r2, r0
 8008376:	460b      	mov	r3, r1
 8008378:	2000      	movs	r0, #0
 800837a:	492a      	ldr	r1, [pc, #168]	; (8008424 <__ieee754_pow+0x25c>)
 800837c:	f7f8 fa66 	bl	800084c <__aeabi_ddiv>
 8008380:	2d00      	cmp	r5, #0
 8008382:	f6bf af40 	bge.w	8008206 <__ieee754_pow+0x3e>
 8008386:	9b04      	ldr	r3, [sp, #16]
 8008388:	f104 4440 	add.w	r4, r4, #3221225472	; 0xc0000000
 800838c:	f504 1480 	add.w	r4, r4, #1048576	; 0x100000
 8008390:	4323      	orrs	r3, r4
 8008392:	d108      	bne.n	80083a6 <__ieee754_pow+0x1de>
 8008394:	4602      	mov	r2, r0
 8008396:	460b      	mov	r3, r1
 8008398:	4610      	mov	r0, r2
 800839a:	4619      	mov	r1, r3
 800839c:	f7f7 ff74 	bl	8000288 <__aeabi_dsub>
 80083a0:	4602      	mov	r2, r0
 80083a2:	460b      	mov	r3, r1
 80083a4:	e78f      	b.n	80082c6 <__ieee754_pow+0xfe>
 80083a6:	9b04      	ldr	r3, [sp, #16]
 80083a8:	2b01      	cmp	r3, #1
 80083aa:	f47f af2c 	bne.w	8008206 <__ieee754_pow+0x3e>
 80083ae:	f101 4300 	add.w	r3, r1, #2147483648	; 0x80000000
 80083b2:	4619      	mov	r1, r3
 80083b4:	e727      	b.n	8008206 <__ieee754_pow+0x3e>
 80083b6:	0feb      	lsrs	r3, r5, #31
 80083b8:	3b01      	subs	r3, #1
 80083ba:	9306      	str	r3, [sp, #24]
 80083bc:	9a06      	ldr	r2, [sp, #24]
 80083be:	9b04      	ldr	r3, [sp, #16]
 80083c0:	4313      	orrs	r3, r2
 80083c2:	d102      	bne.n	80083ca <__ieee754_pow+0x202>
 80083c4:	4632      	mov	r2, r6
 80083c6:	463b      	mov	r3, r7
 80083c8:	e7e6      	b.n	8008398 <__ieee754_pow+0x1d0>
 80083ca:	4b19      	ldr	r3, [pc, #100]	; (8008430 <__ieee754_pow+0x268>)
 80083cc:	4598      	cmp	r8, r3
 80083ce:	f340 80fb 	ble.w	80085c8 <__ieee754_pow+0x400>
 80083d2:	f103 7304 	add.w	r3, r3, #34603008	; 0x2100000
 80083d6:	4598      	cmp	r8, r3
 80083d8:	4b13      	ldr	r3, [pc, #76]	; (8008428 <__ieee754_pow+0x260>)
 80083da:	dd0c      	ble.n	80083f6 <__ieee754_pow+0x22e>
 80083dc:	429c      	cmp	r4, r3
 80083de:	dc0f      	bgt.n	8008400 <__ieee754_pow+0x238>
 80083e0:	f1b9 0f00 	cmp.w	r9, #0
 80083e4:	da0f      	bge.n	8008406 <__ieee754_pow+0x23e>
 80083e6:	2000      	movs	r0, #0
 80083e8:	b009      	add	sp, #36	; 0x24
 80083ea:	ecbd 8b06 	vpop	{d8-d10}
 80083ee:	e8bd 4ff0 	ldmia.w	sp!, {r4, r5, r6, r7, r8, r9, sl, fp, lr}
 80083f2:	f001 bbd6 	b.w	8009ba2 <__math_oflow>
 80083f6:	429c      	cmp	r4, r3
 80083f8:	dbf2      	blt.n	80083e0 <__ieee754_pow+0x218>
 80083fa:	4b0a      	ldr	r3, [pc, #40]	; (8008424 <__ieee754_pow+0x25c>)
 80083fc:	429c      	cmp	r4, r3
 80083fe:	dd19      	ble.n	8008434 <__ieee754_pow+0x26c>
 8008400:	f1b9 0f00 	cmp.w	r9, #0
 8008404:	dcef      	bgt.n	80083e6 <__ieee754_pow+0x21e>
 8008406:	2000      	movs	r0, #0
 8008408:	b009      	add	sp, #36	; 0x24
 800840a:	ecbd 8b06 	vpop	{d8-d10}
 800840e:	e8bd 4ff0 	ldmia.w	sp!, {r4, r5, r6, r7, r8, r9, sl, fp, lr}
 8008412:	f001 bbbd 	b.w	8009b90 <__math_uflow>
 8008416:	bf00      	nop
 8008418:	fff00000 	.word	0xfff00000
 800841c:	7ff00000 	.word	0x7ff00000
 8008420:	433fffff 	.word	0x433fffff
 8008424:	3ff00000 	.word	0x3ff00000
 8008428:	3fefffff 	.word	0x3fefffff
 800842c:	3fe00000 	.word	0x3fe00000
 8008430:	41e00000 	.word	0x41e00000
 8008434:	4b60      	ldr	r3, [pc, #384]	; (80085b8 <__ieee754_pow+0x3f0>)
 8008436:	2200      	movs	r2, #0
 8008438:	f7f7 ff26 	bl	8000288 <__aeabi_dsub>
 800843c:	a354      	add	r3, pc, #336	; (adr r3, 8008590 <__ieee754_pow+0x3c8>)
 800843e:	e9d3 2300 	ldrd	r2, r3, [r3]
 8008442:	4604      	mov	r4, r0
 8008444:	460d      	mov	r5, r1
 8008446:	f7f8 f8d7 	bl	80005f8 <__aeabi_dmul>
 800844a:	a353      	add	r3, pc, #332	; (adr r3, 8008598 <__ieee754_pow+0x3d0>)
 800844c:	e9d3 2300 	ldrd	r2, r3, [r3]
 8008450:	4606      	mov	r6, r0
 8008452:	460f      	mov	r7, r1
 8008454:	4620      	mov	r0, r4
 8008456:	4629      	mov	r1, r5
 8008458:	f7f8 f8ce 	bl	80005f8 <__aeabi_dmul>
 800845c:	4b57      	ldr	r3, [pc, #348]	; (80085bc <__ieee754_pow+0x3f4>)
 800845e:	4682      	mov	sl, r0
 8008460:	468b      	mov	fp, r1
 8008462:	2200      	movs	r2, #0
 8008464:	4620      	mov	r0, r4
 8008466:	4629      	mov	r1, r5
 8008468:	f7f8 f8c6 	bl	80005f8 <__aeabi_dmul>
 800846c:	4602      	mov	r2, r0
 800846e:	460b      	mov	r3, r1
 8008470:	a14b      	add	r1, pc, #300	; (adr r1, 80085a0 <__ieee754_pow+0x3d8>)
 8008472:	e9d1 0100 	ldrd	r0, r1, [r1]
 8008476:	f7f7 ff07 	bl	8000288 <__aeabi_dsub>
 800847a:	4622      	mov	r2, r4
 800847c:	462b      	mov	r3, r5
 800847e:	f7f8 f8bb 	bl	80005f8 <__aeabi_dmul>
 8008482:	4602      	mov	r2, r0
 8008484:	460b      	mov	r3, r1
 8008486:	2000      	movs	r0, #0
 8008488:	494d      	ldr	r1, [pc, #308]	; (80085c0 <__ieee754_pow+0x3f8>)
 800848a:	f7f7 fefd 	bl	8000288 <__aeabi_dsub>
 800848e:	4622      	mov	r2, r4
 8008490:	4680      	mov	r8, r0
 8008492:	4689      	mov	r9, r1
 8008494:	462b      	mov	r3, r5
 8008496:	4620      	mov	r0, r4
 8008498:	4629      	mov	r1, r5
 800849a:	f7f8 f8ad 	bl	80005f8 <__aeabi_dmul>
 800849e:	4602      	mov	r2, r0
 80084a0:	460b      	mov	r3, r1
 80084a2:	4640      	mov	r0, r8
 80084a4:	4649      	mov	r1, r9
 80084a6:	f7f8 f8a7 	bl	80005f8 <__aeabi_dmul>
 80084aa:	a33f      	add	r3, pc, #252	; (adr r3, 80085a8 <__ieee754_pow+0x3e0>)
 80084ac:	e9d3 2300 	ldrd	r2, r3, [r3]
 80084b0:	f7f8 f8a2 	bl	80005f8 <__aeabi_dmul>
 80084b4:	4602      	mov	r2, r0
 80084b6:	460b      	mov	r3, r1
 80084b8:	4650      	mov	r0, sl
 80084ba:	4659      	mov	r1, fp
 80084bc:	f7f7 fee4 	bl	8000288 <__aeabi_dsub>
 80084c0:	4602      	mov	r2, r0
 80084c2:	460b      	mov	r3, r1
 80084c4:	4680      	mov	r8, r0
 80084c6:	4689      	mov	r9, r1
 80084c8:	4630      	mov	r0, r6
 80084ca:	4639      	mov	r1, r7
 80084cc:	f7f7 fede 	bl	800028c <__adddf3>
 80084d0:	2000      	movs	r0, #0
 80084d2:	4632      	mov	r2, r6
 80084d4:	463b      	mov	r3, r7
 80084d6:	4604      	mov	r4, r0
 80084d8:	460d      	mov	r5, r1
 80084da:	f7f7 fed5 	bl	8000288 <__aeabi_dsub>
 80084de:	4602      	mov	r2, r0
 80084e0:	460b      	mov	r3, r1
 80084e2:	4640      	mov	r0, r8
 80084e4:	4649      	mov	r1, r9
 80084e6:	f7f7 fecf 	bl	8000288 <__aeabi_dsub>
 80084ea:	9b04      	ldr	r3, [sp, #16]
 80084ec:	9a06      	ldr	r2, [sp, #24]
 80084ee:	3b01      	subs	r3, #1
 80084f0:	4313      	orrs	r3, r2
 80084f2:	4682      	mov	sl, r0
 80084f4:	468b      	mov	fp, r1
 80084f6:	f040 81e7 	bne.w	80088c8 <__ieee754_pow+0x700>
 80084fa:	ed9f 7b2d 	vldr	d7, [pc, #180]	; 80085b0 <__ieee754_pow+0x3e8>
 80084fe:	eeb0 8a47 	vmov.f32	s16, s14
 8008502:	eef0 8a67 	vmov.f32	s17, s15
 8008506:	e9dd 6700 	ldrd	r6, r7, [sp]
 800850a:	2600      	movs	r6, #0
 800850c:	4632      	mov	r2, r6
 800850e:	463b      	mov	r3, r7
 8008510:	e9dd 0100 	ldrd	r0, r1, [sp]
 8008514:	f7f7 feb8 	bl	8000288 <__aeabi_dsub>
 8008518:	4622      	mov	r2, r4
 800851a:	462b      	mov	r3, r5
 800851c:	f7f8 f86c 	bl	80005f8 <__aeabi_dmul>
 8008520:	e9dd 2300 	ldrd	r2, r3, [sp]
 8008524:	4680      	mov	r8, r0
 8008526:	4689      	mov	r9, r1
 8008528:	4650      	mov	r0, sl
 800852a:	4659      	mov	r1, fp
 800852c:	f7f8 f864 	bl	80005f8 <__aeabi_dmul>
 8008530:	4602      	mov	r2, r0
 8008532:	460b      	mov	r3, r1
 8008534:	4640      	mov	r0, r8
 8008536:	4649      	mov	r1, r9
 8008538:	f7f7 fea8 	bl	800028c <__adddf3>
 800853c:	4632      	mov	r2, r6
 800853e:	463b      	mov	r3, r7
 8008540:	4680      	mov	r8, r0
 8008542:	4689      	mov	r9, r1
 8008544:	4620      	mov	r0, r4
 8008546:	4629      	mov	r1, r5
 8008548:	f7f8 f856 	bl	80005f8 <__aeabi_dmul>
 800854c:	460b      	mov	r3, r1
 800854e:	4604      	mov	r4, r0
 8008550:	460d      	mov	r5, r1
 8008552:	4602      	mov	r2, r0
 8008554:	4649      	mov	r1, r9
 8008556:	4640      	mov	r0, r8
 8008558:	f7f7 fe98 	bl	800028c <__adddf3>
 800855c:	4b19      	ldr	r3, [pc, #100]	; (80085c4 <__ieee754_pow+0x3fc>)
 800855e:	4299      	cmp	r1, r3
 8008560:	ec45 4b19 	vmov	d9, r4, r5
 8008564:	4606      	mov	r6, r0
 8008566:	460f      	mov	r7, r1
 8008568:	468b      	mov	fp, r1
 800856a:	f340 82f1 	ble.w	8008b50 <__ieee754_pow+0x988>
 800856e:	f101 433f 	add.w	r3, r1, #3204448256	; 0xbf000000
 8008572:	f503 03e0 	add.w	r3, r3, #7340032	; 0x700000
 8008576:	4303      	orrs	r3, r0
 8008578:	f000 81e4 	beq.w	8008944 <__ieee754_pow+0x77c>
 800857c:	ec51 0b18 	vmov	r0, r1, d8
 8008580:	2200      	movs	r2, #0
 8008582:	2300      	movs	r3, #0
 8008584:	f7f8 faaa 	bl	8000adc <__aeabi_dcmplt>
 8008588:	3800      	subs	r0, #0
 800858a:	bf18      	it	ne
 800858c:	2001      	movne	r0, #1
 800858e:	e72b      	b.n	80083e8 <__ieee754_pow+0x220>
 8008590:	60000000 	.word	0x60000000
 8008594:	3ff71547 	.word	0x3ff71547
 8008598:	f85ddf44 	.word	0xf85ddf44
 800859c:	3e54ae0b 	.word	0x3e54ae0b
 80085a0:	55555555 	.word	0x55555555
 80085a4:	3fd55555 	.word	0x3fd55555
 80085a8:	652b82fe 	.word	0x652b82fe
 80085ac:	3ff71547 	.word	0x3ff71547
 80085b0:	00000000 	.word	0x00000000
 80085b4:	bff00000 	.word	0xbff00000
 80085b8:	3ff00000 	.word	0x3ff00000
 80085bc:	3fd00000 	.word	0x3fd00000
 80085c0:	3fe00000 	.word	0x3fe00000
 80085c4:	408fffff 	.word	0x408fffff
 80085c8:	4bd5      	ldr	r3, [pc, #852]	; (8008920 <__ieee754_pow+0x758>)
 80085ca:	402b      	ands	r3, r5
 80085cc:	2200      	movs	r2, #0
 80085ce:	b92b      	cbnz	r3, 80085dc <__ieee754_pow+0x414>
 80085d0:	4bd4      	ldr	r3, [pc, #848]	; (8008924 <__ieee754_pow+0x75c>)
 80085d2:	f7f8 f811 	bl	80005f8 <__aeabi_dmul>
 80085d6:	f06f 0234 	mvn.w	r2, #52	; 0x34
 80085da:	460c      	mov	r4, r1
 80085dc:	1523      	asrs	r3, r4, #20
 80085de:	f2a3 33ff 	subw	r3, r3, #1023	; 0x3ff
 80085e2:	4413      	add	r3, r2
 80085e4:	9305      	str	r3, [sp, #20]
 80085e6:	4bd0      	ldr	r3, [pc, #832]	; (8008928 <__ieee754_pow+0x760>)
 80085e8:	f3c4 0413 	ubfx	r4, r4, #0, #20
 80085ec:	f044 557f 	orr.w	r5, r4, #1069547520	; 0x3fc00000
 80085f0:	429c      	cmp	r4, r3
 80085f2:	f445 1540 	orr.w	r5, r5, #3145728	; 0x300000
 80085f6:	dd08      	ble.n	800860a <__ieee754_pow+0x442>
 80085f8:	4bcc      	ldr	r3, [pc, #816]	; (800892c <__ieee754_pow+0x764>)
 80085fa:	429c      	cmp	r4, r3
 80085fc:	f340 8162 	ble.w	80088c4 <__ieee754_pow+0x6fc>
 8008600:	9b05      	ldr	r3, [sp, #20]
 8008602:	3301      	adds	r3, #1
 8008604:	9305      	str	r3, [sp, #20]
 8008606:	f5a5 1580 	sub.w	r5, r5, #1048576	; 0x100000
 800860a:	2400      	movs	r4, #0
 800860c:	00e3      	lsls	r3, r4, #3
 800860e:	9307      	str	r3, [sp, #28]
 8008610:	4bc7      	ldr	r3, [pc, #796]	; (8008930 <__ieee754_pow+0x768>)
 8008612:	eb03 03c4 	add.w	r3, r3, r4, lsl #3
 8008616:	ed93 7b00 	vldr	d7, [r3]
 800861a:	4629      	mov	r1, r5
 800861c:	ec53 2b17 	vmov	r2, r3, d7
 8008620:	eeb0 9a47 	vmov.f32	s18, s14
 8008624:	eef0 9a67 	vmov.f32	s19, s15
 8008628:	4682      	mov	sl, r0
 800862a:	f7f7 fe2d 	bl	8000288 <__aeabi_dsub>
 800862e:	4652      	mov	r2, sl
 8008630:	4606      	mov	r6, r0
 8008632:	460f      	mov	r7, r1
 8008634:	462b      	mov	r3, r5
 8008636:	ec51 0b19 	vmov	r0, r1, d9
 800863a:	f7f7 fe27 	bl	800028c <__adddf3>
 800863e:	4602      	mov	r2, r0
 8008640:	460b      	mov	r3, r1
 8008642:	2000      	movs	r0, #0
 8008644:	49bb      	ldr	r1, [pc, #748]	; (8008934 <__ieee754_pow+0x76c>)
 8008646:	f7f8 f901 	bl	800084c <__aeabi_ddiv>
 800864a:	ec41 0b1a 	vmov	d10, r0, r1
 800864e:	4602      	mov	r2, r0
 8008650:	460b      	mov	r3, r1
 8008652:	4630      	mov	r0, r6
 8008654:	4639      	mov	r1, r7
 8008656:	f7f7 ffcf 	bl	80005f8 <__aeabi_dmul>
 800865a:	2300      	movs	r3, #0
 800865c:	e9cd 0102 	strd	r0, r1, [sp, #8]
 8008660:	9302      	str	r3, [sp, #8]
 8008662:	e9dd 8902 	ldrd	r8, r9, [sp, #8]
 8008666:	46ab      	mov	fp, r5
 8008668:	106d      	asrs	r5, r5, #1
 800866a:	f045 5500 	orr.w	r5, r5, #536870912	; 0x20000000
 800866e:	f505 2500 	add.w	r5, r5, #524288	; 0x80000
 8008672:	ec41 0b18 	vmov	d8, r0, r1
 8008676:	eb05 4384 	add.w	r3, r5, r4, lsl #18
 800867a:	2200      	movs	r2, #0
 800867c:	4640      	mov	r0, r8
 800867e:	4649      	mov	r1, r9
 8008680:	4614      	mov	r4, r2
 8008682:	461d      	mov	r5, r3
 8008684:	f7f7 ffb8 	bl	80005f8 <__aeabi_dmul>
 8008688:	4602      	mov	r2, r0
 800868a:	460b      	mov	r3, r1
 800868c:	4630      	mov	r0, r6
 800868e:	4639      	mov	r1, r7
 8008690:	f7f7 fdfa 	bl	8000288 <__aeabi_dsub>
 8008694:	ec53 2b19 	vmov	r2, r3, d9
 8008698:	4606      	mov	r6, r0
 800869a:	460f      	mov	r7, r1
 800869c:	4620      	mov	r0, r4
 800869e:	4629      	mov	r1, r5
 80086a0:	f7f7 fdf2 	bl	8000288 <__aeabi_dsub>
 80086a4:	4602      	mov	r2, r0
 80086a6:	460b      	mov	r3, r1
 80086a8:	4650      	mov	r0, sl
 80086aa:	4659      	mov	r1, fp
 80086ac:	f7f7 fdec 	bl	8000288 <__aeabi_dsub>
 80086b0:	4642      	mov	r2, r8
 80086b2:	464b      	mov	r3, r9
 80086b4:	f7f7 ffa0 	bl	80005f8 <__aeabi_dmul>
 80086b8:	4602      	mov	r2, r0
 80086ba:	460b      	mov	r3, r1
 80086bc:	4630      	mov	r0, r6
 80086be:	4639      	mov	r1, r7
 80086c0:	f7f7 fde2 	bl	8000288 <__aeabi_dsub>
 80086c4:	ec53 2b1a 	vmov	r2, r3, d10
 80086c8:	f7f7 ff96 	bl	80005f8 <__aeabi_dmul>
 80086cc:	ec53 2b18 	vmov	r2, r3, d8
 80086d0:	ec41 0b19 	vmov	d9, r0, r1
 80086d4:	ec51 0b18 	vmov	r0, r1, d8
 80086d8:	f7f7 ff8e 	bl	80005f8 <__aeabi_dmul>
 80086dc:	a37c      	add	r3, pc, #496	; (adr r3, 80088d0 <__ieee754_pow+0x708>)
 80086de:	e9d3 2300 	ldrd	r2, r3, [r3]
 80086e2:	4604      	mov	r4, r0
 80086e4:	460d      	mov	r5, r1
 80086e6:	f7f7 ff87 	bl	80005f8 <__aeabi_dmul>
 80086ea:	a37b      	add	r3, pc, #492	; (adr r3, 80088d8 <__ieee754_pow+0x710>)
 80086ec:	e9d3 2300 	ldrd	r2, r3, [r3]
 80086f0:	f7f7 fdcc 	bl	800028c <__adddf3>
 80086f4:	4622      	mov	r2, r4
 80086f6:	462b      	mov	r3, r5
 80086f8:	f7f7 ff7e 	bl	80005f8 <__aeabi_dmul>
 80086fc:	a378      	add	r3, pc, #480	; (adr r3, 80088e0 <__ieee754_pow+0x718>)
 80086fe:	e9d3 2300 	ldrd	r2, r3, [r3]
 8008702:	f7f7 fdc3 	bl	800028c <__adddf3>
 8008706:	4622      	mov	r2, r4
 8008708:	462b      	mov	r3, r5
 800870a:	f7f7 ff75 	bl	80005f8 <__aeabi_dmul>
 800870e:	a376      	add	r3, pc, #472	; (adr r3, 80088e8 <__ieee754_pow+0x720>)
 8008710:	e9d3 2300 	ldrd	r2, r3, [r3]
 8008714:	f7f7 fdba 	bl	800028c <__adddf3>
 8008718:	4622      	mov	r2, r4
 800871a:	462b      	mov	r3, r5
 800871c:	f7f7 ff6c 	bl	80005f8 <__aeabi_dmul>
 8008720:	a373      	add	r3, pc, #460	; (adr r3, 80088f0 <__ieee754_pow+0x728>)
 8008722:	e9d3 2300 	ldrd	r2, r3, [r3]
 8008726:	f7f7 fdb1 	bl	800028c <__adddf3>
 800872a:	4622      	mov	r2, r4
 800872c:	462b      	mov	r3, r5
 800872e:	f7f7 ff63 	bl	80005f8 <__aeabi_dmul>
 8008732:	a371      	add	r3, pc, #452	; (adr r3, 80088f8 <__ieee754_pow+0x730>)
 8008734:	e9d3 2300 	ldrd	r2, r3, [r3]
 8008738:	f7f7 fda8 	bl	800028c <__adddf3>
 800873c:	4622      	mov	r2, r4
 800873e:	4606      	mov	r6, r0
 8008740:	460f      	mov	r7, r1
 8008742:	462b      	mov	r3, r5
 8008744:	4620      	mov	r0, r4
 8008746:	4629      	mov	r1, r5
 8008748:	f7f7 ff56 	bl	80005f8 <__aeabi_dmul>
 800874c:	4602      	mov	r2, r0
 800874e:	460b      	mov	r3, r1
 8008750:	4630      	mov	r0, r6
 8008752:	4639      	mov	r1, r7
 8008754:	f7f7 ff50 	bl	80005f8 <__aeabi_dmul>
 8008758:	4642      	mov	r2, r8
 800875a:	4604      	mov	r4, r0
 800875c:	460d      	mov	r5, r1
 800875e:	464b      	mov	r3, r9
 8008760:	ec51 0b18 	vmov	r0, r1, d8
 8008764:	f7f7 fd92 	bl	800028c <__adddf3>
 8008768:	ec53 2b19 	vmov	r2, r3, d9
 800876c:	f7f7 ff44 	bl	80005f8 <__aeabi_dmul>
 8008770:	4622      	mov	r2, r4
 8008772:	462b      	mov	r3, r5
 8008774:	f7f7 fd8a 	bl	800028c <__adddf3>
 8008778:	4642      	mov	r2, r8
 800877a:	4682      	mov	sl, r0
 800877c:	468b      	mov	fp, r1
 800877e:	464b      	mov	r3, r9
 8008780:	4640      	mov	r0, r8
 8008782:	4649      	mov	r1, r9
 8008784:	f7f7 ff38 	bl	80005f8 <__aeabi_dmul>
 8008788:	4b6b      	ldr	r3, [pc, #428]	; (8008938 <__ieee754_pow+0x770>)
 800878a:	2200      	movs	r2, #0
 800878c:	4606      	mov	r6, r0
 800878e:	460f      	mov	r7, r1
 8008790:	f7f7 fd7c 	bl	800028c <__adddf3>
 8008794:	4652      	mov	r2, sl
 8008796:	465b      	mov	r3, fp
 8008798:	f7f7 fd78 	bl	800028c <__adddf3>
 800879c:	2000      	movs	r0, #0
 800879e:	4604      	mov	r4, r0
 80087a0:	460d      	mov	r5, r1
 80087a2:	4602      	mov	r2, r0
 80087a4:	460b      	mov	r3, r1
 80087a6:	4640      	mov	r0, r8
 80087a8:	4649      	mov	r1, r9
 80087aa:	f7f7 ff25 	bl	80005f8 <__aeabi_dmul>
 80087ae:	4b62      	ldr	r3, [pc, #392]	; (8008938 <__ieee754_pow+0x770>)
 80087b0:	4680      	mov	r8, r0
 80087b2:	4689      	mov	r9, r1
 80087b4:	2200      	movs	r2, #0
 80087b6:	4620      	mov	r0, r4
 80087b8:	4629      	mov	r1, r5
 80087ba:	f7f7 fd65 	bl	8000288 <__aeabi_dsub>
 80087be:	4632      	mov	r2, r6
 80087c0:	463b      	mov	r3, r7
 80087c2:	f7f7 fd61 	bl	8000288 <__aeabi_dsub>
 80087c6:	4602      	mov	r2, r0
 80087c8:	460b      	mov	r3, r1
 80087ca:	4650      	mov	r0, sl
 80087cc:	4659      	mov	r1, fp
 80087ce:	f7f7 fd5b 	bl	8000288 <__aeabi_dsub>
 80087d2:	ec53 2b18 	vmov	r2, r3, d8
 80087d6:	f7f7 ff0f 	bl	80005f8 <__aeabi_dmul>
 80087da:	4622      	mov	r2, r4
 80087dc:	4606      	mov	r6, r0
 80087de:	460f      	mov	r7, r1
 80087e0:	462b      	mov	r3, r5
 80087e2:	ec51 0b19 	vmov	r0, r1, d9
 80087e6:	f7f7 ff07 	bl	80005f8 <__aeabi_dmul>
 80087ea:	4602      	mov	r2, r0
 80087ec:	460b      	mov	r3, r1
 80087ee:	4630      	mov	r0, r6
 80087f0:	4639      	mov	r1, r7
 80087f2:	f7f7 fd4b 	bl	800028c <__adddf3>
 80087f6:	4606      	mov	r6, r0
 80087f8:	460f      	mov	r7, r1
 80087fa:	4602      	mov	r2, r0
 80087fc:	460b      	mov	r3, r1
 80087fe:	4640      	mov	r0, r8
 8008800:	4649      	mov	r1, r9
 8008802:	f7f7 fd43 	bl	800028c <__adddf3>
 8008806:	a33e      	add	r3, pc, #248	; (adr r3, 8008900 <__ieee754_pow+0x738>)
 8008808:	e9d3 2300 	ldrd	r2, r3, [r3]
 800880c:	2000      	movs	r0, #0
 800880e:	4604      	mov	r4, r0
 8008810:	460d      	mov	r5, r1
 8008812:	f7f7 fef1 	bl	80005f8 <__aeabi_dmul>
 8008816:	4642      	mov	r2, r8
 8008818:	ec41 0b18 	vmov	d8, r0, r1
 800881c:	464b      	mov	r3, r9
 800881e:	4620      	mov	r0, r4
 8008820:	4629      	mov	r1, r5
 8008822:	f7f7 fd31 	bl	8000288 <__aeabi_dsub>
 8008826:	4602      	mov	r2, r0
 8008828:	460b      	mov	r3, r1
 800882a:	4630      	mov	r0, r6
 800882c:	4639      	mov	r1, r7
 800882e:	f7f7 fd2b 	bl	8000288 <__aeabi_dsub>
 8008832:	a335      	add	r3, pc, #212	; (adr r3, 8008908 <__ieee754_pow+0x740>)
 8008834:	e9d3 2300 	ldrd	r2, r3, [r3]
 8008838:	f7f7 fede 	bl	80005f8 <__aeabi_dmul>
 800883c:	a334      	add	r3, pc, #208	; (adr r3, 8008910 <__ieee754_pow+0x748>)
 800883e:	e9d3 2300 	ldrd	r2, r3, [r3]
 8008842:	4606      	mov	r6, r0
 8008844:	460f      	mov	r7, r1
 8008846:	4620      	mov	r0, r4
 8008848:	4629      	mov	r1, r5
 800884a:	f7f7 fed5 	bl	80005f8 <__aeabi_dmul>
 800884e:	4602      	mov	r2, r0
 8008850:	460b      	mov	r3, r1
 8008852:	4630      	mov	r0, r6
 8008854:	4639      	mov	r1, r7
 8008856:	f7f7 fd19 	bl	800028c <__adddf3>
 800885a:	9a07      	ldr	r2, [sp, #28]
 800885c:	4b37      	ldr	r3, [pc, #220]	; (800893c <__ieee754_pow+0x774>)
 800885e:	4413      	add	r3, r2
 8008860:	e9d3 2300 	ldrd	r2, r3, [r3]
 8008864:	f7f7 fd12 	bl	800028c <__adddf3>
 8008868:	4682      	mov	sl, r0
 800886a:	9805      	ldr	r0, [sp, #20]
 800886c:	468b      	mov	fp, r1
 800886e:	f7f7 fe59 	bl	8000524 <__aeabi_i2d>
 8008872:	9a07      	ldr	r2, [sp, #28]
 8008874:	4b32      	ldr	r3, [pc, #200]	; (8008940 <__ieee754_pow+0x778>)
 8008876:	4413      	add	r3, r2
 8008878:	e9d3 8900 	ldrd	r8, r9, [r3]
 800887c:	4606      	mov	r6, r0
 800887e:	460f      	mov	r7, r1
 8008880:	4652      	mov	r2, sl
 8008882:	465b      	mov	r3, fp
 8008884:	ec51 0b18 	vmov	r0, r1, d8
 8008888:	f7f7 fd00 	bl	800028c <__adddf3>
 800888c:	4642      	mov	r2, r8
 800888e:	464b      	mov	r3, r9
 8008890:	f7f7 fcfc 	bl	800028c <__adddf3>
 8008894:	4632      	mov	r2, r6
 8008896:	463b      	mov	r3, r7
 8008898:	f7f7 fcf8 	bl	800028c <__adddf3>
 800889c:	2000      	movs	r0, #0
 800889e:	4632      	mov	r2, r6
 80088a0:	463b      	mov	r3, r7
 80088a2:	4604      	mov	r4, r0
 80088a4:	460d      	mov	r5, r1
 80088a6:	f7f7 fcef 	bl	8000288 <__aeabi_dsub>
 80088aa:	4642      	mov	r2, r8
 80088ac:	464b      	mov	r3, r9
 80088ae:	f7f7 fceb 	bl	8000288 <__aeabi_dsub>
 80088b2:	ec53 2b18 	vmov	r2, r3, d8
 80088b6:	f7f7 fce7 	bl	8000288 <__aeabi_dsub>
 80088ba:	4602      	mov	r2, r0
 80088bc:	460b      	mov	r3, r1
 80088be:	4650      	mov	r0, sl
 80088c0:	4659      	mov	r1, fp
 80088c2:	e610      	b.n	80084e6 <__ieee754_pow+0x31e>
 80088c4:	2401      	movs	r4, #1
 80088c6:	e6a1      	b.n	800860c <__ieee754_pow+0x444>
 80088c8:	ed9f 7b13 	vldr	d7, [pc, #76]	; 8008918 <__ieee754_pow+0x750>
 80088cc:	e617      	b.n	80084fe <__ieee754_pow+0x336>
 80088ce:	bf00      	nop
 80088d0:	4a454eef 	.word	0x4a454eef
 80088d4:	3fca7e28 	.word	0x3fca7e28
 80088d8:	93c9db65 	.word	0x93c9db65
 80088dc:	3fcd864a 	.word	0x3fcd864a
 80088e0:	a91d4101 	.word	0xa91d4101
 80088e4:	3fd17460 	.word	0x3fd17460
 80088e8:	518f264d 	.word	0x518f264d
 80088ec:	3fd55555 	.word	0x3fd55555
 80088f0:	db6fabff 	.word	0xdb6fabff
 80088f4:	3fdb6db6 	.word	0x3fdb6db6
 80088f8:	33333303 	.word	0x33333303
 80088fc:	3fe33333 	.word	0x3fe33333
 8008900:	e0000000 	.word	0xe0000000
 8008904:	3feec709 	.word	0x3feec709
 8008908:	dc3a03fd 	.word	0xdc3a03fd
 800890c:	3feec709 	.word	0x3feec709
 8008910:	145b01f5 	.word	0x145b01f5
 8008914:	be3e2fe0 	.word	0xbe3e2fe0
 8008918:	00000000 	.word	0x00000000
 800891c:	3ff00000 	.word	0x3ff00000
 8008920:	7ff00000 	.word	0x7ff00000
 8008924:	43400000 	.word	0x43400000
 8008928:	0003988e 	.word	0x0003988e
 800892c:	000bb679 	.word	0x000bb679
 8008930:	0800ca38 	.word	0x0800ca38
 8008934:	3ff00000 	.word	0x3ff00000
 8008938:	40080000 	.word	0x40080000
 800893c:	0800ca58 	.word	0x0800ca58
 8008940:	0800ca48 	.word	0x0800ca48
 8008944:	a3b5      	add	r3, pc, #724	; (adr r3, 8008c1c <__ieee754_pow+0xa54>)
 8008946:	e9d3 2300 	ldrd	r2, r3, [r3]
 800894a:	4640      	mov	r0, r8
 800894c:	4649      	mov	r1, r9
 800894e:	f7f7 fc9d 	bl	800028c <__adddf3>
 8008952:	4622      	mov	r2, r4
 8008954:	ec41 0b1a 	vmov	d10, r0, r1
 8008958:	462b      	mov	r3, r5
 800895a:	4630      	mov	r0, r6
 800895c:	4639      	mov	r1, r7
 800895e:	f7f7 fc93 	bl	8000288 <__aeabi_dsub>
 8008962:	4602      	mov	r2, r0
 8008964:	460b      	mov	r3, r1
 8008966:	ec51 0b1a 	vmov	r0, r1, d10
 800896a:	f7f8 f8d5 	bl	8000b18 <__aeabi_dcmpgt>
 800896e:	2800      	cmp	r0, #0
 8008970:	f47f ae04 	bne.w	800857c <__ieee754_pow+0x3b4>
 8008974:	4aa4      	ldr	r2, [pc, #656]	; (8008c08 <__ieee754_pow+0xa40>)
 8008976:	f02b 4300 	bic.w	r3, fp, #2147483648	; 0x80000000
 800897a:	4293      	cmp	r3, r2
 800897c:	f340 8108 	ble.w	8008b90 <__ieee754_pow+0x9c8>
 8008980:	151b      	asrs	r3, r3, #20
 8008982:	f44f 1a80 	mov.w	sl, #1048576	; 0x100000
 8008986:	f2a3 33fe 	subw	r3, r3, #1022	; 0x3fe
 800898a:	fa4a f303 	asr.w	r3, sl, r3
 800898e:	445b      	add	r3, fp
 8008990:	f3c3 520a 	ubfx	r2, r3, #20, #11
 8008994:	4e9d      	ldr	r6, [pc, #628]	; (8008c0c <__ieee754_pow+0xa44>)
 8008996:	f2a2 32ff 	subw	r2, r2, #1023	; 0x3ff
 800899a:	4116      	asrs	r6, r2
 800899c:	f3c3 0a13 	ubfx	sl, r3, #0, #20
 80089a0:	2000      	movs	r0, #0
 80089a2:	ea23 0106 	bic.w	r1, r3, r6
 80089a6:	f1c2 0214 	rsb	r2, r2, #20
 80089aa:	f44a 1a80 	orr.w	sl, sl, #1048576	; 0x100000
 80089ae:	fa4a fa02 	asr.w	sl, sl, r2
 80089b2:	f1bb 0f00 	cmp.w	fp, #0
 80089b6:	4602      	mov	r2, r0
 80089b8:	460b      	mov	r3, r1
 80089ba:	4620      	mov	r0, r4
 80089bc:	4629      	mov	r1, r5
 80089be:	bfb8      	it	lt
 80089c0:	f1ca 0a00 	rsblt	sl, sl, #0
 80089c4:	f7f7 fc60 	bl	8000288 <__aeabi_dsub>
 80089c8:	ec41 0b19 	vmov	d9, r0, r1
 80089cc:	4642      	mov	r2, r8
 80089ce:	464b      	mov	r3, r9
 80089d0:	ec51 0b19 	vmov	r0, r1, d9
 80089d4:	f7f7 fc5a 	bl	800028c <__adddf3>
 80089d8:	a37b      	add	r3, pc, #492	; (adr r3, 8008bc8 <__ieee754_pow+0xa00>)
 80089da:	e9d3 2300 	ldrd	r2, r3, [r3]
 80089de:	2000      	movs	r0, #0
 80089e0:	4604      	mov	r4, r0
 80089e2:	460d      	mov	r5, r1
 80089e4:	f7f7 fe08 	bl	80005f8 <__aeabi_dmul>
 80089e8:	ec53 2b19 	vmov	r2, r3, d9
 80089ec:	4606      	mov	r6, r0
 80089ee:	460f      	mov	r7, r1
 80089f0:	4620      	mov	r0, r4
 80089f2:	4629      	mov	r1, r5
 80089f4:	f7f7 fc48 	bl	8000288 <__aeabi_dsub>
 80089f8:	4602      	mov	r2, r0
 80089fa:	460b      	mov	r3, r1
 80089fc:	4640      	mov	r0, r8
 80089fe:	4649      	mov	r1, r9
 8008a00:	f7f7 fc42 	bl	8000288 <__aeabi_dsub>
 8008a04:	a372      	add	r3, pc, #456	; (adr r3, 8008bd0 <__ieee754_pow+0xa08>)
 8008a06:	e9d3 2300 	ldrd	r2, r3, [r3]
 8008a0a:	f7f7 fdf5 	bl	80005f8 <__aeabi_dmul>
 8008a0e:	a372      	add	r3, pc, #456	; (adr r3, 8008bd8 <__ieee754_pow+0xa10>)
 8008a10:	e9d3 2300 	ldrd	r2, r3, [r3]
 8008a14:	4680      	mov	r8, r0
 8008a16:	4689      	mov	r9, r1
 8008a18:	4620      	mov	r0, r4
 8008a1a:	4629      	mov	r1, r5
 8008a1c:	f7f7 fdec 	bl	80005f8 <__aeabi_dmul>
 8008a20:	4602      	mov	r2, r0
 8008a22:	460b      	mov	r3, r1
 8008a24:	4640      	mov	r0, r8
 8008a26:	4649      	mov	r1, r9
 8008a28:	f7f7 fc30 	bl	800028c <__adddf3>
 8008a2c:	4604      	mov	r4, r0
 8008a2e:	460d      	mov	r5, r1
 8008a30:	4602      	mov	r2, r0
 8008a32:	460b      	mov	r3, r1
 8008a34:	4630      	mov	r0, r6
 8008a36:	4639      	mov	r1, r7
 8008a38:	f7f7 fc28 	bl	800028c <__adddf3>
 8008a3c:	4632      	mov	r2, r6
 8008a3e:	463b      	mov	r3, r7
 8008a40:	4680      	mov	r8, r0
 8008a42:	4689      	mov	r9, r1
 8008a44:	f7f7 fc20 	bl	8000288 <__aeabi_dsub>
 8008a48:	4602      	mov	r2, r0
 8008a4a:	460b      	mov	r3, r1
 8008a4c:	4620      	mov	r0, r4
 8008a4e:	4629      	mov	r1, r5
 8008a50:	f7f7 fc1a 	bl	8000288 <__aeabi_dsub>
 8008a54:	4642      	mov	r2, r8
 8008a56:	4606      	mov	r6, r0
 8008a58:	460f      	mov	r7, r1
 8008a5a:	464b      	mov	r3, r9
 8008a5c:	4640      	mov	r0, r8
 8008a5e:	4649      	mov	r1, r9
 8008a60:	f7f7 fdca 	bl	80005f8 <__aeabi_dmul>
 8008a64:	a35e      	add	r3, pc, #376	; (adr r3, 8008be0 <__ieee754_pow+0xa18>)
 8008a66:	e9d3 2300 	ldrd	r2, r3, [r3]
 8008a6a:	4604      	mov	r4, r0
 8008a6c:	460d      	mov	r5, r1
 8008a6e:	f7f7 fdc3 	bl	80005f8 <__aeabi_dmul>
 8008a72:	a35d      	add	r3, pc, #372	; (adr r3, 8008be8 <__ieee754_pow+0xa20>)
 8008a74:	e9d3 2300 	ldrd	r2, r3, [r3]
 8008a78:	f7f7 fc06 	bl	8000288 <__aeabi_dsub>
 8008a7c:	4622      	mov	r2, r4
 8008a7e:	462b      	mov	r3, r5
 8008a80:	f7f7 fdba 	bl	80005f8 <__aeabi_dmul>
 8008a84:	a35a      	add	r3, pc, #360	; (adr r3, 8008bf0 <__ieee754_pow+0xa28>)
 8008a86:	e9d3 2300 	ldrd	r2, r3, [r3]
 8008a8a:	f7f7 fbff 	bl	800028c <__adddf3>
 8008a8e:	4622      	mov	r2, r4
 8008a90:	462b      	mov	r3, r5
 8008a92:	f7f7 fdb1 	bl	80005f8 <__aeabi_dmul>
 8008a96:	a358      	add	r3, pc, #352	; (adr r3, 8008bf8 <__ieee754_pow+0xa30>)
 8008a98:	e9d3 2300 	ldrd	r2, r3, [r3]
 8008a9c:	f7f7 fbf4 	bl	8000288 <__aeabi_dsub>
 8008aa0:	4622      	mov	r2, r4
 8008aa2:	462b      	mov	r3, r5
 8008aa4:	f7f7 fda8 	bl	80005f8 <__aeabi_dmul>
 8008aa8:	a355      	add	r3, pc, #340	; (adr r3, 8008c00 <__ieee754_pow+0xa38>)
 8008aaa:	e9d3 2300 	ldrd	r2, r3, [r3]
 8008aae:	f7f7 fbed 	bl	800028c <__adddf3>
 8008ab2:	4622      	mov	r2, r4
 8008ab4:	462b      	mov	r3, r5
 8008ab6:	f7f7 fd9f 	bl	80005f8 <__aeabi_dmul>
 8008aba:	4602      	mov	r2, r0
 8008abc:	460b      	mov	r3, r1
 8008abe:	4640      	mov	r0, r8
 8008ac0:	4649      	mov	r1, r9
 8008ac2:	f7f7 fbe1 	bl	8000288 <__aeabi_dsub>
 8008ac6:	4604      	mov	r4, r0
 8008ac8:	460d      	mov	r5, r1
 8008aca:	4602      	mov	r2, r0
 8008acc:	460b      	mov	r3, r1
 8008ace:	4640      	mov	r0, r8
 8008ad0:	4649      	mov	r1, r9
 8008ad2:	f7f7 fd91 	bl	80005f8 <__aeabi_dmul>
 8008ad6:	2200      	movs	r2, #0
 8008ad8:	ec41 0b19 	vmov	d9, r0, r1
 8008adc:	f04f 4380 	mov.w	r3, #1073741824	; 0x40000000
 8008ae0:	4620      	mov	r0, r4
 8008ae2:	4629      	mov	r1, r5
 8008ae4:	f7f7 fbd0 	bl	8000288 <__aeabi_dsub>
 8008ae8:	4602      	mov	r2, r0
 8008aea:	460b      	mov	r3, r1
 8008aec:	ec51 0b19 	vmov	r0, r1, d9
 8008af0:	f7f7 feac 	bl	800084c <__aeabi_ddiv>
 8008af4:	4632      	mov	r2, r6
 8008af6:	4604      	mov	r4, r0
 8008af8:	460d      	mov	r5, r1
 8008afa:	463b      	mov	r3, r7
 8008afc:	4640      	mov	r0, r8
 8008afe:	4649      	mov	r1, r9
 8008b00:	f7f7 fd7a 	bl	80005f8 <__aeabi_dmul>
 8008b04:	4632      	mov	r2, r6
 8008b06:	463b      	mov	r3, r7
 8008b08:	f7f7 fbc0 	bl	800028c <__adddf3>
 8008b0c:	4602      	mov	r2, r0
 8008b0e:	460b      	mov	r3, r1
 8008b10:	4620      	mov	r0, r4
 8008b12:	4629      	mov	r1, r5
 8008b14:	f7f7 fbb8 	bl	8000288 <__aeabi_dsub>
 8008b18:	4642      	mov	r2, r8
 8008b1a:	464b      	mov	r3, r9
 8008b1c:	f7f7 fbb4 	bl	8000288 <__aeabi_dsub>
 8008b20:	460b      	mov	r3, r1
 8008b22:	4602      	mov	r2, r0
 8008b24:	493a      	ldr	r1, [pc, #232]	; (8008c10 <__ieee754_pow+0xa48>)
 8008b26:	2000      	movs	r0, #0
 8008b28:	f7f7 fbae 	bl	8000288 <__aeabi_dsub>
 8008b2c:	ec41 0b10 	vmov	d0, r0, r1
 8008b30:	ee10 3a90 	vmov	r3, s1
 8008b34:	eb03 530a 	add.w	r3, r3, sl, lsl #20
 8008b38:	f5b3 1f80 	cmp.w	r3, #1048576	; 0x100000
 8008b3c:	da2b      	bge.n	8008b96 <__ieee754_pow+0x9ce>
 8008b3e:	4650      	mov	r0, sl
 8008b40:	f001 f8ce 	bl	8009ce0 <scalbn>
 8008b44:	ec51 0b10 	vmov	r0, r1, d0
 8008b48:	ec53 2b18 	vmov	r2, r3, d8
 8008b4c:	f7ff bbed 	b.w	800832a <__ieee754_pow+0x162>
 8008b50:	4b30      	ldr	r3, [pc, #192]	; (8008c14 <__ieee754_pow+0xa4c>)
 8008b52:	f021 4600 	bic.w	r6, r1, #2147483648	; 0x80000000
 8008b56:	429e      	cmp	r6, r3
 8008b58:	f77f af0c 	ble.w	8008974 <__ieee754_pow+0x7ac>
 8008b5c:	4b2e      	ldr	r3, [pc, #184]	; (8008c18 <__ieee754_pow+0xa50>)
 8008b5e:	440b      	add	r3, r1
 8008b60:	4303      	orrs	r3, r0
 8008b62:	d009      	beq.n	8008b78 <__ieee754_pow+0x9b0>
 8008b64:	ec51 0b18 	vmov	r0, r1, d8
 8008b68:	2200      	movs	r2, #0
 8008b6a:	2300      	movs	r3, #0
 8008b6c:	f7f7 ffb6 	bl	8000adc <__aeabi_dcmplt>
 8008b70:	3800      	subs	r0, #0
 8008b72:	bf18      	it	ne
 8008b74:	2001      	movne	r0, #1
 8008b76:	e447      	b.n	8008408 <__ieee754_pow+0x240>
 8008b78:	4622      	mov	r2, r4
 8008b7a:	462b      	mov	r3, r5
 8008b7c:	f7f7 fb84 	bl	8000288 <__aeabi_dsub>
 8008b80:	4642      	mov	r2, r8
 8008b82:	464b      	mov	r3, r9
 8008b84:	f7f7 ffbe 	bl	8000b04 <__aeabi_dcmpge>
 8008b88:	2800      	cmp	r0, #0
 8008b8a:	f43f aef3 	beq.w	8008974 <__ieee754_pow+0x7ac>
 8008b8e:	e7e9      	b.n	8008b64 <__ieee754_pow+0x99c>
 8008b90:	f04f 0a00 	mov.w	sl, #0
 8008b94:	e71a      	b.n	80089cc <__ieee754_pow+0x804>
 8008b96:	ec51 0b10 	vmov	r0, r1, d0
 8008b9a:	4619      	mov	r1, r3
 8008b9c:	e7d4      	b.n	8008b48 <__ieee754_pow+0x980>
 8008b9e:	491c      	ldr	r1, [pc, #112]	; (8008c10 <__ieee754_pow+0xa48>)
 8008ba0:	2000      	movs	r0, #0
 8008ba2:	f7ff bb30 	b.w	8008206 <__ieee754_pow+0x3e>
 8008ba6:	2000      	movs	r0, #0
 8008ba8:	2100      	movs	r1, #0
 8008baa:	f7ff bb2c 	b.w	8008206 <__ieee754_pow+0x3e>
 8008bae:	4630      	mov	r0, r6
 8008bb0:	4639      	mov	r1, r7
 8008bb2:	f7ff bb28 	b.w	8008206 <__ieee754_pow+0x3e>
 8008bb6:	9204      	str	r2, [sp, #16]
 8008bb8:	f7ff bb7a 	b.w	80082b0 <__ieee754_pow+0xe8>
 8008bbc:	2300      	movs	r3, #0
 8008bbe:	f7ff bb64 	b.w	800828a <__ieee754_pow+0xc2>
 8008bc2:	bf00      	nop
 8008bc4:	f3af 8000 	nop.w
 8008bc8:	00000000 	.word	0x00000000
 8008bcc:	3fe62e43 	.word	0x3fe62e43
 8008bd0:	fefa39ef 	.word	0xfefa39ef
 8008bd4:	3fe62e42 	.word	0x3fe62e42
 8008bd8:	0ca86c39 	.word	0x0ca86c39
 8008bdc:	be205c61 	.word	0xbe205c61
 8008be0:	72bea4d0 	.word	0x72bea4d0
 8008be4:	3e663769 	.word	0x3e663769
 8008be8:	c5d26bf1 	.word	0xc5d26bf1
 8008bec:	3ebbbd41 	.word	0x3ebbbd41
 8008bf0:	af25de2c 	.word	0xaf25de2c
 8008bf4:	3f11566a 	.word	0x3f11566a
 8008bf8:	16bebd93 	.word	0x16bebd93
 8008bfc:	3f66c16c 	.word	0x3f66c16c
 8008c00:	5555553e 	.word	0x5555553e
 8008c04:	3fc55555 	.word	0x3fc55555
 8008c08:	3fe00000 	.word	0x3fe00000
 8008c0c:	000fffff 	.word	0x000fffff
 8008c10:	3ff00000 	.word	0x3ff00000
 8008c14:	4090cbff 	.word	0x4090cbff
 8008c18:	3f6f3400 	.word	0x3f6f3400
 8008c1c:	652b82fe 	.word	0x652b82fe
 8008c20:	3c971547 	.word	0x3c971547
 8008c24:	00000000 	.word	0x00000000

08008c28 <__ieee754_rem_pio2>:
 8008c28:	e92d 4ff0 	stmdb	sp!, {r4, r5, r6, r7, r8, r9, sl, fp, lr}
 8008c2c:	ed2d 8b02 	vpush	{d8}
 8008c30:	ec55 4b10 	vmov	r4, r5, d0
 8008c34:	4bca      	ldr	r3, [pc, #808]	; (8008f60 <__ieee754_rem_pio2+0x338>)
 8008c36:	b08b      	sub	sp, #44	; 0x2c
 8008c38:	f025 4800 	bic.w	r8, r5, #2147483648	; 0x80000000
 8008c3c:	4598      	cmp	r8, r3
 8008c3e:	4682      	mov	sl, r0
 8008c40:	9502      	str	r5, [sp, #8]
 8008c42:	dc08      	bgt.n	8008c56 <__ieee754_rem_pio2+0x2e>
 8008c44:	2200      	movs	r2, #0
 8008c46:	2300      	movs	r3, #0
 8008c48:	ed80 0b00 	vstr	d0, [r0]
 8008c4c:	e9c0 2302 	strd	r2, r3, [r0, #8]
 8008c50:	f04f 0b00 	mov.w	fp, #0
 8008c54:	e028      	b.n	8008ca8 <__ieee754_rem_pio2+0x80>
 8008c56:	4bc3      	ldr	r3, [pc, #780]	; (8008f64 <__ieee754_rem_pio2+0x33c>)
 8008c58:	4598      	cmp	r8, r3
 8008c5a:	dc78      	bgt.n	8008d4e <__ieee754_rem_pio2+0x126>
 8008c5c:	9b02      	ldr	r3, [sp, #8]
 8008c5e:	4ec2      	ldr	r6, [pc, #776]	; (8008f68 <__ieee754_rem_pio2+0x340>)
 8008c60:	2b00      	cmp	r3, #0
 8008c62:	ee10 0a10 	vmov	r0, s0
 8008c66:	a3b0      	add	r3, pc, #704	; (adr r3, 8008f28 <__ieee754_rem_pio2+0x300>)
 8008c68:	e9d3 2300 	ldrd	r2, r3, [r3]
 8008c6c:	4629      	mov	r1, r5
 8008c6e:	dd39      	ble.n	8008ce4 <__ieee754_rem_pio2+0xbc>
 8008c70:	f7f7 fb0a 	bl	8000288 <__aeabi_dsub>
 8008c74:	45b0      	cmp	r8, r6
 8008c76:	4604      	mov	r4, r0
 8008c78:	460d      	mov	r5, r1
 8008c7a:	d01b      	beq.n	8008cb4 <__ieee754_rem_pio2+0x8c>
 8008c7c:	a3ac      	add	r3, pc, #688	; (adr r3, 8008f30 <__ieee754_rem_pio2+0x308>)
 8008c7e:	e9d3 2300 	ldrd	r2, r3, [r3]
 8008c82:	f7f7 fb01 	bl	8000288 <__aeabi_dsub>
 8008c86:	4602      	mov	r2, r0
 8008c88:	460b      	mov	r3, r1
 8008c8a:	e9ca 2300 	strd	r2, r3, [sl]
 8008c8e:	4620      	mov	r0, r4
 8008c90:	4629      	mov	r1, r5
 8008c92:	f7f7 faf9 	bl	8000288 <__aeabi_dsub>
 8008c96:	a3a6      	add	r3, pc, #664	; (adr r3, 8008f30 <__ieee754_rem_pio2+0x308>)
 8008c98:	e9d3 2300 	ldrd	r2, r3, [r3]
 8008c9c:	f7f7 faf4 	bl	8000288 <__aeabi_dsub>
 8008ca0:	e9ca 0102 	strd	r0, r1, [sl, #8]
 8008ca4:	f04f 0b01 	mov.w	fp, #1
 8008ca8:	4658      	mov	r0, fp
 8008caa:	b00b      	add	sp, #44	; 0x2c
 8008cac:	ecbd 8b02 	vpop	{d8}
 8008cb0:	e8bd 8ff0 	ldmia.w	sp!, {r4, r5, r6, r7, r8, r9, sl, fp, pc}
 8008cb4:	a3a0      	add	r3, pc, #640	; (adr r3, 8008f38 <__ieee754_rem_pio2+0x310>)
 8008cb6:	e9d3 2300 	ldrd	r2, r3, [r3]
 8008cba:	f7f7 fae5 	bl	8000288 <__aeabi_dsub>
 8008cbe:	a3a0      	add	r3, pc, #640	; (adr r3, 8008f40 <__ieee754_rem_pio2+0x318>)
 8008cc0:	e9d3 2300 	ldrd	r2, r3, [r3]
 8008cc4:	4604      	mov	r4, r0
 8008cc6:	460d      	mov	r5, r1
 8008cc8:	f7f7 fade 	bl	8000288 <__aeabi_dsub>
 8008ccc:	4602      	mov	r2, r0
 8008cce:	460b      	mov	r3, r1
 8008cd0:	e9ca 2300 	strd	r2, r3, [sl]
 8008cd4:	4620      	mov	r0, r4
 8008cd6:	4629      	mov	r1, r5
 8008cd8:	f7f7 fad6 	bl	8000288 <__aeabi_dsub>
 8008cdc:	a398      	add	r3, pc, #608	; (adr r3, 8008f40 <__ieee754_rem_pio2+0x318>)
 8008cde:	e9d3 2300 	ldrd	r2, r3, [r3]
 8008ce2:	e7db      	b.n	8008c9c <__ieee754_rem_pio2+0x74>
 8008ce4:	f7f7 fad2 	bl	800028c <__adddf3>
 8008ce8:	45b0      	cmp	r8, r6
 8008cea:	4604      	mov	r4, r0
 8008cec:	460d      	mov	r5, r1
 8008cee:	d016      	beq.n	8008d1e <__ieee754_rem_pio2+0xf6>
 8008cf0:	a38f      	add	r3, pc, #572	; (adr r3, 8008f30 <__ieee754_rem_pio2+0x308>)
 8008cf2:	e9d3 2300 	ldrd	r2, r3, [r3]
 8008cf6:	f7f7 fac9 	bl	800028c <__adddf3>
 8008cfa:	4602      	mov	r2, r0
 8008cfc:	460b      	mov	r3, r1
 8008cfe:	e9ca 2300 	strd	r2, r3, [sl]
 8008d02:	4620      	mov	r0, r4
 8008d04:	4629      	mov	r1, r5
 8008d06:	f7f7 fabf 	bl	8000288 <__aeabi_dsub>
 8008d0a:	a389      	add	r3, pc, #548	; (adr r3, 8008f30 <__ieee754_rem_pio2+0x308>)
 8008d0c:	e9d3 2300 	ldrd	r2, r3, [r3]
 8008d10:	f7f7 fabc 	bl	800028c <__adddf3>
 8008d14:	f04f 3bff 	mov.w	fp, #4294967295
 8008d18:	e9ca 0102 	strd	r0, r1, [sl, #8]
 8008d1c:	e7c4      	b.n	8008ca8 <__ieee754_rem_pio2+0x80>
 8008d1e:	a386      	add	r3, pc, #536	; (adr r3, 8008f38 <__ieee754_rem_pio2+0x310>)
 8008d20:	e9d3 2300 	ldrd	r2, r3, [r3]
 8008d24:	f7f7 fab2 	bl	800028c <__adddf3>
 8008d28:	a385      	add	r3, pc, #532	; (adr r3, 8008f40 <__ieee754_rem_pio2+0x318>)
 8008d2a:	e9d3 2300 	ldrd	r2, r3, [r3]
 8008d2e:	4604      	mov	r4, r0
 8008d30:	460d      	mov	r5, r1
 8008d32:	f7f7 faab 	bl	800028c <__adddf3>
 8008d36:	4602      	mov	r2, r0
 8008d38:	460b      	mov	r3, r1
 8008d3a:	e9ca 2300 	strd	r2, r3, [sl]
 8008d3e:	4620      	mov	r0, r4
 8008d40:	4629      	mov	r1, r5
 8008d42:	f7f7 faa1 	bl	8000288 <__aeabi_dsub>
 8008d46:	a37e      	add	r3, pc, #504	; (adr r3, 8008f40 <__ieee754_rem_pio2+0x318>)
 8008d48:	e9d3 2300 	ldrd	r2, r3, [r3]
 8008d4c:	e7e0      	b.n	8008d10 <__ieee754_rem_pio2+0xe8>
 8008d4e:	4b87      	ldr	r3, [pc, #540]	; (8008f6c <__ieee754_rem_pio2+0x344>)
 8008d50:	4598      	cmp	r8, r3
 8008d52:	f300 80d9 	bgt.w	8008f08 <__ieee754_rem_pio2+0x2e0>
 8008d56:	f000 ff2d 	bl	8009bb4 <fabs>
 8008d5a:	ec55 4b10 	vmov	r4, r5, d0
 8008d5e:	ee10 0a10 	vmov	r0, s0
 8008d62:	a379      	add	r3, pc, #484	; (adr r3, 8008f48 <__ieee754_rem_pio2+0x320>)
 8008d64:	e9d3 2300 	ldrd	r2, r3, [r3]
 8008d68:	4629      	mov	r1, r5
 8008d6a:	f7f7 fc45 	bl	80005f8 <__aeabi_dmul>
 8008d6e:	4b80      	ldr	r3, [pc, #512]	; (8008f70 <__ieee754_rem_pio2+0x348>)
 8008d70:	2200      	movs	r2, #0
 8008d72:	f7f7 fa8b 	bl	800028c <__adddf3>
 8008d76:	f7f7 feef 	bl	8000b58 <__aeabi_d2iz>
 8008d7a:	4683      	mov	fp, r0
 8008d7c:	f7f7 fbd2 	bl	8000524 <__aeabi_i2d>
 8008d80:	4602      	mov	r2, r0
 8008d82:	460b      	mov	r3, r1
 8008d84:	ec43 2b18 	vmov	d8, r2, r3
 8008d88:	a367      	add	r3, pc, #412	; (adr r3, 8008f28 <__ieee754_rem_pio2+0x300>)
 8008d8a:	e9d3 2300 	ldrd	r2, r3, [r3]
 8008d8e:	f7f7 fc33 	bl	80005f8 <__aeabi_dmul>
 8008d92:	4602      	mov	r2, r0
 8008d94:	460b      	mov	r3, r1
 8008d96:	4620      	mov	r0, r4
 8008d98:	4629      	mov	r1, r5
 8008d9a:	f7f7 fa75 	bl	8000288 <__aeabi_dsub>
 8008d9e:	a364      	add	r3, pc, #400	; (adr r3, 8008f30 <__ieee754_rem_pio2+0x308>)
 8008da0:	e9d3 2300 	ldrd	r2, r3, [r3]
 8008da4:	4606      	mov	r6, r0
 8008da6:	460f      	mov	r7, r1
 8008da8:	ec51 0b18 	vmov	r0, r1, d8
 8008dac:	f7f7 fc24 	bl	80005f8 <__aeabi_dmul>
 8008db0:	f1bb 0f1f 	cmp.w	fp, #31
 8008db4:	4604      	mov	r4, r0
 8008db6:	460d      	mov	r5, r1
 8008db8:	dc0d      	bgt.n	8008dd6 <__ieee754_rem_pio2+0x1ae>
 8008dba:	4b6e      	ldr	r3, [pc, #440]	; (8008f74 <__ieee754_rem_pio2+0x34c>)
 8008dbc:	f10b 32ff 	add.w	r2, fp, #4294967295
 8008dc0:	f853 3022 	ldr.w	r3, [r3, r2, lsl #2]
 8008dc4:	4543      	cmp	r3, r8
 8008dc6:	d006      	beq.n	8008dd6 <__ieee754_rem_pio2+0x1ae>
 8008dc8:	4622      	mov	r2, r4
 8008dca:	462b      	mov	r3, r5
 8008dcc:	4630      	mov	r0, r6
 8008dce:	4639      	mov	r1, r7
 8008dd0:	f7f7 fa5a 	bl	8000288 <__aeabi_dsub>
 8008dd4:	e00f      	b.n	8008df6 <__ieee754_rem_pio2+0x1ce>
 8008dd6:	462b      	mov	r3, r5
 8008dd8:	4622      	mov	r2, r4
 8008dda:	4630      	mov	r0, r6
 8008ddc:	4639      	mov	r1, r7
 8008dde:	f7f7 fa53 	bl	8000288 <__aeabi_dsub>
 8008de2:	ea4f 5328 	mov.w	r3, r8, asr #20
 8008de6:	9303      	str	r3, [sp, #12]
 8008de8:	f3c1 530a 	ubfx	r3, r1, #20, #11
 8008dec:	ebc3 5818 	rsb	r8, r3, r8, lsr #20
 8008df0:	f1b8 0f10 	cmp.w	r8, #16
 8008df4:	dc02      	bgt.n	8008dfc <__ieee754_rem_pio2+0x1d4>
 8008df6:	e9ca 0100 	strd	r0, r1, [sl]
 8008dfa:	e039      	b.n	8008e70 <__ieee754_rem_pio2+0x248>
 8008dfc:	a34e      	add	r3, pc, #312	; (adr r3, 8008f38 <__ieee754_rem_pio2+0x310>)
 8008dfe:	e9d3 2300 	ldrd	r2, r3, [r3]
 8008e02:	ec51 0b18 	vmov	r0, r1, d8
 8008e06:	f7f7 fbf7 	bl	80005f8 <__aeabi_dmul>
 8008e0a:	4604      	mov	r4, r0
 8008e0c:	460d      	mov	r5, r1
 8008e0e:	4602      	mov	r2, r0
 8008e10:	460b      	mov	r3, r1
 8008e12:	4630      	mov	r0, r6
 8008e14:	4639      	mov	r1, r7
 8008e16:	f7f7 fa37 	bl	8000288 <__aeabi_dsub>
 8008e1a:	4602      	mov	r2, r0
 8008e1c:	460b      	mov	r3, r1
 8008e1e:	4680      	mov	r8, r0
 8008e20:	4689      	mov	r9, r1
 8008e22:	4630      	mov	r0, r6
 8008e24:	4639      	mov	r1, r7
 8008e26:	f7f7 fa2f 	bl	8000288 <__aeabi_dsub>
 8008e2a:	4622      	mov	r2, r4
 8008e2c:	462b      	mov	r3, r5
 8008e2e:	f7f7 fa2b 	bl	8000288 <__aeabi_dsub>
 8008e32:	a343      	add	r3, pc, #268	; (adr r3, 8008f40 <__ieee754_rem_pio2+0x318>)
 8008e34:	e9d3 2300 	ldrd	r2, r3, [r3]
 8008e38:	4604      	mov	r4, r0
 8008e3a:	460d      	mov	r5, r1
 8008e3c:	ec51 0b18 	vmov	r0, r1, d8
 8008e40:	f7f7 fbda 	bl	80005f8 <__aeabi_dmul>
 8008e44:	4622      	mov	r2, r4
 8008e46:	462b      	mov	r3, r5
 8008e48:	f7f7 fa1e 	bl	8000288 <__aeabi_dsub>
 8008e4c:	4602      	mov	r2, r0
 8008e4e:	460b      	mov	r3, r1
 8008e50:	4604      	mov	r4, r0
 8008e52:	460d      	mov	r5, r1
 8008e54:	4640      	mov	r0, r8
 8008e56:	4649      	mov	r1, r9
 8008e58:	f7f7 fa16 	bl	8000288 <__aeabi_dsub>
 8008e5c:	9a03      	ldr	r2, [sp, #12]
 8008e5e:	f3c1 530a 	ubfx	r3, r1, #20, #11
 8008e62:	1ad3      	subs	r3, r2, r3
 8008e64:	2b31      	cmp	r3, #49	; 0x31
 8008e66:	dc24      	bgt.n	8008eb2 <__ieee754_rem_pio2+0x28a>
 8008e68:	e9ca 0100 	strd	r0, r1, [sl]
 8008e6c:	4646      	mov	r6, r8
 8008e6e:	464f      	mov	r7, r9
 8008e70:	e9da 8900 	ldrd	r8, r9, [sl]
 8008e74:	4630      	mov	r0, r6
 8008e76:	4642      	mov	r2, r8
 8008e78:	464b      	mov	r3, r9
 8008e7a:	4639      	mov	r1, r7
 8008e7c:	f7f7 fa04 	bl	8000288 <__aeabi_dsub>
 8008e80:	462b      	mov	r3, r5
 8008e82:	4622      	mov	r2, r4
 8008e84:	f7f7 fa00 	bl	8000288 <__aeabi_dsub>
 8008e88:	9b02      	ldr	r3, [sp, #8]
 8008e8a:	2b00      	cmp	r3, #0
 8008e8c:	e9ca 0102 	strd	r0, r1, [sl, #8]
 8008e90:	f6bf af0a 	bge.w	8008ca8 <__ieee754_rem_pio2+0x80>
 8008e94:	f109 4300 	add.w	r3, r9, #2147483648	; 0x80000000
 8008e98:	f8ca 3004 	str.w	r3, [sl, #4]
 8008e9c:	f101 4300 	add.w	r3, r1, #2147483648	; 0x80000000
 8008ea0:	f8ca 8000 	str.w	r8, [sl]
 8008ea4:	f8ca 0008 	str.w	r0, [sl, #8]
 8008ea8:	f8ca 300c 	str.w	r3, [sl, #12]
 8008eac:	f1cb 0b00 	rsb	fp, fp, #0
 8008eb0:	e6fa      	b.n	8008ca8 <__ieee754_rem_pio2+0x80>
 8008eb2:	a327      	add	r3, pc, #156	; (adr r3, 8008f50 <__ieee754_rem_pio2+0x328>)
 8008eb4:	e9d3 2300 	ldrd	r2, r3, [r3]
 8008eb8:	ec51 0b18 	vmov	r0, r1, d8
 8008ebc:	f7f7 fb9c 	bl	80005f8 <__aeabi_dmul>
 8008ec0:	4604      	mov	r4, r0
 8008ec2:	460d      	mov	r5, r1
 8008ec4:	4602      	mov	r2, r0
 8008ec6:	460b      	mov	r3, r1
 8008ec8:	4640      	mov	r0, r8
 8008eca:	4649      	mov	r1, r9
 8008ecc:	f7f7 f9dc 	bl	8000288 <__aeabi_dsub>
 8008ed0:	4602      	mov	r2, r0
 8008ed2:	460b      	mov	r3, r1
 8008ed4:	4606      	mov	r6, r0
 8008ed6:	460f      	mov	r7, r1
 8008ed8:	4640      	mov	r0, r8
 8008eda:	4649      	mov	r1, r9
 8008edc:	f7f7 f9d4 	bl	8000288 <__aeabi_dsub>
 8008ee0:	4622      	mov	r2, r4
 8008ee2:	462b      	mov	r3, r5
 8008ee4:	f7f7 f9d0 	bl	8000288 <__aeabi_dsub>
 8008ee8:	a31b      	add	r3, pc, #108	; (adr r3, 8008f58 <__ieee754_rem_pio2+0x330>)
 8008eea:	e9d3 2300 	ldrd	r2, r3, [r3]
 8008eee:	4604      	mov	r4, r0
 8008ef0:	460d      	mov	r5, r1
 8008ef2:	ec51 0b18 	vmov	r0, r1, d8
 8008ef6:	f7f7 fb7f 	bl	80005f8 <__aeabi_dmul>
 8008efa:	4622      	mov	r2, r4
 8008efc:	462b      	mov	r3, r5
 8008efe:	f7f7 f9c3 	bl	8000288 <__aeabi_dsub>
 8008f02:	4604      	mov	r4, r0
 8008f04:	460d      	mov	r5, r1
 8008f06:	e75f      	b.n	8008dc8 <__ieee754_rem_pio2+0x1a0>
 8008f08:	4b1b      	ldr	r3, [pc, #108]	; (8008f78 <__ieee754_rem_pio2+0x350>)
 8008f0a:	4598      	cmp	r8, r3
 8008f0c:	dd36      	ble.n	8008f7c <__ieee754_rem_pio2+0x354>
 8008f0e:	ee10 2a10 	vmov	r2, s0
 8008f12:	462b      	mov	r3, r5
 8008f14:	4620      	mov	r0, r4
 8008f16:	4629      	mov	r1, r5
 8008f18:	f7f7 f9b6 	bl	8000288 <__aeabi_dsub>
 8008f1c:	e9ca 0102 	strd	r0, r1, [sl, #8]
 8008f20:	e9ca 0100 	strd	r0, r1, [sl]
 8008f24:	e694      	b.n	8008c50 <__ieee754_rem_pio2+0x28>
 8008f26:	bf00      	nop
 8008f28:	54400000 	.word	0x54400000
 8008f2c:	3ff921fb 	.word	0x3ff921fb
 8008f30:	1a626331 	.word	0x1a626331
 8008f34:	3dd0b461 	.word	0x3dd0b461
 8008f38:	1a600000 	.word	0x1a600000
 8008f3c:	3dd0b461 	.word	0x3dd0b461
 8008f40:	2e037073 	.word	0x2e037073
 8008f44:	3ba3198a 	.word	0x3ba3198a
 8008f48:	6dc9c883 	.word	0x6dc9c883
 8008f4c:	3fe45f30 	.word	0x3fe45f30
 8008f50:	2e000000 	.word	0x2e000000
 8008f54:	3ba3198a 	.word	0x3ba3198a
 8008f58:	252049c1 	.word	0x252049c1
 8008f5c:	397b839a 	.word	0x397b839a
 8008f60:	3fe921fb 	.word	0x3fe921fb
 8008f64:	4002d97b 	.word	0x4002d97b
 8008f68:	3ff921fb 	.word	0x3ff921fb
 8008f6c:	413921fb 	.word	0x413921fb
 8008f70:	3fe00000 	.word	0x3fe00000
 8008f74:	0800ca68 	.word	0x0800ca68
 8008f78:	7fefffff 	.word	0x7fefffff
 8008f7c:	ea4f 5428 	mov.w	r4, r8, asr #20
 8008f80:	f2a4 4416 	subw	r4, r4, #1046	; 0x416
 8008f84:	ee10 0a10 	vmov	r0, s0
 8008f88:	eba8 5104 	sub.w	r1, r8, r4, lsl #20
 8008f8c:	ee10 6a10 	vmov	r6, s0
 8008f90:	460f      	mov	r7, r1
 8008f92:	f7f7 fde1 	bl	8000b58 <__aeabi_d2iz>
 8008f96:	f7f7 fac5 	bl	8000524 <__aeabi_i2d>
 8008f9a:	4602      	mov	r2, r0
 8008f9c:	460b      	mov	r3, r1
 8008f9e:	4630      	mov	r0, r6
 8008fa0:	4639      	mov	r1, r7
 8008fa2:	e9cd 2304 	strd	r2, r3, [sp, #16]
 8008fa6:	f7f7 f96f 	bl	8000288 <__aeabi_dsub>
 8008faa:	4b23      	ldr	r3, [pc, #140]	; (8009038 <__ieee754_rem_pio2+0x410>)
 8008fac:	2200      	movs	r2, #0
 8008fae:	f7f7 fb23 	bl	80005f8 <__aeabi_dmul>
 8008fb2:	460f      	mov	r7, r1
 8008fb4:	4606      	mov	r6, r0
 8008fb6:	f7f7 fdcf 	bl	8000b58 <__aeabi_d2iz>
 8008fba:	f7f7 fab3 	bl	8000524 <__aeabi_i2d>
 8008fbe:	4602      	mov	r2, r0
 8008fc0:	460b      	mov	r3, r1
 8008fc2:	4630      	mov	r0, r6
 8008fc4:	4639      	mov	r1, r7
 8008fc6:	e9cd 2306 	strd	r2, r3, [sp, #24]
 8008fca:	f7f7 f95d 	bl	8000288 <__aeabi_dsub>
 8008fce:	4b1a      	ldr	r3, [pc, #104]	; (8009038 <__ieee754_rem_pio2+0x410>)
 8008fd0:	2200      	movs	r2, #0
 8008fd2:	f7f7 fb11 	bl	80005f8 <__aeabi_dmul>
 8008fd6:	e9cd 0108 	strd	r0, r1, [sp, #32]
 8008fda:	ad04      	add	r5, sp, #16
 8008fdc:	f04f 0803 	mov.w	r8, #3
 8008fe0:	46a9      	mov	r9, r5
 8008fe2:	2600      	movs	r6, #0
 8008fe4:	2700      	movs	r7, #0
 8008fe6:	4632      	mov	r2, r6
 8008fe8:	463b      	mov	r3, r7
 8008fea:	e9d5 0104 	ldrd	r0, r1, [r5, #16]
 8008fee:	46c3      	mov	fp, r8
 8008ff0:	3d08      	subs	r5, #8
 8008ff2:	f108 38ff 	add.w	r8, r8, #4294967295
 8008ff6:	f7f7 fd67 	bl	8000ac8 <__aeabi_dcmpeq>
 8008ffa:	2800      	cmp	r0, #0
 8008ffc:	d1f3      	bne.n	8008fe6 <__ieee754_rem_pio2+0x3be>
 8008ffe:	4b0f      	ldr	r3, [pc, #60]	; (800903c <__ieee754_rem_pio2+0x414>)
 8009000:	9301      	str	r3, [sp, #4]
 8009002:	2302      	movs	r3, #2
 8009004:	9300      	str	r3, [sp, #0]
 8009006:	4622      	mov	r2, r4
 8009008:	465b      	mov	r3, fp
 800900a:	4651      	mov	r1, sl
 800900c:	4648      	mov	r0, r9
 800900e:	f000 f993 	bl	8009338 <__kernel_rem_pio2>
 8009012:	9b02      	ldr	r3, [sp, #8]
 8009014:	2b00      	cmp	r3, #0
 8009016:	4683      	mov	fp, r0
 8009018:	f6bf ae46 	bge.w	8008ca8 <__ieee754_rem_pio2+0x80>
 800901c:	e9da 2100 	ldrd	r2, r1, [sl]
 8009020:	f101 4300 	add.w	r3, r1, #2147483648	; 0x80000000
 8009024:	e9ca 2300 	strd	r2, r3, [sl]
 8009028:	e9da 2102 	ldrd	r2, r1, [sl, #8]
 800902c:	f101 4300 	add.w	r3, r1, #2147483648	; 0x80000000
 8009030:	e9ca 2302 	strd	r2, r3, [sl, #8]
 8009034:	e73a      	b.n	8008eac <__ieee754_rem_pio2+0x284>
 8009036:	bf00      	nop
 8009038:	41700000 	.word	0x41700000
 800903c:	0800cae8 	.word	0x0800cae8

08009040 <__ieee754_sqrt>:
 8009040:	e92d 41f0 	stmdb	sp!, {r4, r5, r6, r7, r8, lr}
 8009044:	ec55 4b10 	vmov	r4, r5, d0
 8009048:	4e55      	ldr	r6, [pc, #340]	; (80091a0 <__ieee754_sqrt+0x160>)
 800904a:	43ae      	bics	r6, r5
 800904c:	ee10 0a10 	vmov	r0, s0
 8009050:	ee10 3a10 	vmov	r3, s0
 8009054:	462a      	mov	r2, r5
 8009056:	4629      	mov	r1, r5
 8009058:	d110      	bne.n	800907c <__ieee754_sqrt+0x3c>
 800905a:	ee10 2a10 	vmov	r2, s0
 800905e:	462b      	mov	r3, r5
 8009060:	f7f7 faca 	bl	80005f8 <__aeabi_dmul>
 8009064:	4602      	mov	r2, r0
 8009066:	460b      	mov	r3, r1
 8009068:	4620      	mov	r0, r4
 800906a:	4629      	mov	r1, r5
 800906c:	f7f7 f90e 	bl	800028c <__adddf3>
 8009070:	4604      	mov	r4, r0
 8009072:	460d      	mov	r5, r1
 8009074:	ec45 4b10 	vmov	d0, r4, r5
 8009078:	e8bd 81f0 	ldmia.w	sp!, {r4, r5, r6, r7, r8, pc}
 800907c:	2d00      	cmp	r5, #0
 800907e:	dc10      	bgt.n	80090a2 <__ieee754_sqrt+0x62>
 8009080:	f025 4600 	bic.w	r6, r5, #2147483648	; 0x80000000
 8009084:	4330      	orrs	r0, r6
 8009086:	d0f5      	beq.n	8009074 <__ieee754_sqrt+0x34>
 8009088:	b15d      	cbz	r5, 80090a2 <__ieee754_sqrt+0x62>
 800908a:	ee10 2a10 	vmov	r2, s0
 800908e:	462b      	mov	r3, r5
 8009090:	ee10 0a10 	vmov	r0, s0
 8009094:	f7f7 f8f8 	bl	8000288 <__aeabi_dsub>
 8009098:	4602      	mov	r2, r0
 800909a:	460b      	mov	r3, r1
 800909c:	f7f7 fbd6 	bl	800084c <__aeabi_ddiv>
 80090a0:	e7e6      	b.n	8009070 <__ieee754_sqrt+0x30>
 80090a2:	1512      	asrs	r2, r2, #20
 80090a4:	d074      	beq.n	8009190 <__ieee754_sqrt+0x150>
 80090a6:	07d4      	lsls	r4, r2, #31
 80090a8:	f3c1 0113 	ubfx	r1, r1, #0, #20
 80090ac:	f2a2 37ff 	subw	r7, r2, #1023	; 0x3ff
 80090b0:	f441 1180 	orr.w	r1, r1, #1048576	; 0x100000
 80090b4:	bf5e      	ittt	pl
 80090b6:	0fda      	lsrpl	r2, r3, #31
 80090b8:	005b      	lslpl	r3, r3, #1
 80090ba:	eb02 0141 	addpl.w	r1, r2, r1, lsl #1
 80090be:	2400      	movs	r4, #0
 80090c0:	0fda      	lsrs	r2, r3, #31
 80090c2:	eb02 0141 	add.w	r1, r2, r1, lsl #1
 80090c6:	107f      	asrs	r7, r7, #1
 80090c8:	005b      	lsls	r3, r3, #1
 80090ca:	2516      	movs	r5, #22
 80090cc:	4620      	mov	r0, r4
 80090ce:	f44f 1200 	mov.w	r2, #2097152	; 0x200000
 80090d2:	1886      	adds	r6, r0, r2
 80090d4:	428e      	cmp	r6, r1
 80090d6:	bfde      	ittt	le
 80090d8:	1b89      	suble	r1, r1, r6
 80090da:	18b0      	addle	r0, r6, r2
 80090dc:	18a4      	addle	r4, r4, r2
 80090de:	0049      	lsls	r1, r1, #1
 80090e0:	3d01      	subs	r5, #1
 80090e2:	eb01 71d3 	add.w	r1, r1, r3, lsr #31
 80090e6:	ea4f 0252 	mov.w	r2, r2, lsr #1
 80090ea:	ea4f 0343 	mov.w	r3, r3, lsl #1
 80090ee:	d1f0      	bne.n	80090d2 <__ieee754_sqrt+0x92>
 80090f0:	462a      	mov	r2, r5
 80090f2:	f04f 0e20 	mov.w	lr, #32
 80090f6:	f04f 4600 	mov.w	r6, #2147483648	; 0x80000000
 80090fa:	4281      	cmp	r1, r0
 80090fc:	eb06 0c05 	add.w	ip, r6, r5
 8009100:	dc02      	bgt.n	8009108 <__ieee754_sqrt+0xc8>
 8009102:	d113      	bne.n	800912c <__ieee754_sqrt+0xec>
 8009104:	459c      	cmp	ip, r3
 8009106:	d811      	bhi.n	800912c <__ieee754_sqrt+0xec>
 8009108:	f1bc 0f00 	cmp.w	ip, #0
 800910c:	eb0c 0506 	add.w	r5, ip, r6
 8009110:	da43      	bge.n	800919a <__ieee754_sqrt+0x15a>
 8009112:	2d00      	cmp	r5, #0
 8009114:	db41      	blt.n	800919a <__ieee754_sqrt+0x15a>
 8009116:	f100 0801 	add.w	r8, r0, #1
 800911a:	1a09      	subs	r1, r1, r0
 800911c:	459c      	cmp	ip, r3
 800911e:	bf88      	it	hi
 8009120:	f101 31ff 	addhi.w	r1, r1, #4294967295
 8009124:	eba3 030c 	sub.w	r3, r3, ip
 8009128:	4432      	add	r2, r6
 800912a:	4640      	mov	r0, r8
 800912c:	ea4f 7cd3 	mov.w	ip, r3, lsr #31
 8009130:	f1be 0e01 	subs.w	lr, lr, #1
 8009134:	eb0c 0141 	add.w	r1, ip, r1, lsl #1
 8009138:	ea4f 0343 	mov.w	r3, r3, lsl #1
 800913c:	ea4f 0656 	mov.w	r6, r6, lsr #1
 8009140:	d1db      	bne.n	80090fa <__ieee754_sqrt+0xba>
 8009142:	430b      	orrs	r3, r1
 8009144:	d006      	beq.n	8009154 <__ieee754_sqrt+0x114>
 8009146:	1c50      	adds	r0, r2, #1
 8009148:	bf13      	iteet	ne
 800914a:	3201      	addne	r2, #1
 800914c:	3401      	addeq	r4, #1
 800914e:	4672      	moveq	r2, lr
 8009150:	f022 0201 	bicne.w	r2, r2, #1
 8009154:	1063      	asrs	r3, r4, #1
 8009156:	0852      	lsrs	r2, r2, #1
 8009158:	07e1      	lsls	r1, r4, #31
 800915a:	f103 537f 	add.w	r3, r3, #1069547520	; 0x3fc00000
 800915e:	f503 1300 	add.w	r3, r3, #2097152	; 0x200000
 8009162:	bf48      	it	mi
 8009164:	f042 4200 	orrmi.w	r2, r2, #2147483648	; 0x80000000
 8009168:	eb03 5507 	add.w	r5, r3, r7, lsl #20
 800916c:	4614      	mov	r4, r2
 800916e:	e781      	b.n	8009074 <__ieee754_sqrt+0x34>
 8009170:	0ad9      	lsrs	r1, r3, #11
 8009172:	3815      	subs	r0, #21
 8009174:	055b      	lsls	r3, r3, #21
 8009176:	2900      	cmp	r1, #0
 8009178:	d0fa      	beq.n	8009170 <__ieee754_sqrt+0x130>
 800917a:	02cd      	lsls	r5, r1, #11
 800917c:	d50a      	bpl.n	8009194 <__ieee754_sqrt+0x154>
 800917e:	f1c2 0420 	rsb	r4, r2, #32
 8009182:	fa23 f404 	lsr.w	r4, r3, r4
 8009186:	1e55      	subs	r5, r2, #1
 8009188:	4093      	lsls	r3, r2
 800918a:	4321      	orrs	r1, r4
 800918c:	1b42      	subs	r2, r0, r5
 800918e:	e78a      	b.n	80090a6 <__ieee754_sqrt+0x66>
 8009190:	4610      	mov	r0, r2
 8009192:	e7f0      	b.n	8009176 <__ieee754_sqrt+0x136>
 8009194:	0049      	lsls	r1, r1, #1
 8009196:	3201      	adds	r2, #1
 8009198:	e7ef      	b.n	800917a <__ieee754_sqrt+0x13a>
 800919a:	4680      	mov	r8, r0
 800919c:	e7bd      	b.n	800911a <__ieee754_sqrt+0xda>
 800919e:	bf00      	nop
 80091a0:	7ff00000 	.word	0x7ff00000
 80091a4:	00000000 	.word	0x00000000

080091a8 <__kernel_cos>:
 80091a8:	e92d 4ff7 	stmdb	sp!, {r0, r1, r2, r4, r5, r6, r7, r8, r9, sl, fp, lr}
 80091ac:	ec57 6b10 	vmov	r6, r7, d0
 80091b0:	f027 4800 	bic.w	r8, r7, #2147483648	; 0x80000000
 80091b4:	f1b8 5f79 	cmp.w	r8, #1044381696	; 0x3e400000
 80091b8:	ed8d 1b00 	vstr	d1, [sp]
 80091bc:	da07      	bge.n	80091ce <__kernel_cos+0x26>
 80091be:	ee10 0a10 	vmov	r0, s0
 80091c2:	4639      	mov	r1, r7
 80091c4:	f7f7 fcc8 	bl	8000b58 <__aeabi_d2iz>
 80091c8:	2800      	cmp	r0, #0
 80091ca:	f000 8088 	beq.w	80092de <__kernel_cos+0x136>
 80091ce:	4632      	mov	r2, r6
 80091d0:	463b      	mov	r3, r7
 80091d2:	4630      	mov	r0, r6
 80091d4:	4639      	mov	r1, r7
 80091d6:	f7f7 fa0f 	bl	80005f8 <__aeabi_dmul>
 80091da:	4b51      	ldr	r3, [pc, #324]	; (8009320 <__kernel_cos+0x178>)
 80091dc:	2200      	movs	r2, #0
 80091de:	4604      	mov	r4, r0
 80091e0:	460d      	mov	r5, r1
 80091e2:	f7f7 fa09 	bl	80005f8 <__aeabi_dmul>
 80091e6:	a340      	add	r3, pc, #256	; (adr r3, 80092e8 <__kernel_cos+0x140>)
 80091e8:	e9d3 2300 	ldrd	r2, r3, [r3]
 80091ec:	4682      	mov	sl, r0
 80091ee:	468b      	mov	fp, r1
 80091f0:	4620      	mov	r0, r4
 80091f2:	4629      	mov	r1, r5
 80091f4:	f7f7 fa00 	bl	80005f8 <__aeabi_dmul>
 80091f8:	a33d      	add	r3, pc, #244	; (adr r3, 80092f0 <__kernel_cos+0x148>)
 80091fa:	e9d3 2300 	ldrd	r2, r3, [r3]
 80091fe:	f7f7 f845 	bl	800028c <__adddf3>
 8009202:	4622      	mov	r2, r4
 8009204:	462b      	mov	r3, r5
 8009206:	f7f7 f9f7 	bl	80005f8 <__aeabi_dmul>
 800920a:	a33b      	add	r3, pc, #236	; (adr r3, 80092f8 <__kernel_cos+0x150>)
 800920c:	e9d3 2300 	ldrd	r2, r3, [r3]
 8009210:	f7f7 f83a 	bl	8000288 <__aeabi_dsub>
 8009214:	4622      	mov	r2, r4
 8009216:	462b      	mov	r3, r5
 8009218:	f7f7 f9ee 	bl	80005f8 <__aeabi_dmul>
 800921c:	a338      	add	r3, pc, #224	; (adr r3, 8009300 <__kernel_cos+0x158>)
 800921e:	e9d3 2300 	ldrd	r2, r3, [r3]
 8009222:	f7f7 f833 	bl	800028c <__adddf3>
 8009226:	4622      	mov	r2, r4
 8009228:	462b      	mov	r3, r5
 800922a:	f7f7 f9e5 	bl	80005f8 <__aeabi_dmul>
 800922e:	a336      	add	r3, pc, #216	; (adr r3, 8009308 <__kernel_cos+0x160>)
 8009230:	e9d3 2300 	ldrd	r2, r3, [r3]
 8009234:	f7f7 f828 	bl	8000288 <__aeabi_dsub>
 8009238:	4622      	mov	r2, r4
 800923a:	462b      	mov	r3, r5
 800923c:	f7f7 f9dc 	bl	80005f8 <__aeabi_dmul>
 8009240:	a333      	add	r3, pc, #204	; (adr r3, 8009310 <__kernel_cos+0x168>)
 8009242:	e9d3 2300 	ldrd	r2, r3, [r3]
 8009246:	f7f7 f821 	bl	800028c <__adddf3>
 800924a:	4622      	mov	r2, r4
 800924c:	462b      	mov	r3, r5
 800924e:	f7f7 f9d3 	bl	80005f8 <__aeabi_dmul>
 8009252:	4622      	mov	r2, r4
 8009254:	462b      	mov	r3, r5
 8009256:	f7f7 f9cf 	bl	80005f8 <__aeabi_dmul>
 800925a:	e9dd 2300 	ldrd	r2, r3, [sp]
 800925e:	4604      	mov	r4, r0
 8009260:	460d      	mov	r5, r1
 8009262:	4630      	mov	r0, r6
 8009264:	4639      	mov	r1, r7
 8009266:	f7f7 f9c7 	bl	80005f8 <__aeabi_dmul>
 800926a:	460b      	mov	r3, r1
 800926c:	4602      	mov	r2, r0
 800926e:	4629      	mov	r1, r5
 8009270:	4620      	mov	r0, r4
 8009272:	f7f7 f809 	bl	8000288 <__aeabi_dsub>
 8009276:	4b2b      	ldr	r3, [pc, #172]	; (8009324 <__kernel_cos+0x17c>)
 8009278:	4598      	cmp	r8, r3
 800927a:	4606      	mov	r6, r0
 800927c:	460f      	mov	r7, r1
 800927e:	dc10      	bgt.n	80092a2 <__kernel_cos+0xfa>
 8009280:	4602      	mov	r2, r0
 8009282:	460b      	mov	r3, r1
 8009284:	4650      	mov	r0, sl
 8009286:	4659      	mov	r1, fp
 8009288:	f7f6 fffe 	bl	8000288 <__aeabi_dsub>
 800928c:	460b      	mov	r3, r1
 800928e:	4926      	ldr	r1, [pc, #152]	; (8009328 <__kernel_cos+0x180>)
 8009290:	4602      	mov	r2, r0
 8009292:	2000      	movs	r0, #0
 8009294:	f7f6 fff8 	bl	8000288 <__aeabi_dsub>
 8009298:	ec41 0b10 	vmov	d0, r0, r1
 800929c:	b003      	add	sp, #12
 800929e:	e8bd 8ff0 	ldmia.w	sp!, {r4, r5, r6, r7, r8, r9, sl, fp, pc}
 80092a2:	4b22      	ldr	r3, [pc, #136]	; (800932c <__kernel_cos+0x184>)
 80092a4:	4920      	ldr	r1, [pc, #128]	; (8009328 <__kernel_cos+0x180>)
 80092a6:	4598      	cmp	r8, r3
 80092a8:	bfcc      	ite	gt
 80092aa:	4d21      	ldrgt	r5, [pc, #132]	; (8009330 <__kernel_cos+0x188>)
 80092ac:	f5a8 1500 	suble.w	r5, r8, #2097152	; 0x200000
 80092b0:	2400      	movs	r4, #0
 80092b2:	4622      	mov	r2, r4
 80092b4:	462b      	mov	r3, r5
 80092b6:	2000      	movs	r0, #0
 80092b8:	f7f6 ffe6 	bl	8000288 <__aeabi_dsub>
 80092bc:	4622      	mov	r2, r4
 80092be:	4680      	mov	r8, r0
 80092c0:	4689      	mov	r9, r1
 80092c2:	462b      	mov	r3, r5
 80092c4:	4650      	mov	r0, sl
 80092c6:	4659      	mov	r1, fp
 80092c8:	f7f6 ffde 	bl	8000288 <__aeabi_dsub>
 80092cc:	4632      	mov	r2, r6
 80092ce:	463b      	mov	r3, r7
 80092d0:	f7f6 ffda 	bl	8000288 <__aeabi_dsub>
 80092d4:	4602      	mov	r2, r0
 80092d6:	460b      	mov	r3, r1
 80092d8:	4640      	mov	r0, r8
 80092da:	4649      	mov	r1, r9
 80092dc:	e7da      	b.n	8009294 <__kernel_cos+0xec>
 80092de:	ed9f 0b0e 	vldr	d0, [pc, #56]	; 8009318 <__kernel_cos+0x170>
 80092e2:	e7db      	b.n	800929c <__kernel_cos+0xf4>
 80092e4:	f3af 8000 	nop.w
 80092e8:	be8838d4 	.word	0xbe8838d4
 80092ec:	bda8fae9 	.word	0xbda8fae9
 80092f0:	bdb4b1c4 	.word	0xbdb4b1c4
 80092f4:	3e21ee9e 	.word	0x3e21ee9e
 80092f8:	809c52ad 	.word	0x809c52ad
 80092fc:	3e927e4f 	.word	0x3e927e4f
 8009300:	19cb1590 	.word	0x19cb1590
 8009304:	3efa01a0 	.word	0x3efa01a0
 8009308:	16c15177 	.word	0x16c15177
 800930c:	3f56c16c 	.word	0x3f56c16c
 8009310:	5555554c 	.word	0x5555554c
 8009314:	3fa55555 	.word	0x3fa55555
 8009318:	00000000 	.word	0x00000000
 800931c:	3ff00000 	.word	0x3ff00000
 8009320:	3fe00000 	.word	0x3fe00000
 8009324:	3fd33332 	.word	0x3fd33332
 8009328:	3ff00000 	.word	0x3ff00000
 800932c:	3fe90000 	.word	0x3fe90000
 8009330:	3fd20000 	.word	0x3fd20000
 8009334:	00000000 	.word	0x00000000

08009338 <__kernel_rem_pio2>:
 8009338:	e92d 4ff0 	stmdb	sp!, {r4, r5, r6, r7, r8, r9, sl, fp, lr}
 800933c:	ed2d 8b02 	vpush	{d8}
 8009340:	f5ad 7d1b 	sub.w	sp, sp, #620	; 0x26c
 8009344:	f112 0f14 	cmn.w	r2, #20
 8009348:	9308      	str	r3, [sp, #32]
 800934a:	9101      	str	r1, [sp, #4]
 800934c:	4bc4      	ldr	r3, [pc, #784]	; (8009660 <__kernel_rem_pio2+0x328>)
 800934e:	99a6      	ldr	r1, [sp, #664]	; 0x298
 8009350:	900b      	str	r0, [sp, #44]	; 0x2c
 8009352:	f853 3021 	ldr.w	r3, [r3, r1, lsl #2]
 8009356:	9302      	str	r3, [sp, #8]
 8009358:	9b08      	ldr	r3, [sp, #32]
 800935a:	f103 33ff 	add.w	r3, r3, #4294967295
 800935e:	bfa8      	it	ge
 8009360:	1ed4      	subge	r4, r2, #3
 8009362:	9306      	str	r3, [sp, #24]
 8009364:	bfb2      	itee	lt
 8009366:	2400      	movlt	r4, #0
 8009368:	2318      	movge	r3, #24
 800936a:	fb94 f4f3 	sdivge	r4, r4, r3
 800936e:	f06f 0317 	mvn.w	r3, #23
 8009372:	fb04 3303 	mla	r3, r4, r3, r3
 8009376:	eb03 0a02 	add.w	sl, r3, r2
 800937a:	9b02      	ldr	r3, [sp, #8]
 800937c:	9a06      	ldr	r2, [sp, #24]
 800937e:	ed9f 8bb4 	vldr	d8, [pc, #720]	; 8009650 <__kernel_rem_pio2+0x318>
 8009382:	eb03 0802 	add.w	r8, r3, r2
 8009386:	9ba7      	ldr	r3, [sp, #668]	; 0x29c
 8009388:	1aa7      	subs	r7, r4, r2
 800938a:	ae22      	add	r6, sp, #136	; 0x88
 800938c:	eb03 0987 	add.w	r9, r3, r7, lsl #2
 8009390:	2500      	movs	r5, #0
 8009392:	4545      	cmp	r5, r8
 8009394:	dd13      	ble.n	80093be <__kernel_rem_pio2+0x86>
 8009396:	9b08      	ldr	r3, [sp, #32]
 8009398:	ed9f 8bad 	vldr	d8, [pc, #692]	; 8009650 <__kernel_rem_pio2+0x318>
 800939c:	aa22      	add	r2, sp, #136	; 0x88
 800939e:	eb02 05c3 	add.w	r5, r2, r3, lsl #3
 80093a2:	f50d 7be4 	add.w	fp, sp, #456	; 0x1c8
 80093a6:	f04f 0800 	mov.w	r8, #0
 80093aa:	9b02      	ldr	r3, [sp, #8]
 80093ac:	4598      	cmp	r8, r3
 80093ae:	dc2f      	bgt.n	8009410 <__kernel_rem_pio2+0xd8>
 80093b0:	ed8d 8b04 	vstr	d8, [sp, #16]
 80093b4:	f8dd 902c 	ldr.w	r9, [sp, #44]	; 0x2c
 80093b8:	462f      	mov	r7, r5
 80093ba:	2600      	movs	r6, #0
 80093bc:	e01b      	b.n	80093f6 <__kernel_rem_pio2+0xbe>
 80093be:	42ef      	cmn	r7, r5
 80093c0:	d407      	bmi.n	80093d2 <__kernel_rem_pio2+0x9a>
 80093c2:	f859 0025 	ldr.w	r0, [r9, r5, lsl #2]
 80093c6:	f7f7 f8ad 	bl	8000524 <__aeabi_i2d>
 80093ca:	e8e6 0102 	strd	r0, r1, [r6], #8
 80093ce:	3501      	adds	r5, #1
 80093d0:	e7df      	b.n	8009392 <__kernel_rem_pio2+0x5a>
 80093d2:	ec51 0b18 	vmov	r0, r1, d8
 80093d6:	e7f8      	b.n	80093ca <__kernel_rem_pio2+0x92>
 80093d8:	e9d7 2300 	ldrd	r2, r3, [r7]
 80093dc:	e8f9 0102 	ldrd	r0, r1, [r9], #8
 80093e0:	f7f7 f90a 	bl	80005f8 <__aeabi_dmul>
 80093e4:	4602      	mov	r2, r0
 80093e6:	460b      	mov	r3, r1
 80093e8:	e9dd 0104 	ldrd	r0, r1, [sp, #16]
 80093ec:	f7f6 ff4e 	bl	800028c <__adddf3>
 80093f0:	e9cd 0104 	strd	r0, r1, [sp, #16]
 80093f4:	3601      	adds	r6, #1
 80093f6:	9b06      	ldr	r3, [sp, #24]
 80093f8:	429e      	cmp	r6, r3
 80093fa:	f1a7 0708 	sub.w	r7, r7, #8
 80093fe:	ddeb      	ble.n	80093d8 <__kernel_rem_pio2+0xa0>
 8009400:	ed9d 7b04 	vldr	d7, [sp, #16]
 8009404:	f108 0801 	add.w	r8, r8, #1
 8009408:	ecab 7b02 	vstmia	fp!, {d7}
 800940c:	3508      	adds	r5, #8
 800940e:	e7cc      	b.n	80093aa <__kernel_rem_pio2+0x72>
 8009410:	9b02      	ldr	r3, [sp, #8]
 8009412:	aa0e      	add	r2, sp, #56	; 0x38
 8009414:	eb02 0383 	add.w	r3, r2, r3, lsl #2
 8009418:	930d      	str	r3, [sp, #52]	; 0x34
 800941a:	9ba7      	ldr	r3, [sp, #668]	; 0x29c
 800941c:	eb03 0384 	add.w	r3, r3, r4, lsl #2
 8009420:	9c02      	ldr	r4, [sp, #8]
 8009422:	930c      	str	r3, [sp, #48]	; 0x30
 8009424:	00e3      	lsls	r3, r4, #3
 8009426:	930a      	str	r3, [sp, #40]	; 0x28
 8009428:	ab9a      	add	r3, sp, #616	; 0x268
 800942a:	eb03 03c4 	add.w	r3, r3, r4, lsl #3
 800942e:	e953 6728 	ldrd	r6, r7, [r3, #-160]	; 0xa0
 8009432:	f10d 0838 	add.w	r8, sp, #56	; 0x38
 8009436:	ab72      	add	r3, sp, #456	; 0x1c8
 8009438:	eb03 05c4 	add.w	r5, r3, r4, lsl #3
 800943c:	46c3      	mov	fp, r8
 800943e:	46a1      	mov	r9, r4
 8009440:	f1b9 0f00 	cmp.w	r9, #0
 8009444:	f1a5 0508 	sub.w	r5, r5, #8
 8009448:	dc77      	bgt.n	800953a <__kernel_rem_pio2+0x202>
 800944a:	ec47 6b10 	vmov	d0, r6, r7
 800944e:	4650      	mov	r0, sl
 8009450:	f000 fc46 	bl	8009ce0 <scalbn>
 8009454:	ec57 6b10 	vmov	r6, r7, d0
 8009458:	2200      	movs	r2, #0
 800945a:	f04f 537f 	mov.w	r3, #1069547520	; 0x3fc00000
 800945e:	ee10 0a10 	vmov	r0, s0
 8009462:	4639      	mov	r1, r7
 8009464:	f7f7 f8c8 	bl	80005f8 <__aeabi_dmul>
 8009468:	ec41 0b10 	vmov	d0, r0, r1
 800946c:	f000 fbb8 	bl	8009be0 <floor>
 8009470:	4b7c      	ldr	r3, [pc, #496]	; (8009664 <__kernel_rem_pio2+0x32c>)
 8009472:	ec51 0b10 	vmov	r0, r1, d0
 8009476:	2200      	movs	r2, #0
 8009478:	f7f7 f8be 	bl	80005f8 <__aeabi_dmul>
 800947c:	4602      	mov	r2, r0
 800947e:	460b      	mov	r3, r1
 8009480:	4630      	mov	r0, r6
 8009482:	4639      	mov	r1, r7
 8009484:	f7f6 ff00 	bl	8000288 <__aeabi_dsub>
 8009488:	460f      	mov	r7, r1
 800948a:	4606      	mov	r6, r0
 800948c:	f7f7 fb64 	bl	8000b58 <__aeabi_d2iz>
 8009490:	9004      	str	r0, [sp, #16]
 8009492:	f7f7 f847 	bl	8000524 <__aeabi_i2d>
 8009496:	4602      	mov	r2, r0
 8009498:	460b      	mov	r3, r1
 800949a:	4630      	mov	r0, r6
 800949c:	4639      	mov	r1, r7
 800949e:	f7f6 fef3 	bl	8000288 <__aeabi_dsub>
 80094a2:	f1ba 0f00 	cmp.w	sl, #0
 80094a6:	4606      	mov	r6, r0
 80094a8:	460f      	mov	r7, r1
 80094aa:	dd6d      	ble.n	8009588 <__kernel_rem_pio2+0x250>
 80094ac:	1e62      	subs	r2, r4, #1
 80094ae:	ab0e      	add	r3, sp, #56	; 0x38
 80094b0:	9d04      	ldr	r5, [sp, #16]
 80094b2:	f853 0022 	ldr.w	r0, [r3, r2, lsl #2]
 80094b6:	f1ca 0118 	rsb	r1, sl, #24
 80094ba:	fa40 f301 	asr.w	r3, r0, r1
 80094be:	441d      	add	r5, r3
 80094c0:	408b      	lsls	r3, r1
 80094c2:	1ac0      	subs	r0, r0, r3
 80094c4:	ab0e      	add	r3, sp, #56	; 0x38
 80094c6:	9504      	str	r5, [sp, #16]
 80094c8:	f843 0022 	str.w	r0, [r3, r2, lsl #2]
 80094cc:	f1ca 0317 	rsb	r3, sl, #23
 80094d0:	fa40 fb03 	asr.w	fp, r0, r3
 80094d4:	f1bb 0f00 	cmp.w	fp, #0
 80094d8:	dd65      	ble.n	80095a6 <__kernel_rem_pio2+0x26e>
 80094da:	9b04      	ldr	r3, [sp, #16]
 80094dc:	2200      	movs	r2, #0
 80094de:	3301      	adds	r3, #1
 80094e0:	9304      	str	r3, [sp, #16]
 80094e2:	4615      	mov	r5, r2
 80094e4:	f06f 417f 	mvn.w	r1, #4278190080	; 0xff000000
 80094e8:	4294      	cmp	r4, r2
 80094ea:	f300 809c 	bgt.w	8009626 <__kernel_rem_pio2+0x2ee>
 80094ee:	f1ba 0f00 	cmp.w	sl, #0
 80094f2:	dd07      	ble.n	8009504 <__kernel_rem_pio2+0x1cc>
 80094f4:	f1ba 0f01 	cmp.w	sl, #1
 80094f8:	f000 80c0 	beq.w	800967c <__kernel_rem_pio2+0x344>
 80094fc:	f1ba 0f02 	cmp.w	sl, #2
 8009500:	f000 80c6 	beq.w	8009690 <__kernel_rem_pio2+0x358>
 8009504:	f1bb 0f02 	cmp.w	fp, #2
 8009508:	d14d      	bne.n	80095a6 <__kernel_rem_pio2+0x26e>
 800950a:	4632      	mov	r2, r6
 800950c:	463b      	mov	r3, r7
 800950e:	4956      	ldr	r1, [pc, #344]	; (8009668 <__kernel_rem_pio2+0x330>)
 8009510:	2000      	movs	r0, #0
 8009512:	f7f6 feb9 	bl	8000288 <__aeabi_dsub>
 8009516:	4606      	mov	r6, r0
 8009518:	460f      	mov	r7, r1
 800951a:	2d00      	cmp	r5, #0
 800951c:	d043      	beq.n	80095a6 <__kernel_rem_pio2+0x26e>
 800951e:	4650      	mov	r0, sl
 8009520:	ed9f 0b4d 	vldr	d0, [pc, #308]	; 8009658 <__kernel_rem_pio2+0x320>
 8009524:	f000 fbdc 	bl	8009ce0 <scalbn>
 8009528:	4630      	mov	r0, r6
 800952a:	4639      	mov	r1, r7
 800952c:	ec53 2b10 	vmov	r2, r3, d0
 8009530:	f7f6 feaa 	bl	8000288 <__aeabi_dsub>
 8009534:	4606      	mov	r6, r0
 8009536:	460f      	mov	r7, r1
 8009538:	e035      	b.n	80095a6 <__kernel_rem_pio2+0x26e>
 800953a:	4b4c      	ldr	r3, [pc, #304]	; (800966c <__kernel_rem_pio2+0x334>)
 800953c:	2200      	movs	r2, #0
 800953e:	4630      	mov	r0, r6
 8009540:	4639      	mov	r1, r7
 8009542:	f7f7 f859 	bl	80005f8 <__aeabi_dmul>
 8009546:	f7f7 fb07 	bl	8000b58 <__aeabi_d2iz>
 800954a:	f7f6 ffeb 	bl	8000524 <__aeabi_i2d>
 800954e:	4602      	mov	r2, r0
 8009550:	460b      	mov	r3, r1
 8009552:	ec43 2b18 	vmov	d8, r2, r3
 8009556:	4b46      	ldr	r3, [pc, #280]	; (8009670 <__kernel_rem_pio2+0x338>)
 8009558:	2200      	movs	r2, #0
 800955a:	f7f7 f84d 	bl	80005f8 <__aeabi_dmul>
 800955e:	4602      	mov	r2, r0
 8009560:	460b      	mov	r3, r1
 8009562:	4630      	mov	r0, r6
 8009564:	4639      	mov	r1, r7
 8009566:	f7f6 fe8f 	bl	8000288 <__aeabi_dsub>
 800956a:	f7f7 faf5 	bl	8000b58 <__aeabi_d2iz>
 800956e:	e9d5 2300 	ldrd	r2, r3, [r5]
 8009572:	f84b 0b04 	str.w	r0, [fp], #4
 8009576:	ec51 0b18 	vmov	r0, r1, d8
 800957a:	f7f6 fe87 	bl	800028c <__adddf3>
 800957e:	f109 39ff 	add.w	r9, r9, #4294967295
 8009582:	4606      	mov	r6, r0
 8009584:	460f      	mov	r7, r1
 8009586:	e75b      	b.n	8009440 <__kernel_rem_pio2+0x108>
 8009588:	d106      	bne.n	8009598 <__kernel_rem_pio2+0x260>
 800958a:	1e63      	subs	r3, r4, #1
 800958c:	aa0e      	add	r2, sp, #56	; 0x38
 800958e:	f852 0023 	ldr.w	r0, [r2, r3, lsl #2]
 8009592:	ea4f 5be0 	mov.w	fp, r0, asr #23
 8009596:	e79d      	b.n	80094d4 <__kernel_rem_pio2+0x19c>
 8009598:	4b36      	ldr	r3, [pc, #216]	; (8009674 <__kernel_rem_pio2+0x33c>)
 800959a:	2200      	movs	r2, #0
 800959c:	f7f7 fab2 	bl	8000b04 <__aeabi_dcmpge>
 80095a0:	2800      	cmp	r0, #0
 80095a2:	d13d      	bne.n	8009620 <__kernel_rem_pio2+0x2e8>
 80095a4:	4683      	mov	fp, r0
 80095a6:	2200      	movs	r2, #0
 80095a8:	2300      	movs	r3, #0
 80095aa:	4630      	mov	r0, r6
 80095ac:	4639      	mov	r1, r7
 80095ae:	f7f7 fa8b 	bl	8000ac8 <__aeabi_dcmpeq>
 80095b2:	2800      	cmp	r0, #0
 80095b4:	f000 80c0 	beq.w	8009738 <__kernel_rem_pio2+0x400>
 80095b8:	1e65      	subs	r5, r4, #1
 80095ba:	462b      	mov	r3, r5
 80095bc:	2200      	movs	r2, #0
 80095be:	9902      	ldr	r1, [sp, #8]
 80095c0:	428b      	cmp	r3, r1
 80095c2:	da6c      	bge.n	800969e <__kernel_rem_pio2+0x366>
 80095c4:	2a00      	cmp	r2, #0
 80095c6:	f000 8089 	beq.w	80096dc <__kernel_rem_pio2+0x3a4>
 80095ca:	ab0e      	add	r3, sp, #56	; 0x38
 80095cc:	f1aa 0a18 	sub.w	sl, sl, #24
 80095d0:	f853 3025 	ldr.w	r3, [r3, r5, lsl #2]
 80095d4:	2b00      	cmp	r3, #0
 80095d6:	f000 80ad 	beq.w	8009734 <__kernel_rem_pio2+0x3fc>
 80095da:	4650      	mov	r0, sl
 80095dc:	ed9f 0b1e 	vldr	d0, [pc, #120]	; 8009658 <__kernel_rem_pio2+0x320>
 80095e0:	f000 fb7e 	bl	8009ce0 <scalbn>
 80095e4:	ab9a      	add	r3, sp, #616	; 0x268
 80095e6:	eb03 03c5 	add.w	r3, r3, r5, lsl #3
 80095ea:	ec57 6b10 	vmov	r6, r7, d0
 80095ee:	00ec      	lsls	r4, r5, #3
 80095f0:	f1a3 0898 	sub.w	r8, r3, #152	; 0x98
 80095f4:	46aa      	mov	sl, r5
 80095f6:	f1ba 0f00 	cmp.w	sl, #0
 80095fa:	f280 80d6 	bge.w	80097aa <__kernel_rem_pio2+0x472>
 80095fe:	ed9f 8b14 	vldr	d8, [pc, #80]	; 8009650 <__kernel_rem_pio2+0x318>
 8009602:	462e      	mov	r6, r5
 8009604:	2e00      	cmp	r6, #0
 8009606:	f2c0 8104 	blt.w	8009812 <__kernel_rem_pio2+0x4da>
 800960a:	ab72      	add	r3, sp, #456	; 0x1c8
 800960c:	ed8d 8b06 	vstr	d8, [sp, #24]
 8009610:	f8df a064 	ldr.w	sl, [pc, #100]	; 8009678 <__kernel_rem_pio2+0x340>
 8009614:	eb03 09c6 	add.w	r9, r3, r6, lsl #3
 8009618:	f04f 0800 	mov.w	r8, #0
 800961c:	1baf      	subs	r7, r5, r6
 800961e:	e0ea      	b.n	80097f6 <__kernel_rem_pio2+0x4be>
 8009620:	f04f 0b02 	mov.w	fp, #2
 8009624:	e759      	b.n	80094da <__kernel_rem_pio2+0x1a2>
 8009626:	f8d8 3000 	ldr.w	r3, [r8]
 800962a:	b955      	cbnz	r5, 8009642 <__kernel_rem_pio2+0x30a>
 800962c:	b123      	cbz	r3, 8009638 <__kernel_rem_pio2+0x300>
 800962e:	f1c3 7380 	rsb	r3, r3, #16777216	; 0x1000000
 8009632:	f8c8 3000 	str.w	r3, [r8]
 8009636:	2301      	movs	r3, #1
 8009638:	3201      	adds	r2, #1
 800963a:	f108 0804 	add.w	r8, r8, #4
 800963e:	461d      	mov	r5, r3
 8009640:	e752      	b.n	80094e8 <__kernel_rem_pio2+0x1b0>
 8009642:	1acb      	subs	r3, r1, r3
 8009644:	f8c8 3000 	str.w	r3, [r8]
 8009648:	462b      	mov	r3, r5
 800964a:	e7f5      	b.n	8009638 <__kernel_rem_pio2+0x300>
 800964c:	f3af 8000 	nop.w
	...
 800965c:	3ff00000 	.word	0x3ff00000
 8009660:	0800cc30 	.word	0x0800cc30
 8009664:	40200000 	.word	0x40200000
 8009668:	3ff00000 	.word	0x3ff00000
 800966c:	3e700000 	.word	0x3e700000
 8009670:	41700000 	.word	0x41700000
 8009674:	3fe00000 	.word	0x3fe00000
 8009678:	0800cbf0 	.word	0x0800cbf0
 800967c:	1e62      	subs	r2, r4, #1
 800967e:	ab0e      	add	r3, sp, #56	; 0x38
 8009680:	f853 3022 	ldr.w	r3, [r3, r2, lsl #2]
 8009684:	f3c3 0316 	ubfx	r3, r3, #0, #23
 8009688:	a90e      	add	r1, sp, #56	; 0x38
 800968a:	f841 3022 	str.w	r3, [r1, r2, lsl #2]
 800968e:	e739      	b.n	8009504 <__kernel_rem_pio2+0x1cc>
 8009690:	1e62      	subs	r2, r4, #1
 8009692:	ab0e      	add	r3, sp, #56	; 0x38
 8009694:	f853 3022 	ldr.w	r3, [r3, r2, lsl #2]
 8009698:	f3c3 0315 	ubfx	r3, r3, #0, #22
 800969c:	e7f4      	b.n	8009688 <__kernel_rem_pio2+0x350>
 800969e:	a90e      	add	r1, sp, #56	; 0x38
 80096a0:	f851 1023 	ldr.w	r1, [r1, r3, lsl #2]
 80096a4:	3b01      	subs	r3, #1
 80096a6:	430a      	orrs	r2, r1
 80096a8:	e789      	b.n	80095be <__kernel_rem_pio2+0x286>
 80096aa:	3301      	adds	r3, #1
 80096ac:	f852 1d04 	ldr.w	r1, [r2, #-4]!
 80096b0:	2900      	cmp	r1, #0
 80096b2:	d0fa      	beq.n	80096aa <__kernel_rem_pio2+0x372>
 80096b4:	9a0a      	ldr	r2, [sp, #40]	; 0x28
 80096b6:	f502 721a 	add.w	r2, r2, #616	; 0x268
 80096ba:	446a      	add	r2, sp
 80096bc:	3a98      	subs	r2, #152	; 0x98
 80096be:	920a      	str	r2, [sp, #40]	; 0x28
 80096c0:	9a08      	ldr	r2, [sp, #32]
 80096c2:	18e3      	adds	r3, r4, r3
 80096c4:	18a5      	adds	r5, r4, r2
 80096c6:	aa22      	add	r2, sp, #136	; 0x88
 80096c8:	f104 0801 	add.w	r8, r4, #1
 80096cc:	eb02 05c5 	add.w	r5, r2, r5, lsl #3
 80096d0:	9304      	str	r3, [sp, #16]
 80096d2:	9b04      	ldr	r3, [sp, #16]
 80096d4:	4543      	cmp	r3, r8
 80096d6:	da04      	bge.n	80096e2 <__kernel_rem_pio2+0x3aa>
 80096d8:	461c      	mov	r4, r3
 80096da:	e6a3      	b.n	8009424 <__kernel_rem_pio2+0xec>
 80096dc:	9a0d      	ldr	r2, [sp, #52]	; 0x34
 80096de:	2301      	movs	r3, #1
 80096e0:	e7e4      	b.n	80096ac <__kernel_rem_pio2+0x374>
 80096e2:	9b0c      	ldr	r3, [sp, #48]	; 0x30
 80096e4:	f853 0028 	ldr.w	r0, [r3, r8, lsl #2]
 80096e8:	f7f6 ff1c 	bl	8000524 <__aeabi_i2d>
 80096ec:	e8e5 0102 	strd	r0, r1, [r5], #8
 80096f0:	9b0b      	ldr	r3, [sp, #44]	; 0x2c
 80096f2:	46ab      	mov	fp, r5
 80096f4:	461c      	mov	r4, r3
 80096f6:	f04f 0900 	mov.w	r9, #0
 80096fa:	2600      	movs	r6, #0
 80096fc:	2700      	movs	r7, #0
 80096fe:	9b06      	ldr	r3, [sp, #24]
 8009700:	4599      	cmp	r9, r3
 8009702:	dd06      	ble.n	8009712 <__kernel_rem_pio2+0x3da>
 8009704:	9b0a      	ldr	r3, [sp, #40]	; 0x28
 8009706:	e8e3 6702 	strd	r6, r7, [r3], #8
 800970a:	f108 0801 	add.w	r8, r8, #1
 800970e:	930a      	str	r3, [sp, #40]	; 0x28
 8009710:	e7df      	b.n	80096d2 <__kernel_rem_pio2+0x39a>
 8009712:	e97b 2302 	ldrd	r2, r3, [fp, #-8]!
 8009716:	e8f4 0102 	ldrd	r0, r1, [r4], #8
 800971a:	f7f6 ff6d 	bl	80005f8 <__aeabi_dmul>
 800971e:	4602      	mov	r2, r0
 8009720:	460b      	mov	r3, r1
 8009722:	4630      	mov	r0, r6
 8009724:	4639      	mov	r1, r7
 8009726:	f7f6 fdb1 	bl	800028c <__adddf3>
 800972a:	f109 0901 	add.w	r9, r9, #1
 800972e:	4606      	mov	r6, r0
 8009730:	460f      	mov	r7, r1
 8009732:	e7e4      	b.n	80096fe <__kernel_rem_pio2+0x3c6>
 8009734:	3d01      	subs	r5, #1
 8009736:	e748      	b.n	80095ca <__kernel_rem_pio2+0x292>
 8009738:	ec47 6b10 	vmov	d0, r6, r7
 800973c:	f1ca 0000 	rsb	r0, sl, #0
 8009740:	f000 face 	bl	8009ce0 <scalbn>
 8009744:	ec57 6b10 	vmov	r6, r7, d0
 8009748:	4ba0      	ldr	r3, [pc, #640]	; (80099cc <__kernel_rem_pio2+0x694>)
 800974a:	ee10 0a10 	vmov	r0, s0
 800974e:	2200      	movs	r2, #0
 8009750:	4639      	mov	r1, r7
 8009752:	f7f7 f9d7 	bl	8000b04 <__aeabi_dcmpge>
 8009756:	b1f8      	cbz	r0, 8009798 <__kernel_rem_pio2+0x460>
 8009758:	4b9d      	ldr	r3, [pc, #628]	; (80099d0 <__kernel_rem_pio2+0x698>)
 800975a:	2200      	movs	r2, #0
 800975c:	4630      	mov	r0, r6
 800975e:	4639      	mov	r1, r7
 8009760:	f7f6 ff4a 	bl	80005f8 <__aeabi_dmul>
 8009764:	f7f7 f9f8 	bl	8000b58 <__aeabi_d2iz>
 8009768:	4680      	mov	r8, r0
 800976a:	f7f6 fedb 	bl	8000524 <__aeabi_i2d>
 800976e:	4b97      	ldr	r3, [pc, #604]	; (80099cc <__kernel_rem_pio2+0x694>)
 8009770:	2200      	movs	r2, #0
 8009772:	f7f6 ff41 	bl	80005f8 <__aeabi_dmul>
 8009776:	460b      	mov	r3, r1
 8009778:	4602      	mov	r2, r0
 800977a:	4639      	mov	r1, r7
 800977c:	4630      	mov	r0, r6
 800977e:	f7f6 fd83 	bl	8000288 <__aeabi_dsub>
 8009782:	f7f7 f9e9 	bl	8000b58 <__aeabi_d2iz>
 8009786:	1c65      	adds	r5, r4, #1
 8009788:	ab0e      	add	r3, sp, #56	; 0x38
 800978a:	f10a 0a18 	add.w	sl, sl, #24
 800978e:	f843 0024 	str.w	r0, [r3, r4, lsl #2]
 8009792:	f843 8025 	str.w	r8, [r3, r5, lsl #2]
 8009796:	e720      	b.n	80095da <__kernel_rem_pio2+0x2a2>
 8009798:	4630      	mov	r0, r6
 800979a:	4639      	mov	r1, r7
 800979c:	f7f7 f9dc 	bl	8000b58 <__aeabi_d2iz>
 80097a0:	ab0e      	add	r3, sp, #56	; 0x38
 80097a2:	4625      	mov	r5, r4
 80097a4:	f843 0024 	str.w	r0, [r3, r4, lsl #2]
 80097a8:	e717      	b.n	80095da <__kernel_rem_pio2+0x2a2>
 80097aa:	ab0e      	add	r3, sp, #56	; 0x38
 80097ac:	f853 002a 	ldr.w	r0, [r3, sl, lsl #2]
 80097b0:	f7f6 feb8 	bl	8000524 <__aeabi_i2d>
 80097b4:	4632      	mov	r2, r6
 80097b6:	463b      	mov	r3, r7
 80097b8:	f7f6 ff1e 	bl	80005f8 <__aeabi_dmul>
 80097bc:	4b84      	ldr	r3, [pc, #528]	; (80099d0 <__kernel_rem_pio2+0x698>)
 80097be:	e968 0102 	strd	r0, r1, [r8, #-8]!
 80097c2:	2200      	movs	r2, #0
 80097c4:	4630      	mov	r0, r6
 80097c6:	4639      	mov	r1, r7
 80097c8:	f7f6 ff16 	bl	80005f8 <__aeabi_dmul>
 80097cc:	f10a 3aff 	add.w	sl, sl, #4294967295
 80097d0:	4606      	mov	r6, r0
 80097d2:	460f      	mov	r7, r1
 80097d4:	e70f      	b.n	80095f6 <__kernel_rem_pio2+0x2be>
 80097d6:	e8f9 2302 	ldrd	r2, r3, [r9], #8
 80097da:	e8fa 0102 	ldrd	r0, r1, [sl], #8
 80097de:	f7f6 ff0b 	bl	80005f8 <__aeabi_dmul>
 80097e2:	4602      	mov	r2, r0
 80097e4:	460b      	mov	r3, r1
 80097e6:	e9dd 0106 	ldrd	r0, r1, [sp, #24]
 80097ea:	f7f6 fd4f 	bl	800028c <__adddf3>
 80097ee:	e9cd 0106 	strd	r0, r1, [sp, #24]
 80097f2:	f108 0801 	add.w	r8, r8, #1
 80097f6:	9b02      	ldr	r3, [sp, #8]
 80097f8:	4598      	cmp	r8, r3
 80097fa:	dc01      	bgt.n	8009800 <__kernel_rem_pio2+0x4c8>
 80097fc:	45b8      	cmp	r8, r7
 80097fe:	ddea      	ble.n	80097d6 <__kernel_rem_pio2+0x49e>
 8009800:	ed9d 7b06 	vldr	d7, [sp, #24]
 8009804:	ab4a      	add	r3, sp, #296	; 0x128
 8009806:	eb03 07c7 	add.w	r7, r3, r7, lsl #3
 800980a:	ed87 7b00 	vstr	d7, [r7]
 800980e:	3e01      	subs	r6, #1
 8009810:	e6f8      	b.n	8009604 <__kernel_rem_pio2+0x2cc>
 8009812:	9ba6      	ldr	r3, [sp, #664]	; 0x298
 8009814:	2b02      	cmp	r3, #2
 8009816:	dc0b      	bgt.n	8009830 <__kernel_rem_pio2+0x4f8>
 8009818:	2b00      	cmp	r3, #0
 800981a:	dc35      	bgt.n	8009888 <__kernel_rem_pio2+0x550>
 800981c:	d059      	beq.n	80098d2 <__kernel_rem_pio2+0x59a>
 800981e:	9b04      	ldr	r3, [sp, #16]
 8009820:	f003 0007 	and.w	r0, r3, #7
 8009824:	f50d 7d1b 	add.w	sp, sp, #620	; 0x26c
 8009828:	ecbd 8b02 	vpop	{d8}
 800982c:	e8bd 8ff0 	ldmia.w	sp!, {r4, r5, r6, r7, r8, r9, sl, fp, pc}
 8009830:	9ba6      	ldr	r3, [sp, #664]	; 0x298
 8009832:	2b03      	cmp	r3, #3
 8009834:	d1f3      	bne.n	800981e <__kernel_rem_pio2+0x4e6>
 8009836:	ab4a      	add	r3, sp, #296	; 0x128
 8009838:	4423      	add	r3, r4
 800983a:	9306      	str	r3, [sp, #24]
 800983c:	461c      	mov	r4, r3
 800983e:	469a      	mov	sl, r3
 8009840:	9502      	str	r5, [sp, #8]
 8009842:	9b02      	ldr	r3, [sp, #8]
 8009844:	2b00      	cmp	r3, #0
 8009846:	f1aa 0a08 	sub.w	sl, sl, #8
 800984a:	dc6b      	bgt.n	8009924 <__kernel_rem_pio2+0x5ec>
 800984c:	46aa      	mov	sl, r5
 800984e:	f1ba 0f01 	cmp.w	sl, #1
 8009852:	f1a4 0408 	sub.w	r4, r4, #8
 8009856:	f300 8085 	bgt.w	8009964 <__kernel_rem_pio2+0x62c>
 800985a:	9c06      	ldr	r4, [sp, #24]
 800985c:	2000      	movs	r0, #0
 800985e:	3408      	adds	r4, #8
 8009860:	2100      	movs	r1, #0
 8009862:	2d01      	cmp	r5, #1
 8009864:	f300 809d 	bgt.w	80099a2 <__kernel_rem_pio2+0x66a>
 8009868:	e9dd 564a 	ldrd	r5, r6, [sp, #296]	; 0x128
 800986c:	e9dd 784c 	ldrd	r7, r8, [sp, #304]	; 0x130
 8009870:	f1bb 0f00 	cmp.w	fp, #0
 8009874:	f040 809b 	bne.w	80099ae <__kernel_rem_pio2+0x676>
 8009878:	9b01      	ldr	r3, [sp, #4]
 800987a:	e9c3 5600 	strd	r5, r6, [r3]
 800987e:	e9c3 7802 	strd	r7, r8, [r3, #8]
 8009882:	e9c3 0104 	strd	r0, r1, [r3, #16]
 8009886:	e7ca      	b.n	800981e <__kernel_rem_pio2+0x4e6>
 8009888:	3408      	adds	r4, #8
 800988a:	ab4a      	add	r3, sp, #296	; 0x128
 800988c:	441c      	add	r4, r3
 800988e:	462e      	mov	r6, r5
 8009890:	2000      	movs	r0, #0
 8009892:	2100      	movs	r1, #0
 8009894:	2e00      	cmp	r6, #0
 8009896:	da36      	bge.n	8009906 <__kernel_rem_pio2+0x5ce>
 8009898:	f1bb 0f00 	cmp.w	fp, #0
 800989c:	d039      	beq.n	8009912 <__kernel_rem_pio2+0x5da>
 800989e:	4602      	mov	r2, r0
 80098a0:	f101 4300 	add.w	r3, r1, #2147483648	; 0x80000000
 80098a4:	9c01      	ldr	r4, [sp, #4]
 80098a6:	e9c4 2300 	strd	r2, r3, [r4]
 80098aa:	4602      	mov	r2, r0
 80098ac:	460b      	mov	r3, r1
 80098ae:	e9dd 014a 	ldrd	r0, r1, [sp, #296]	; 0x128
 80098b2:	f7f6 fce9 	bl	8000288 <__aeabi_dsub>
 80098b6:	ae4c      	add	r6, sp, #304	; 0x130
 80098b8:	2401      	movs	r4, #1
 80098ba:	42a5      	cmp	r5, r4
 80098bc:	da2c      	bge.n	8009918 <__kernel_rem_pio2+0x5e0>
 80098be:	f1bb 0f00 	cmp.w	fp, #0
 80098c2:	d002      	beq.n	80098ca <__kernel_rem_pio2+0x592>
 80098c4:	f101 4300 	add.w	r3, r1, #2147483648	; 0x80000000
 80098c8:	4619      	mov	r1, r3
 80098ca:	9b01      	ldr	r3, [sp, #4]
 80098cc:	e9c3 0102 	strd	r0, r1, [r3, #8]
 80098d0:	e7a5      	b.n	800981e <__kernel_rem_pio2+0x4e6>
 80098d2:	f504 731a 	add.w	r3, r4, #616	; 0x268
 80098d6:	eb0d 0403 	add.w	r4, sp, r3
 80098da:	f5a4 749c 	sub.w	r4, r4, #312	; 0x138
 80098de:	2000      	movs	r0, #0
 80098e0:	2100      	movs	r1, #0
 80098e2:	2d00      	cmp	r5, #0
 80098e4:	da09      	bge.n	80098fa <__kernel_rem_pio2+0x5c2>
 80098e6:	f1bb 0f00 	cmp.w	fp, #0
 80098ea:	d002      	beq.n	80098f2 <__kernel_rem_pio2+0x5ba>
 80098ec:	f101 4300 	add.w	r3, r1, #2147483648	; 0x80000000
 80098f0:	4619      	mov	r1, r3
 80098f2:	9b01      	ldr	r3, [sp, #4]
 80098f4:	e9c3 0100 	strd	r0, r1, [r3]
 80098f8:	e791      	b.n	800981e <__kernel_rem_pio2+0x4e6>
 80098fa:	e974 2302 	ldrd	r2, r3, [r4, #-8]!
 80098fe:	f7f6 fcc5 	bl	800028c <__adddf3>
 8009902:	3d01      	subs	r5, #1
 8009904:	e7ed      	b.n	80098e2 <__kernel_rem_pio2+0x5aa>
 8009906:	e974 2302 	ldrd	r2, r3, [r4, #-8]!
 800990a:	f7f6 fcbf 	bl	800028c <__adddf3>
 800990e:	3e01      	subs	r6, #1
 8009910:	e7c0      	b.n	8009894 <__kernel_rem_pio2+0x55c>
 8009912:	4602      	mov	r2, r0
 8009914:	460b      	mov	r3, r1
 8009916:	e7c5      	b.n	80098a4 <__kernel_rem_pio2+0x56c>
 8009918:	e8f6 2302 	ldrd	r2, r3, [r6], #8
 800991c:	f7f6 fcb6 	bl	800028c <__adddf3>
 8009920:	3401      	adds	r4, #1
 8009922:	e7ca      	b.n	80098ba <__kernel_rem_pio2+0x582>
 8009924:	e9da 8900 	ldrd	r8, r9, [sl]
 8009928:	e9da 6702 	ldrd	r6, r7, [sl, #8]
 800992c:	9b02      	ldr	r3, [sp, #8]
 800992e:	3b01      	subs	r3, #1
 8009930:	9302      	str	r3, [sp, #8]
 8009932:	4632      	mov	r2, r6
 8009934:	463b      	mov	r3, r7
 8009936:	4640      	mov	r0, r8
 8009938:	4649      	mov	r1, r9
 800993a:	f7f6 fca7 	bl	800028c <__adddf3>
 800993e:	e9cd 0108 	strd	r0, r1, [sp, #32]
 8009942:	4602      	mov	r2, r0
 8009944:	460b      	mov	r3, r1
 8009946:	4640      	mov	r0, r8
 8009948:	4649      	mov	r1, r9
 800994a:	f7f6 fc9d 	bl	8000288 <__aeabi_dsub>
 800994e:	4632      	mov	r2, r6
 8009950:	463b      	mov	r3, r7
 8009952:	f7f6 fc9b 	bl	800028c <__adddf3>
 8009956:	ed9d 7b08 	vldr	d7, [sp, #32]
 800995a:	e9ca 0102 	strd	r0, r1, [sl, #8]
 800995e:	ed8a 7b00 	vstr	d7, [sl]
 8009962:	e76e      	b.n	8009842 <__kernel_rem_pio2+0x50a>
 8009964:	e9d4 8900 	ldrd	r8, r9, [r4]
 8009968:	e9d4 6702 	ldrd	r6, r7, [r4, #8]
 800996c:	4640      	mov	r0, r8
 800996e:	4632      	mov	r2, r6
 8009970:	463b      	mov	r3, r7
 8009972:	4649      	mov	r1, r9
 8009974:	f7f6 fc8a 	bl	800028c <__adddf3>
 8009978:	e9cd 0102 	strd	r0, r1, [sp, #8]
 800997c:	4602      	mov	r2, r0
 800997e:	460b      	mov	r3, r1
 8009980:	4640      	mov	r0, r8
 8009982:	4649      	mov	r1, r9
 8009984:	f7f6 fc80 	bl	8000288 <__aeabi_dsub>
 8009988:	4632      	mov	r2, r6
 800998a:	463b      	mov	r3, r7
 800998c:	f7f6 fc7e 	bl	800028c <__adddf3>
 8009990:	ed9d 7b02 	vldr	d7, [sp, #8]
 8009994:	e9c4 0102 	strd	r0, r1, [r4, #8]
 8009998:	ed84 7b00 	vstr	d7, [r4]
 800999c:	f10a 3aff 	add.w	sl, sl, #4294967295
 80099a0:	e755      	b.n	800984e <__kernel_rem_pio2+0x516>
 80099a2:	e974 2302 	ldrd	r2, r3, [r4, #-8]!
 80099a6:	f7f6 fc71 	bl	800028c <__adddf3>
 80099aa:	3d01      	subs	r5, #1
 80099ac:	e759      	b.n	8009862 <__kernel_rem_pio2+0x52a>
 80099ae:	9b01      	ldr	r3, [sp, #4]
 80099b0:	9a01      	ldr	r2, [sp, #4]
 80099b2:	601d      	str	r5, [r3, #0]
 80099b4:	f106 4400 	add.w	r4, r6, #2147483648	; 0x80000000
 80099b8:	605c      	str	r4, [r3, #4]
 80099ba:	609f      	str	r7, [r3, #8]
 80099bc:	f108 4300 	add.w	r3, r8, #2147483648	; 0x80000000
 80099c0:	60d3      	str	r3, [r2, #12]
 80099c2:	f101 4300 	add.w	r3, r1, #2147483648	; 0x80000000
 80099c6:	6110      	str	r0, [r2, #16]
 80099c8:	6153      	str	r3, [r2, #20]
 80099ca:	e728      	b.n	800981e <__kernel_rem_pio2+0x4e6>
 80099cc:	41700000 	.word	0x41700000
 80099d0:	3e700000 	.word	0x3e700000
 80099d4:	00000000 	.word	0x00000000

080099d8 <__kernel_sin>:
 80099d8:	e92d 4ff0 	stmdb	sp!, {r4, r5, r6, r7, r8, r9, sl, fp, lr}
 80099dc:	ed2d 8b04 	vpush	{d8-d9}
 80099e0:	eeb0 8a41 	vmov.f32	s16, s2
 80099e4:	eef0 8a61 	vmov.f32	s17, s3
 80099e8:	ec55 4b10 	vmov	r4, r5, d0
 80099ec:	b083      	sub	sp, #12
 80099ee:	f025 4300 	bic.w	r3, r5, #2147483648	; 0x80000000
 80099f2:	f1b3 5f79 	cmp.w	r3, #1044381696	; 0x3e400000
 80099f6:	9001      	str	r0, [sp, #4]
 80099f8:	da06      	bge.n	8009a08 <__kernel_sin+0x30>
 80099fa:	ee10 0a10 	vmov	r0, s0
 80099fe:	4629      	mov	r1, r5
 8009a00:	f7f7 f8aa 	bl	8000b58 <__aeabi_d2iz>
 8009a04:	2800      	cmp	r0, #0
 8009a06:	d051      	beq.n	8009aac <__kernel_sin+0xd4>
 8009a08:	4622      	mov	r2, r4
 8009a0a:	462b      	mov	r3, r5
 8009a0c:	4620      	mov	r0, r4
 8009a0e:	4629      	mov	r1, r5
 8009a10:	f7f6 fdf2 	bl	80005f8 <__aeabi_dmul>
 8009a14:	4682      	mov	sl, r0
 8009a16:	468b      	mov	fp, r1
 8009a18:	4602      	mov	r2, r0
 8009a1a:	460b      	mov	r3, r1
 8009a1c:	4620      	mov	r0, r4
 8009a1e:	4629      	mov	r1, r5
 8009a20:	f7f6 fdea 	bl	80005f8 <__aeabi_dmul>
 8009a24:	a341      	add	r3, pc, #260	; (adr r3, 8009b2c <__kernel_sin+0x154>)
 8009a26:	e9d3 2300 	ldrd	r2, r3, [r3]
 8009a2a:	4680      	mov	r8, r0
 8009a2c:	4689      	mov	r9, r1
 8009a2e:	4650      	mov	r0, sl
 8009a30:	4659      	mov	r1, fp
 8009a32:	f7f6 fde1 	bl	80005f8 <__aeabi_dmul>
 8009a36:	a33f      	add	r3, pc, #252	; (adr r3, 8009b34 <__kernel_sin+0x15c>)
 8009a38:	e9d3 2300 	ldrd	r2, r3, [r3]
 8009a3c:	f7f6 fc24 	bl	8000288 <__aeabi_dsub>
 8009a40:	4652      	mov	r2, sl
 8009a42:	465b      	mov	r3, fp
 8009a44:	f7f6 fdd8 	bl	80005f8 <__aeabi_dmul>
 8009a48:	a33c      	add	r3, pc, #240	; (adr r3, 8009b3c <__kernel_sin+0x164>)
 8009a4a:	e9d3 2300 	ldrd	r2, r3, [r3]
 8009a4e:	f7f6 fc1d 	bl	800028c <__adddf3>
 8009a52:	4652      	mov	r2, sl
 8009a54:	465b      	mov	r3, fp
 8009a56:	f7f6 fdcf 	bl	80005f8 <__aeabi_dmul>
 8009a5a:	a33a      	add	r3, pc, #232	; (adr r3, 8009b44 <__kernel_sin+0x16c>)
 8009a5c:	e9d3 2300 	ldrd	r2, r3, [r3]
 8009a60:	f7f6 fc12 	bl	8000288 <__aeabi_dsub>
 8009a64:	4652      	mov	r2, sl
 8009a66:	465b      	mov	r3, fp
 8009a68:	f7f6 fdc6 	bl	80005f8 <__aeabi_dmul>
 8009a6c:	a337      	add	r3, pc, #220	; (adr r3, 8009b4c <__kernel_sin+0x174>)
 8009a6e:	e9d3 2300 	ldrd	r2, r3, [r3]
 8009a72:	f7f6 fc0b 	bl	800028c <__adddf3>
 8009a76:	9b01      	ldr	r3, [sp, #4]
 8009a78:	4606      	mov	r6, r0
 8009a7a:	460f      	mov	r7, r1
 8009a7c:	b9eb      	cbnz	r3, 8009aba <__kernel_sin+0xe2>
 8009a7e:	4602      	mov	r2, r0
 8009a80:	460b      	mov	r3, r1
 8009a82:	4650      	mov	r0, sl
 8009a84:	4659      	mov	r1, fp
 8009a86:	f7f6 fdb7 	bl	80005f8 <__aeabi_dmul>
 8009a8a:	a325      	add	r3, pc, #148	; (adr r3, 8009b20 <__kernel_sin+0x148>)
 8009a8c:	e9d3 2300 	ldrd	r2, r3, [r3]
 8009a90:	f7f6 fbfa 	bl	8000288 <__aeabi_dsub>
 8009a94:	4642      	mov	r2, r8
 8009a96:	464b      	mov	r3, r9
 8009a98:	f7f6 fdae 	bl	80005f8 <__aeabi_dmul>
 8009a9c:	4602      	mov	r2, r0
 8009a9e:	460b      	mov	r3, r1
 8009aa0:	4620      	mov	r0, r4
 8009aa2:	4629      	mov	r1, r5
 8009aa4:	f7f6 fbf2 	bl	800028c <__adddf3>
 8009aa8:	4604      	mov	r4, r0
 8009aaa:	460d      	mov	r5, r1
 8009aac:	ec45 4b10 	vmov	d0, r4, r5
 8009ab0:	b003      	add	sp, #12
 8009ab2:	ecbd 8b04 	vpop	{d8-d9}
 8009ab6:	e8bd 8ff0 	ldmia.w	sp!, {r4, r5, r6, r7, r8, r9, sl, fp, pc}
 8009aba:	4b1b      	ldr	r3, [pc, #108]	; (8009b28 <__kernel_sin+0x150>)
 8009abc:	ec51 0b18 	vmov	r0, r1, d8
 8009ac0:	2200      	movs	r2, #0
 8009ac2:	f7f6 fd99 	bl	80005f8 <__aeabi_dmul>
 8009ac6:	4632      	mov	r2, r6
 8009ac8:	ec41 0b19 	vmov	d9, r0, r1
 8009acc:	463b      	mov	r3, r7
 8009ace:	4640      	mov	r0, r8
 8009ad0:	4649      	mov	r1, r9
 8009ad2:	f7f6 fd91 	bl	80005f8 <__aeabi_dmul>
 8009ad6:	4602      	mov	r2, r0
 8009ad8:	460b      	mov	r3, r1
 8009ada:	ec51 0b19 	vmov	r0, r1, d9
 8009ade:	f7f6 fbd3 	bl	8000288 <__aeabi_dsub>
 8009ae2:	4652      	mov	r2, sl
 8009ae4:	465b      	mov	r3, fp
 8009ae6:	f7f6 fd87 	bl	80005f8 <__aeabi_dmul>
 8009aea:	ec53 2b18 	vmov	r2, r3, d8
 8009aee:	f7f6 fbcb 	bl	8000288 <__aeabi_dsub>
 8009af2:	a30b      	add	r3, pc, #44	; (adr r3, 8009b20 <__kernel_sin+0x148>)
 8009af4:	e9d3 2300 	ldrd	r2, r3, [r3]
 8009af8:	4606      	mov	r6, r0
 8009afa:	460f      	mov	r7, r1
 8009afc:	4640      	mov	r0, r8
 8009afe:	4649      	mov	r1, r9
 8009b00:	f7f6 fd7a 	bl	80005f8 <__aeabi_dmul>
 8009b04:	4602      	mov	r2, r0
 8009b06:	460b      	mov	r3, r1
 8009b08:	4630      	mov	r0, r6
 8009b0a:	4639      	mov	r1, r7
 8009b0c:	f7f6 fbbe 	bl	800028c <__adddf3>
 8009b10:	4602      	mov	r2, r0
 8009b12:	460b      	mov	r3, r1
 8009b14:	4620      	mov	r0, r4
 8009b16:	4629      	mov	r1, r5
 8009b18:	f7f6 fbb6 	bl	8000288 <__aeabi_dsub>
 8009b1c:	e7c4      	b.n	8009aa8 <__kernel_sin+0xd0>
 8009b1e:	bf00      	nop
 8009b20:	55555549 	.word	0x55555549
 8009b24:	3fc55555 	.word	0x3fc55555
 8009b28:	3fe00000 	.word	0x3fe00000
 8009b2c:	5acfd57c 	.word	0x5acfd57c
 8009b30:	3de5d93a 	.word	0x3de5d93a
 8009b34:	8a2b9ceb 	.word	0x8a2b9ceb
 8009b38:	3e5ae5e6 	.word	0x3e5ae5e6
 8009b3c:	57b1fe7d 	.word	0x57b1fe7d
 8009b40:	3ec71de3 	.word	0x3ec71de3
 8009b44:	19c161d5 	.word	0x19c161d5
 8009b48:	3f2a01a0 	.word	0x3f2a01a0
 8009b4c:	1110f8a6 	.word	0x1110f8a6
 8009b50:	3f811111 	.word	0x3f811111

08009b54 <with_errno>:
 8009b54:	b570      	push	{r4, r5, r6, lr}
 8009b56:	4604      	mov	r4, r0
 8009b58:	460d      	mov	r5, r1
 8009b5a:	4616      	mov	r6, r2
 8009b5c:	f000 f946 	bl	8009dec <__errno>
 8009b60:	4629      	mov	r1, r5
 8009b62:	6006      	str	r6, [r0, #0]
 8009b64:	4620      	mov	r0, r4
 8009b66:	bd70      	pop	{r4, r5, r6, pc}

08009b68 <xflow>:
 8009b68:	b537      	push	{r0, r1, r2, r4, r5, lr}
 8009b6a:	4614      	mov	r4, r2
 8009b6c:	461d      	mov	r5, r3
 8009b6e:	b108      	cbz	r0, 8009b74 <xflow+0xc>
 8009b70:	f103 4300 	add.w	r3, r3, #2147483648	; 0x80000000
 8009b74:	e9cd 2300 	strd	r2, r3, [sp]
 8009b78:	e9dd 2300 	ldrd	r2, r3, [sp]
 8009b7c:	4620      	mov	r0, r4
 8009b7e:	4629      	mov	r1, r5
 8009b80:	f7f6 fd3a 	bl	80005f8 <__aeabi_dmul>
 8009b84:	2222      	movs	r2, #34	; 0x22
 8009b86:	b003      	add	sp, #12
 8009b88:	e8bd 4030 	ldmia.w	sp!, {r4, r5, lr}
 8009b8c:	f7ff bfe2 	b.w	8009b54 <with_errno>

08009b90 <__math_uflow>:
 8009b90:	b508      	push	{r3, lr}
 8009b92:	2200      	movs	r2, #0
 8009b94:	f04f 5380 	mov.w	r3, #268435456	; 0x10000000
 8009b98:	f7ff ffe6 	bl	8009b68 <xflow>
 8009b9c:	ec41 0b10 	vmov	d0, r0, r1
 8009ba0:	bd08      	pop	{r3, pc}

08009ba2 <__math_oflow>:
 8009ba2:	b508      	push	{r3, lr}
 8009ba4:	2200      	movs	r2, #0
 8009ba6:	f04f 43e0 	mov.w	r3, #1879048192	; 0x70000000
 8009baa:	f7ff ffdd 	bl	8009b68 <xflow>
 8009bae:	ec41 0b10 	vmov	d0, r0, r1
 8009bb2:	bd08      	pop	{r3, pc}

08009bb4 <fabs>:
 8009bb4:	ec51 0b10 	vmov	r0, r1, d0
 8009bb8:	ee10 2a10 	vmov	r2, s0
 8009bbc:	f021 4300 	bic.w	r3, r1, #2147483648	; 0x80000000
 8009bc0:	ec43 2b10 	vmov	d0, r2, r3
 8009bc4:	4770      	bx	lr

08009bc6 <finite>:
 8009bc6:	b082      	sub	sp, #8
 8009bc8:	ed8d 0b00 	vstr	d0, [sp]
 8009bcc:	9801      	ldr	r0, [sp, #4]
 8009bce:	f040 4000 	orr.w	r0, r0, #2147483648	; 0x80000000
 8009bd2:	f500 1080 	add.w	r0, r0, #1048576	; 0x100000
 8009bd6:	0fc0      	lsrs	r0, r0, #31
 8009bd8:	b002      	add	sp, #8
 8009bda:	4770      	bx	lr
 8009bdc:	0000      	movs	r0, r0
	...

08009be0 <floor>:
 8009be0:	ec51 0b10 	vmov	r0, r1, d0
 8009be4:	e92d 41f0 	stmdb	sp!, {r4, r5, r6, r7, r8, lr}
 8009be8:	f3c1 570a 	ubfx	r7, r1, #20, #11
 8009bec:	f2a7 36ff 	subw	r6, r7, #1023	; 0x3ff
 8009bf0:	2e13      	cmp	r6, #19
 8009bf2:	ee10 5a10 	vmov	r5, s0
 8009bf6:	ee10 8a10 	vmov	r8, s0
 8009bfa:	460c      	mov	r4, r1
 8009bfc:	dc32      	bgt.n	8009c64 <floor+0x84>
 8009bfe:	2e00      	cmp	r6, #0
 8009c00:	da14      	bge.n	8009c2c <floor+0x4c>
 8009c02:	a333      	add	r3, pc, #204	; (adr r3, 8009cd0 <floor+0xf0>)
 8009c04:	e9d3 2300 	ldrd	r2, r3, [r3]
 8009c08:	f7f6 fb40 	bl	800028c <__adddf3>
 8009c0c:	2200      	movs	r2, #0
 8009c0e:	2300      	movs	r3, #0
 8009c10:	f7f6 ff82 	bl	8000b18 <__aeabi_dcmpgt>
 8009c14:	b138      	cbz	r0, 8009c26 <floor+0x46>
 8009c16:	2c00      	cmp	r4, #0
 8009c18:	da57      	bge.n	8009cca <floor+0xea>
 8009c1a:	f024 4300 	bic.w	r3, r4, #2147483648	; 0x80000000
 8009c1e:	431d      	orrs	r5, r3
 8009c20:	d001      	beq.n	8009c26 <floor+0x46>
 8009c22:	4c2d      	ldr	r4, [pc, #180]	; (8009cd8 <floor+0xf8>)
 8009c24:	2500      	movs	r5, #0
 8009c26:	4621      	mov	r1, r4
 8009c28:	4628      	mov	r0, r5
 8009c2a:	e025      	b.n	8009c78 <floor+0x98>
 8009c2c:	4f2b      	ldr	r7, [pc, #172]	; (8009cdc <floor+0xfc>)
 8009c2e:	4137      	asrs	r7, r6
 8009c30:	ea01 0307 	and.w	r3, r1, r7
 8009c34:	4303      	orrs	r3, r0
 8009c36:	d01f      	beq.n	8009c78 <floor+0x98>
 8009c38:	a325      	add	r3, pc, #148	; (adr r3, 8009cd0 <floor+0xf0>)
 8009c3a:	e9d3 2300 	ldrd	r2, r3, [r3]
 8009c3e:	f7f6 fb25 	bl	800028c <__adddf3>
 8009c42:	2200      	movs	r2, #0
 8009c44:	2300      	movs	r3, #0
 8009c46:	f7f6 ff67 	bl	8000b18 <__aeabi_dcmpgt>
 8009c4a:	2800      	cmp	r0, #0
 8009c4c:	d0eb      	beq.n	8009c26 <floor+0x46>
 8009c4e:	2c00      	cmp	r4, #0
 8009c50:	bfbe      	ittt	lt
 8009c52:	f44f 1380 	movlt.w	r3, #1048576	; 0x100000
 8009c56:	fa43 f606 	asrlt.w	r6, r3, r6
 8009c5a:	19a4      	addlt	r4, r4, r6
 8009c5c:	ea24 0407 	bic.w	r4, r4, r7
 8009c60:	2500      	movs	r5, #0
 8009c62:	e7e0      	b.n	8009c26 <floor+0x46>
 8009c64:	2e33      	cmp	r6, #51	; 0x33
 8009c66:	dd0b      	ble.n	8009c80 <floor+0xa0>
 8009c68:	f5b6 6f80 	cmp.w	r6, #1024	; 0x400
 8009c6c:	d104      	bne.n	8009c78 <floor+0x98>
 8009c6e:	ee10 2a10 	vmov	r2, s0
 8009c72:	460b      	mov	r3, r1
 8009c74:	f7f6 fb0a 	bl	800028c <__adddf3>
 8009c78:	ec41 0b10 	vmov	d0, r0, r1
 8009c7c:	e8bd 81f0 	ldmia.w	sp!, {r4, r5, r6, r7, r8, pc}
 8009c80:	f2a7 4713 	subw	r7, r7, #1043	; 0x413
 8009c84:	f04f 33ff 	mov.w	r3, #4294967295
 8009c88:	fa23 f707 	lsr.w	r7, r3, r7
 8009c8c:	4207      	tst	r7, r0
 8009c8e:	d0f3      	beq.n	8009c78 <floor+0x98>
 8009c90:	a30f      	add	r3, pc, #60	; (adr r3, 8009cd0 <floor+0xf0>)
 8009c92:	e9d3 2300 	ldrd	r2, r3, [r3]
 8009c96:	f7f6 faf9 	bl	800028c <__adddf3>
 8009c9a:	2200      	movs	r2, #0
 8009c9c:	2300      	movs	r3, #0
 8009c9e:	f7f6 ff3b 	bl	8000b18 <__aeabi_dcmpgt>
 8009ca2:	2800      	cmp	r0, #0
 8009ca4:	d0bf      	beq.n	8009c26 <floor+0x46>
 8009ca6:	2c00      	cmp	r4, #0
 8009ca8:	da02      	bge.n	8009cb0 <floor+0xd0>
 8009caa:	2e14      	cmp	r6, #20
 8009cac:	d103      	bne.n	8009cb6 <floor+0xd6>
 8009cae:	3401      	adds	r4, #1
 8009cb0:	ea25 0507 	bic.w	r5, r5, r7
 8009cb4:	e7b7      	b.n	8009c26 <floor+0x46>
 8009cb6:	2301      	movs	r3, #1
 8009cb8:	f1c6 0634 	rsb	r6, r6, #52	; 0x34
 8009cbc:	fa03 f606 	lsl.w	r6, r3, r6
 8009cc0:	4435      	add	r5, r6
 8009cc2:	4545      	cmp	r5, r8
 8009cc4:	bf38      	it	cc
 8009cc6:	18e4      	addcc	r4, r4, r3
 8009cc8:	e7f2      	b.n	8009cb0 <floor+0xd0>
 8009cca:	2500      	movs	r5, #0
 8009ccc:	462c      	mov	r4, r5
 8009cce:	e7aa      	b.n	8009c26 <floor+0x46>
 8009cd0:	8800759c 	.word	0x8800759c
 8009cd4:	7e37e43c 	.word	0x7e37e43c
 8009cd8:	bff00000 	.word	0xbff00000
 8009cdc:	000fffff 	.word	0x000fffff

08009ce0 <scalbn>:
 8009ce0:	b570      	push	{r4, r5, r6, lr}
 8009ce2:	ec55 4b10 	vmov	r4, r5, d0
 8009ce6:	f3c5 520a 	ubfx	r2, r5, #20, #11
 8009cea:	4606      	mov	r6, r0
 8009cec:	462b      	mov	r3, r5
 8009cee:	b99a      	cbnz	r2, 8009d18 <scalbn+0x38>
 8009cf0:	f025 4300 	bic.w	r3, r5, #2147483648	; 0x80000000
 8009cf4:	4323      	orrs	r3, r4
 8009cf6:	d036      	beq.n	8009d66 <scalbn+0x86>
 8009cf8:	4b39      	ldr	r3, [pc, #228]	; (8009de0 <scalbn+0x100>)
 8009cfa:	4629      	mov	r1, r5
 8009cfc:	ee10 0a10 	vmov	r0, s0
 8009d00:	2200      	movs	r2, #0
 8009d02:	f7f6 fc79 	bl	80005f8 <__aeabi_dmul>
 8009d06:	4b37      	ldr	r3, [pc, #220]	; (8009de4 <scalbn+0x104>)
 8009d08:	429e      	cmp	r6, r3
 8009d0a:	4604      	mov	r4, r0
 8009d0c:	460d      	mov	r5, r1
 8009d0e:	da10      	bge.n	8009d32 <scalbn+0x52>
 8009d10:	a32b      	add	r3, pc, #172	; (adr r3, 8009dc0 <scalbn+0xe0>)
 8009d12:	e9d3 2300 	ldrd	r2, r3, [r3]
 8009d16:	e03a      	b.n	8009d8e <scalbn+0xae>
 8009d18:	f240 71ff 	movw	r1, #2047	; 0x7ff
 8009d1c:	428a      	cmp	r2, r1
 8009d1e:	d10c      	bne.n	8009d3a <scalbn+0x5a>
 8009d20:	ee10 2a10 	vmov	r2, s0
 8009d24:	4620      	mov	r0, r4
 8009d26:	4629      	mov	r1, r5
 8009d28:	f7f6 fab0 	bl	800028c <__adddf3>
 8009d2c:	4604      	mov	r4, r0
 8009d2e:	460d      	mov	r5, r1
 8009d30:	e019      	b.n	8009d66 <scalbn+0x86>
 8009d32:	f3c1 520a 	ubfx	r2, r1, #20, #11
 8009d36:	460b      	mov	r3, r1
 8009d38:	3a36      	subs	r2, #54	; 0x36
 8009d3a:	4432      	add	r2, r6
 8009d3c:	f240 71fe 	movw	r1, #2046	; 0x7fe
 8009d40:	428a      	cmp	r2, r1
 8009d42:	dd08      	ble.n	8009d56 <scalbn+0x76>
 8009d44:	2d00      	cmp	r5, #0
 8009d46:	a120      	add	r1, pc, #128	; (adr r1, 8009dc8 <scalbn+0xe8>)
 8009d48:	e9d1 0100 	ldrd	r0, r1, [r1]
 8009d4c:	da1c      	bge.n	8009d88 <scalbn+0xa8>
 8009d4e:	a120      	add	r1, pc, #128	; (adr r1, 8009dd0 <scalbn+0xf0>)
 8009d50:	e9d1 0100 	ldrd	r0, r1, [r1]
 8009d54:	e018      	b.n	8009d88 <scalbn+0xa8>
 8009d56:	2a00      	cmp	r2, #0
 8009d58:	dd08      	ble.n	8009d6c <scalbn+0x8c>
 8009d5a:	f023 43ff 	bic.w	r3, r3, #2139095040	; 0x7f800000
 8009d5e:	f423 03e0 	bic.w	r3, r3, #7340032	; 0x700000
 8009d62:	ea43 5502 	orr.w	r5, r3, r2, lsl #20
 8009d66:	ec45 4b10 	vmov	d0, r4, r5
 8009d6a:	bd70      	pop	{r4, r5, r6, pc}
 8009d6c:	f112 0f35 	cmn.w	r2, #53	; 0x35
 8009d70:	da19      	bge.n	8009da6 <scalbn+0xc6>
 8009d72:	f24c 3350 	movw	r3, #50000	; 0xc350
 8009d76:	429e      	cmp	r6, r3
 8009d78:	f005 4300 	and.w	r3, r5, #2147483648	; 0x80000000
 8009d7c:	dd0a      	ble.n	8009d94 <scalbn+0xb4>
 8009d7e:	a112      	add	r1, pc, #72	; (adr r1, 8009dc8 <scalbn+0xe8>)
 8009d80:	e9d1 0100 	ldrd	r0, r1, [r1]
 8009d84:	2b00      	cmp	r3, #0
 8009d86:	d1e2      	bne.n	8009d4e <scalbn+0x6e>
 8009d88:	a30f      	add	r3, pc, #60	; (adr r3, 8009dc8 <scalbn+0xe8>)
 8009d8a:	e9d3 2300 	ldrd	r2, r3, [r3]
 8009d8e:	f7f6 fc33 	bl	80005f8 <__aeabi_dmul>
 8009d92:	e7cb      	b.n	8009d2c <scalbn+0x4c>
 8009d94:	a10a      	add	r1, pc, #40	; (adr r1, 8009dc0 <scalbn+0xe0>)
 8009d96:	e9d1 0100 	ldrd	r0, r1, [r1]
 8009d9a:	2b00      	cmp	r3, #0
 8009d9c:	d0b8      	beq.n	8009d10 <scalbn+0x30>
 8009d9e:	a10e      	add	r1, pc, #56	; (adr r1, 8009dd8 <scalbn+0xf8>)
 8009da0:	e9d1 0100 	ldrd	r0, r1, [r1]
 8009da4:	e7b4      	b.n	8009d10 <scalbn+0x30>
 8009da6:	f023 43ff 	bic.w	r3, r3, #2139095040	; 0x7f800000
 8009daa:	3236      	adds	r2, #54	; 0x36
 8009dac:	f423 03e0 	bic.w	r3, r3, #7340032	; 0x700000
 8009db0:	ea43 5102 	orr.w	r1, r3, r2, lsl #20
 8009db4:	4620      	mov	r0, r4
 8009db6:	4b0c      	ldr	r3, [pc, #48]	; (8009de8 <scalbn+0x108>)
 8009db8:	2200      	movs	r2, #0
 8009dba:	e7e8      	b.n	8009d8e <scalbn+0xae>
 8009dbc:	f3af 8000 	nop.w
 8009dc0:	c2f8f359 	.word	0xc2f8f359
 8009dc4:	01a56e1f 	.word	0x01a56e1f
 8009dc8:	8800759c 	.word	0x8800759c
 8009dcc:	7e37e43c 	.word	0x7e37e43c
 8009dd0:	8800759c 	.word	0x8800759c
 8009dd4:	fe37e43c 	.word	0xfe37e43c
 8009dd8:	c2f8f359 	.word	0xc2f8f359
 8009ddc:	81a56e1f 	.word	0x81a56e1f
 8009de0:	43500000 	.word	0x43500000
 8009de4:	ffff3cb0 	.word	0xffff3cb0
 8009de8:	3c900000 	.word	0x3c900000

08009dec <__errno>:
 8009dec:	4b01      	ldr	r3, [pc, #4]	; (8009df4 <__errno+0x8>)
 8009dee:	6818      	ldr	r0, [r3, #0]
 8009df0:	4770      	bx	lr
 8009df2:	bf00      	nop
 8009df4:	2000007c 	.word	0x2000007c

08009df8 <__libc_init_array>:
 8009df8:	b570      	push	{r4, r5, r6, lr}
 8009dfa:	4d0d      	ldr	r5, [pc, #52]	; (8009e30 <__libc_init_array+0x38>)
 8009dfc:	4c0d      	ldr	r4, [pc, #52]	; (8009e34 <__libc_init_array+0x3c>)
 8009dfe:	1b64      	subs	r4, r4, r5
 8009e00:	10a4      	asrs	r4, r4, #2
 8009e02:	2600      	movs	r6, #0
 8009e04:	42a6      	cmp	r6, r4
 8009e06:	d109      	bne.n	8009e1c <__libc_init_array+0x24>
 8009e08:	4d0b      	ldr	r5, [pc, #44]	; (8009e38 <__libc_init_array+0x40>)
 8009e0a:	4c0c      	ldr	r4, [pc, #48]	; (8009e3c <__libc_init_array+0x44>)
 8009e0c:	f001 f83c 	bl	800ae88 <_init>
 8009e10:	1b64      	subs	r4, r4, r5
 8009e12:	10a4      	asrs	r4, r4, #2
 8009e14:	2600      	movs	r6, #0
 8009e16:	42a6      	cmp	r6, r4
 8009e18:	d105      	bne.n	8009e26 <__libc_init_array+0x2e>
 8009e1a:	bd70      	pop	{r4, r5, r6, pc}
 8009e1c:	f855 3b04 	ldr.w	r3, [r5], #4
 8009e20:	4798      	blx	r3
 8009e22:	3601      	adds	r6, #1
 8009e24:	e7ee      	b.n	8009e04 <__libc_init_array+0xc>
 8009e26:	f855 3b04 	ldr.w	r3, [r5], #4
 8009e2a:	4798      	blx	r3
 8009e2c:	3601      	adds	r6, #1
 8009e2e:	e7f2      	b.n	8009e16 <__libc_init_array+0x1e>
 8009e30:	0800cce0 	.word	0x0800cce0
 8009e34:	0800cce0 	.word	0x0800cce0
 8009e38:	0800cce0 	.word	0x0800cce0
 8009e3c:	0800cce4 	.word	0x0800cce4

08009e40 <malloc>:
 8009e40:	4b02      	ldr	r3, [pc, #8]	; (8009e4c <malloc+0xc>)
 8009e42:	4601      	mov	r1, r0
 8009e44:	6818      	ldr	r0, [r3, #0]
 8009e46:	f000 b87f 	b.w	8009f48 <_malloc_r>
 8009e4a:	bf00      	nop
 8009e4c:	2000007c 	.word	0x2000007c

08009e50 <free>:
 8009e50:	4b02      	ldr	r3, [pc, #8]	; (8009e5c <free+0xc>)
 8009e52:	4601      	mov	r1, r0
 8009e54:	6818      	ldr	r0, [r3, #0]
 8009e56:	f000 b80b 	b.w	8009e70 <_free_r>
 8009e5a:	bf00      	nop
 8009e5c:	2000007c 	.word	0x2000007c

08009e60 <memset>:
 8009e60:	4402      	add	r2, r0
 8009e62:	4603      	mov	r3, r0
 8009e64:	4293      	cmp	r3, r2
 8009e66:	d100      	bne.n	8009e6a <memset+0xa>
 8009e68:	4770      	bx	lr
 8009e6a:	f803 1b01 	strb.w	r1, [r3], #1
 8009e6e:	e7f9      	b.n	8009e64 <memset+0x4>

08009e70 <_free_r>:
 8009e70:	b537      	push	{r0, r1, r2, r4, r5, lr}
 8009e72:	2900      	cmp	r1, #0
 8009e74:	d044      	beq.n	8009f00 <_free_r+0x90>
 8009e76:	f851 3c04 	ldr.w	r3, [r1, #-4]
 8009e7a:	9001      	str	r0, [sp, #4]
 8009e7c:	2b00      	cmp	r3, #0
 8009e7e:	f1a1 0404 	sub.w	r4, r1, #4
 8009e82:	bfb8      	it	lt
 8009e84:	18e4      	addlt	r4, r4, r3
 8009e86:	f000 fc59 	bl	800a73c <__malloc_lock>
 8009e8a:	4a1e      	ldr	r2, [pc, #120]	; (8009f04 <_free_r+0x94>)
 8009e8c:	9801      	ldr	r0, [sp, #4]
 8009e8e:	6813      	ldr	r3, [r2, #0]
 8009e90:	b933      	cbnz	r3, 8009ea0 <_free_r+0x30>
 8009e92:	6063      	str	r3, [r4, #4]
 8009e94:	6014      	str	r4, [r2, #0]
 8009e96:	b003      	add	sp, #12
 8009e98:	e8bd 4030 	ldmia.w	sp!, {r4, r5, lr}
 8009e9c:	f000 bc54 	b.w	800a748 <__malloc_unlock>
 8009ea0:	42a3      	cmp	r3, r4
 8009ea2:	d908      	bls.n	8009eb6 <_free_r+0x46>
 8009ea4:	6825      	ldr	r5, [r4, #0]
 8009ea6:	1961      	adds	r1, r4, r5
 8009ea8:	428b      	cmp	r3, r1
 8009eaa:	bf01      	itttt	eq
 8009eac:	6819      	ldreq	r1, [r3, #0]
 8009eae:	685b      	ldreq	r3, [r3, #4]
 8009eb0:	1949      	addeq	r1, r1, r5
 8009eb2:	6021      	streq	r1, [r4, #0]
 8009eb4:	e7ed      	b.n	8009e92 <_free_r+0x22>
 8009eb6:	461a      	mov	r2, r3
 8009eb8:	685b      	ldr	r3, [r3, #4]
 8009eba:	b10b      	cbz	r3, 8009ec0 <_free_r+0x50>
 8009ebc:	42a3      	cmp	r3, r4
 8009ebe:	d9fa      	bls.n	8009eb6 <_free_r+0x46>
 8009ec0:	6811      	ldr	r1, [r2, #0]
 8009ec2:	1855      	adds	r5, r2, r1
 8009ec4:	42a5      	cmp	r5, r4
 8009ec6:	d10b      	bne.n	8009ee0 <_free_r+0x70>
 8009ec8:	6824      	ldr	r4, [r4, #0]
 8009eca:	4421      	add	r1, r4
 8009ecc:	1854      	adds	r4, r2, r1
 8009ece:	42a3      	cmp	r3, r4
 8009ed0:	6011      	str	r1, [r2, #0]
 8009ed2:	d1e0      	bne.n	8009e96 <_free_r+0x26>
 8009ed4:	681c      	ldr	r4, [r3, #0]
 8009ed6:	685b      	ldr	r3, [r3, #4]
 8009ed8:	6053      	str	r3, [r2, #4]
 8009eda:	4421      	add	r1, r4
 8009edc:	6011      	str	r1, [r2, #0]
 8009ede:	e7da      	b.n	8009e96 <_free_r+0x26>
 8009ee0:	d902      	bls.n	8009ee8 <_free_r+0x78>
 8009ee2:	230c      	movs	r3, #12
 8009ee4:	6003      	str	r3, [r0, #0]
 8009ee6:	e7d6      	b.n	8009e96 <_free_r+0x26>
 8009ee8:	6825      	ldr	r5, [r4, #0]
 8009eea:	1961      	adds	r1, r4, r5
 8009eec:	428b      	cmp	r3, r1
 8009eee:	bf04      	itt	eq
 8009ef0:	6819      	ldreq	r1, [r3, #0]
 8009ef2:	685b      	ldreq	r3, [r3, #4]
 8009ef4:	6063      	str	r3, [r4, #4]
 8009ef6:	bf04      	itt	eq
 8009ef8:	1949      	addeq	r1, r1, r5
 8009efa:	6021      	streq	r1, [r4, #0]
 8009efc:	6054      	str	r4, [r2, #4]
 8009efe:	e7ca      	b.n	8009e96 <_free_r+0x26>
 8009f00:	b003      	add	sp, #12
 8009f02:	bd30      	pop	{r4, r5, pc}
 8009f04:	200059cc 	.word	0x200059cc

08009f08 <sbrk_aligned>:
 8009f08:	b570      	push	{r4, r5, r6, lr}
 8009f0a:	4e0e      	ldr	r6, [pc, #56]	; (8009f44 <sbrk_aligned+0x3c>)
 8009f0c:	460c      	mov	r4, r1
 8009f0e:	6831      	ldr	r1, [r6, #0]
 8009f10:	4605      	mov	r5, r0
 8009f12:	b911      	cbnz	r1, 8009f1a <sbrk_aligned+0x12>
 8009f14:	f000 f91a 	bl	800a14c <_sbrk_r>
 8009f18:	6030      	str	r0, [r6, #0]
 8009f1a:	4621      	mov	r1, r4
 8009f1c:	4628      	mov	r0, r5
 8009f1e:	f000 f915 	bl	800a14c <_sbrk_r>
 8009f22:	1c43      	adds	r3, r0, #1
 8009f24:	d00a      	beq.n	8009f3c <sbrk_aligned+0x34>
 8009f26:	1cc4      	adds	r4, r0, #3
 8009f28:	f024 0403 	bic.w	r4, r4, #3
 8009f2c:	42a0      	cmp	r0, r4
 8009f2e:	d007      	beq.n	8009f40 <sbrk_aligned+0x38>
 8009f30:	1a21      	subs	r1, r4, r0
 8009f32:	4628      	mov	r0, r5
 8009f34:	f000 f90a 	bl	800a14c <_sbrk_r>
 8009f38:	3001      	adds	r0, #1
 8009f3a:	d101      	bne.n	8009f40 <sbrk_aligned+0x38>
 8009f3c:	f04f 34ff 	mov.w	r4, #4294967295
 8009f40:	4620      	mov	r0, r4
 8009f42:	bd70      	pop	{r4, r5, r6, pc}
 8009f44:	200059d0 	.word	0x200059d0

08009f48 <_malloc_r>:
 8009f48:	e92d 41f0 	stmdb	sp!, {r4, r5, r6, r7, r8, lr}
 8009f4c:	1ccd      	adds	r5, r1, #3
 8009f4e:	f025 0503 	bic.w	r5, r5, #3
 8009f52:	3508      	adds	r5, #8
 8009f54:	2d0c      	cmp	r5, #12
 8009f56:	bf38      	it	cc
 8009f58:	250c      	movcc	r5, #12
 8009f5a:	2d00      	cmp	r5, #0
 8009f5c:	4607      	mov	r7, r0
 8009f5e:	db01      	blt.n	8009f64 <_malloc_r+0x1c>
 8009f60:	42a9      	cmp	r1, r5
 8009f62:	d905      	bls.n	8009f70 <_malloc_r+0x28>
 8009f64:	230c      	movs	r3, #12
 8009f66:	603b      	str	r3, [r7, #0]
 8009f68:	2600      	movs	r6, #0
 8009f6a:	4630      	mov	r0, r6
 8009f6c:	e8bd 81f0 	ldmia.w	sp!, {r4, r5, r6, r7, r8, pc}
 8009f70:	4e2e      	ldr	r6, [pc, #184]	; (800a02c <_malloc_r+0xe4>)
 8009f72:	f000 fbe3 	bl	800a73c <__malloc_lock>
 8009f76:	6833      	ldr	r3, [r6, #0]
 8009f78:	461c      	mov	r4, r3
 8009f7a:	bb34      	cbnz	r4, 8009fca <_malloc_r+0x82>
 8009f7c:	4629      	mov	r1, r5
 8009f7e:	4638      	mov	r0, r7
 8009f80:	f7ff ffc2 	bl	8009f08 <sbrk_aligned>
 8009f84:	1c43      	adds	r3, r0, #1
 8009f86:	4604      	mov	r4, r0
 8009f88:	d14d      	bne.n	800a026 <_malloc_r+0xde>
 8009f8a:	6834      	ldr	r4, [r6, #0]
 8009f8c:	4626      	mov	r6, r4
 8009f8e:	2e00      	cmp	r6, #0
 8009f90:	d140      	bne.n	800a014 <_malloc_r+0xcc>
 8009f92:	6823      	ldr	r3, [r4, #0]
 8009f94:	4631      	mov	r1, r6
 8009f96:	4638      	mov	r0, r7
 8009f98:	eb04 0803 	add.w	r8, r4, r3
 8009f9c:	f000 f8d6 	bl	800a14c <_sbrk_r>
 8009fa0:	4580      	cmp	r8, r0
 8009fa2:	d13a      	bne.n	800a01a <_malloc_r+0xd2>
 8009fa4:	6821      	ldr	r1, [r4, #0]
 8009fa6:	3503      	adds	r5, #3
 8009fa8:	1a6d      	subs	r5, r5, r1
 8009faa:	f025 0503 	bic.w	r5, r5, #3
 8009fae:	3508      	adds	r5, #8
 8009fb0:	2d0c      	cmp	r5, #12
 8009fb2:	bf38      	it	cc
 8009fb4:	250c      	movcc	r5, #12
 8009fb6:	4629      	mov	r1, r5
 8009fb8:	4638      	mov	r0, r7
 8009fba:	f7ff ffa5 	bl	8009f08 <sbrk_aligned>
 8009fbe:	3001      	adds	r0, #1
 8009fc0:	d02b      	beq.n	800a01a <_malloc_r+0xd2>
 8009fc2:	6823      	ldr	r3, [r4, #0]
 8009fc4:	442b      	add	r3, r5
 8009fc6:	6023      	str	r3, [r4, #0]
 8009fc8:	e00e      	b.n	8009fe8 <_malloc_r+0xa0>
 8009fca:	6822      	ldr	r2, [r4, #0]
 8009fcc:	1b52      	subs	r2, r2, r5
 8009fce:	d41e      	bmi.n	800a00e <_malloc_r+0xc6>
 8009fd0:	2a0b      	cmp	r2, #11
 8009fd2:	d916      	bls.n	800a002 <_malloc_r+0xba>
 8009fd4:	1961      	adds	r1, r4, r5
 8009fd6:	42a3      	cmp	r3, r4
 8009fd8:	6025      	str	r5, [r4, #0]
 8009fda:	bf18      	it	ne
 8009fdc:	6059      	strne	r1, [r3, #4]
 8009fde:	6863      	ldr	r3, [r4, #4]
 8009fe0:	bf08      	it	eq
 8009fe2:	6031      	streq	r1, [r6, #0]
 8009fe4:	5162      	str	r2, [r4, r5]
 8009fe6:	604b      	str	r3, [r1, #4]
 8009fe8:	4638      	mov	r0, r7
 8009fea:	f104 060b 	add.w	r6, r4, #11
 8009fee:	f000 fbab 	bl	800a748 <__malloc_unlock>
 8009ff2:	f026 0607 	bic.w	r6, r6, #7
 8009ff6:	1d23      	adds	r3, r4, #4
 8009ff8:	1af2      	subs	r2, r6, r3
 8009ffa:	d0b6      	beq.n	8009f6a <_malloc_r+0x22>
 8009ffc:	1b9b      	subs	r3, r3, r6
 8009ffe:	50a3      	str	r3, [r4, r2]
 800a000:	e7b3      	b.n	8009f6a <_malloc_r+0x22>
 800a002:	6862      	ldr	r2, [r4, #4]
 800a004:	42a3      	cmp	r3, r4
 800a006:	bf0c      	ite	eq
 800a008:	6032      	streq	r2, [r6, #0]
 800a00a:	605a      	strne	r2, [r3, #4]
 800a00c:	e7ec      	b.n	8009fe8 <_malloc_r+0xa0>
 800a00e:	4623      	mov	r3, r4
 800a010:	6864      	ldr	r4, [r4, #4]
 800a012:	e7b2      	b.n	8009f7a <_malloc_r+0x32>
 800a014:	4634      	mov	r4, r6
 800a016:	6876      	ldr	r6, [r6, #4]
 800a018:	e7b9      	b.n	8009f8e <_malloc_r+0x46>
 800a01a:	230c      	movs	r3, #12
 800a01c:	603b      	str	r3, [r7, #0]
 800a01e:	4638      	mov	r0, r7
 800a020:	f000 fb92 	bl	800a748 <__malloc_unlock>
 800a024:	e7a1      	b.n	8009f6a <_malloc_r+0x22>
 800a026:	6025      	str	r5, [r4, #0]
 800a028:	e7de      	b.n	8009fe8 <_malloc_r+0xa0>
 800a02a:	bf00      	nop
 800a02c:	200059cc 	.word	0x200059cc

0800a030 <iprintf>:
 800a030:	b40f      	push	{r0, r1, r2, r3}
 800a032:	4b0a      	ldr	r3, [pc, #40]	; (800a05c <iprintf+0x2c>)
 800a034:	b513      	push	{r0, r1, r4, lr}
 800a036:	681c      	ldr	r4, [r3, #0]
 800a038:	b124      	cbz	r4, 800a044 <iprintf+0x14>
 800a03a:	69a3      	ldr	r3, [r4, #24]
 800a03c:	b913      	cbnz	r3, 800a044 <iprintf+0x14>
 800a03e:	4620      	mov	r0, r4
 800a040:	f000 fa76 	bl	800a530 <__sinit>
 800a044:	ab05      	add	r3, sp, #20
 800a046:	9a04      	ldr	r2, [sp, #16]
 800a048:	68a1      	ldr	r1, [r4, #8]
 800a04a:	9301      	str	r3, [sp, #4]
 800a04c:	4620      	mov	r0, r4
 800a04e:	f000 fbab 	bl	800a7a8 <_vfiprintf_r>
 800a052:	b002      	add	sp, #8
 800a054:	e8bd 4010 	ldmia.w	sp!, {r4, lr}
 800a058:	b004      	add	sp, #16
 800a05a:	4770      	bx	lr
 800a05c:	2000007c 	.word	0x2000007c

0800a060 <_puts_r>:
 800a060:	b570      	push	{r4, r5, r6, lr}
 800a062:	460e      	mov	r6, r1
 800a064:	4605      	mov	r5, r0
 800a066:	b118      	cbz	r0, 800a070 <_puts_r+0x10>
 800a068:	6983      	ldr	r3, [r0, #24]
 800a06a:	b90b      	cbnz	r3, 800a070 <_puts_r+0x10>
 800a06c:	f000 fa60 	bl	800a530 <__sinit>
 800a070:	69ab      	ldr	r3, [r5, #24]
 800a072:	68ac      	ldr	r4, [r5, #8]
 800a074:	b913      	cbnz	r3, 800a07c <_puts_r+0x1c>
 800a076:	4628      	mov	r0, r5
 800a078:	f000 fa5a 	bl	800a530 <__sinit>
 800a07c:	4b2c      	ldr	r3, [pc, #176]	; (800a130 <_puts_r+0xd0>)
 800a07e:	429c      	cmp	r4, r3
 800a080:	d120      	bne.n	800a0c4 <_puts_r+0x64>
 800a082:	686c      	ldr	r4, [r5, #4]
 800a084:	6e63      	ldr	r3, [r4, #100]	; 0x64
 800a086:	07db      	lsls	r3, r3, #31
 800a088:	d405      	bmi.n	800a096 <_puts_r+0x36>
 800a08a:	89a3      	ldrh	r3, [r4, #12]
 800a08c:	0598      	lsls	r0, r3, #22
 800a08e:	d402      	bmi.n	800a096 <_puts_r+0x36>
 800a090:	6da0      	ldr	r0, [r4, #88]	; 0x58
 800a092:	f000 faeb 	bl	800a66c <__retarget_lock_acquire_recursive>
 800a096:	89a3      	ldrh	r3, [r4, #12]
 800a098:	0719      	lsls	r1, r3, #28
 800a09a:	d51d      	bpl.n	800a0d8 <_puts_r+0x78>
 800a09c:	6923      	ldr	r3, [r4, #16]
 800a09e:	b1db      	cbz	r3, 800a0d8 <_puts_r+0x78>
 800a0a0:	3e01      	subs	r6, #1
 800a0a2:	68a3      	ldr	r3, [r4, #8]
 800a0a4:	f816 1f01 	ldrb.w	r1, [r6, #1]!
 800a0a8:	3b01      	subs	r3, #1
 800a0aa:	60a3      	str	r3, [r4, #8]
 800a0ac:	bb39      	cbnz	r1, 800a0fe <_puts_r+0x9e>
 800a0ae:	2b00      	cmp	r3, #0
 800a0b0:	da38      	bge.n	800a124 <_puts_r+0xc4>
 800a0b2:	4622      	mov	r2, r4
 800a0b4:	210a      	movs	r1, #10
 800a0b6:	4628      	mov	r0, r5
 800a0b8:	f000 f860 	bl	800a17c <__swbuf_r>
 800a0bc:	3001      	adds	r0, #1
 800a0be:	d011      	beq.n	800a0e4 <_puts_r+0x84>
 800a0c0:	250a      	movs	r5, #10
 800a0c2:	e011      	b.n	800a0e8 <_puts_r+0x88>
 800a0c4:	4b1b      	ldr	r3, [pc, #108]	; (800a134 <_puts_r+0xd4>)
 800a0c6:	429c      	cmp	r4, r3
 800a0c8:	d101      	bne.n	800a0ce <_puts_r+0x6e>
 800a0ca:	68ac      	ldr	r4, [r5, #8]
 800a0cc:	e7da      	b.n	800a084 <_puts_r+0x24>
 800a0ce:	4b1a      	ldr	r3, [pc, #104]	; (800a138 <_puts_r+0xd8>)
 800a0d0:	429c      	cmp	r4, r3
 800a0d2:	bf08      	it	eq
 800a0d4:	68ec      	ldreq	r4, [r5, #12]
 800a0d6:	e7d5      	b.n	800a084 <_puts_r+0x24>
 800a0d8:	4621      	mov	r1, r4
 800a0da:	4628      	mov	r0, r5
 800a0dc:	f000 f8a0 	bl	800a220 <__swsetup_r>
 800a0e0:	2800      	cmp	r0, #0
 800a0e2:	d0dd      	beq.n	800a0a0 <_puts_r+0x40>
 800a0e4:	f04f 35ff 	mov.w	r5, #4294967295
 800a0e8:	6e63      	ldr	r3, [r4, #100]	; 0x64
 800a0ea:	07da      	lsls	r2, r3, #31
 800a0ec:	d405      	bmi.n	800a0fa <_puts_r+0x9a>
 800a0ee:	89a3      	ldrh	r3, [r4, #12]
 800a0f0:	059b      	lsls	r3, r3, #22
 800a0f2:	d402      	bmi.n	800a0fa <_puts_r+0x9a>
 800a0f4:	6da0      	ldr	r0, [r4, #88]	; 0x58
 800a0f6:	f000 faba 	bl	800a66e <__retarget_lock_release_recursive>
 800a0fa:	4628      	mov	r0, r5
 800a0fc:	bd70      	pop	{r4, r5, r6, pc}
 800a0fe:	2b00      	cmp	r3, #0
 800a100:	da04      	bge.n	800a10c <_puts_r+0xac>
 800a102:	69a2      	ldr	r2, [r4, #24]
 800a104:	429a      	cmp	r2, r3
 800a106:	dc06      	bgt.n	800a116 <_puts_r+0xb6>
 800a108:	290a      	cmp	r1, #10
 800a10a:	d004      	beq.n	800a116 <_puts_r+0xb6>
 800a10c:	6823      	ldr	r3, [r4, #0]
 800a10e:	1c5a      	adds	r2, r3, #1
 800a110:	6022      	str	r2, [r4, #0]
 800a112:	7019      	strb	r1, [r3, #0]
 800a114:	e7c5      	b.n	800a0a2 <_puts_r+0x42>
 800a116:	4622      	mov	r2, r4
 800a118:	4628      	mov	r0, r5
 800a11a:	f000 f82f 	bl	800a17c <__swbuf_r>
 800a11e:	3001      	adds	r0, #1
 800a120:	d1bf      	bne.n	800a0a2 <_puts_r+0x42>
 800a122:	e7df      	b.n	800a0e4 <_puts_r+0x84>
 800a124:	6823      	ldr	r3, [r4, #0]
 800a126:	250a      	movs	r5, #10
 800a128:	1c5a      	adds	r2, r3, #1
 800a12a:	6022      	str	r2, [r4, #0]
 800a12c:	701d      	strb	r5, [r3, #0]
 800a12e:	e7db      	b.n	800a0e8 <_puts_r+0x88>
 800a130:	0800cc64 	.word	0x0800cc64
 800a134:	0800cc84 	.word	0x0800cc84
 800a138:	0800cc44 	.word	0x0800cc44

0800a13c <puts>:
 800a13c:	4b02      	ldr	r3, [pc, #8]	; (800a148 <puts+0xc>)
 800a13e:	4601      	mov	r1, r0
 800a140:	6818      	ldr	r0, [r3, #0]
 800a142:	f7ff bf8d 	b.w	800a060 <_puts_r>
 800a146:	bf00      	nop
 800a148:	2000007c 	.word	0x2000007c

0800a14c <_sbrk_r>:
 800a14c:	b538      	push	{r3, r4, r5, lr}
 800a14e:	4d06      	ldr	r5, [pc, #24]	; (800a168 <_sbrk_r+0x1c>)
 800a150:	2300      	movs	r3, #0
 800a152:	4604      	mov	r4, r0
 800a154:	4608      	mov	r0, r1
 800a156:	602b      	str	r3, [r5, #0]
 800a158:	f7f7 fcf8 	bl	8001b4c <_sbrk>
 800a15c:	1c43      	adds	r3, r0, #1
 800a15e:	d102      	bne.n	800a166 <_sbrk_r+0x1a>
 800a160:	682b      	ldr	r3, [r5, #0]
 800a162:	b103      	cbz	r3, 800a166 <_sbrk_r+0x1a>
 800a164:	6023      	str	r3, [r4, #0]
 800a166:	bd38      	pop	{r3, r4, r5, pc}
 800a168:	200059d8 	.word	0x200059d8

0800a16c <strcpy>:
 800a16c:	4603      	mov	r3, r0
 800a16e:	f811 2b01 	ldrb.w	r2, [r1], #1
 800a172:	f803 2b01 	strb.w	r2, [r3], #1
 800a176:	2a00      	cmp	r2, #0
 800a178:	d1f9      	bne.n	800a16e <strcpy+0x2>
 800a17a:	4770      	bx	lr

0800a17c <__swbuf_r>:
 800a17c:	b5f8      	push	{r3, r4, r5, r6, r7, lr}
 800a17e:	460e      	mov	r6, r1
 800a180:	4614      	mov	r4, r2
 800a182:	4605      	mov	r5, r0
 800a184:	b118      	cbz	r0, 800a18e <__swbuf_r+0x12>
 800a186:	6983      	ldr	r3, [r0, #24]
 800a188:	b90b      	cbnz	r3, 800a18e <__swbuf_r+0x12>
 800a18a:	f000 f9d1 	bl	800a530 <__sinit>
 800a18e:	4b21      	ldr	r3, [pc, #132]	; (800a214 <__swbuf_r+0x98>)
 800a190:	429c      	cmp	r4, r3
 800a192:	d12b      	bne.n	800a1ec <__swbuf_r+0x70>
 800a194:	686c      	ldr	r4, [r5, #4]
 800a196:	69a3      	ldr	r3, [r4, #24]
 800a198:	60a3      	str	r3, [r4, #8]
 800a19a:	89a3      	ldrh	r3, [r4, #12]
 800a19c:	071a      	lsls	r2, r3, #28
 800a19e:	d52f      	bpl.n	800a200 <__swbuf_r+0x84>
 800a1a0:	6923      	ldr	r3, [r4, #16]
 800a1a2:	b36b      	cbz	r3, 800a200 <__swbuf_r+0x84>
 800a1a4:	6923      	ldr	r3, [r4, #16]
 800a1a6:	6820      	ldr	r0, [r4, #0]
 800a1a8:	1ac0      	subs	r0, r0, r3
 800a1aa:	6963      	ldr	r3, [r4, #20]
 800a1ac:	b2f6      	uxtb	r6, r6
 800a1ae:	4283      	cmp	r3, r0
 800a1b0:	4637      	mov	r7, r6
 800a1b2:	dc04      	bgt.n	800a1be <__swbuf_r+0x42>
 800a1b4:	4621      	mov	r1, r4
 800a1b6:	4628      	mov	r0, r5
 800a1b8:	f000 f926 	bl	800a408 <_fflush_r>
 800a1bc:	bb30      	cbnz	r0, 800a20c <__swbuf_r+0x90>
 800a1be:	68a3      	ldr	r3, [r4, #8]
 800a1c0:	3b01      	subs	r3, #1
 800a1c2:	60a3      	str	r3, [r4, #8]
 800a1c4:	6823      	ldr	r3, [r4, #0]
 800a1c6:	1c5a      	adds	r2, r3, #1
 800a1c8:	6022      	str	r2, [r4, #0]
 800a1ca:	701e      	strb	r6, [r3, #0]
 800a1cc:	6963      	ldr	r3, [r4, #20]
 800a1ce:	3001      	adds	r0, #1
 800a1d0:	4283      	cmp	r3, r0
 800a1d2:	d004      	beq.n	800a1de <__swbuf_r+0x62>
 800a1d4:	89a3      	ldrh	r3, [r4, #12]
 800a1d6:	07db      	lsls	r3, r3, #31
 800a1d8:	d506      	bpl.n	800a1e8 <__swbuf_r+0x6c>
 800a1da:	2e0a      	cmp	r6, #10
 800a1dc:	d104      	bne.n	800a1e8 <__swbuf_r+0x6c>
 800a1de:	4621      	mov	r1, r4
 800a1e0:	4628      	mov	r0, r5
 800a1e2:	f000 f911 	bl	800a408 <_fflush_r>
 800a1e6:	b988      	cbnz	r0, 800a20c <__swbuf_r+0x90>
 800a1e8:	4638      	mov	r0, r7
 800a1ea:	bdf8      	pop	{r3, r4, r5, r6, r7, pc}
 800a1ec:	4b0a      	ldr	r3, [pc, #40]	; (800a218 <__swbuf_r+0x9c>)
 800a1ee:	429c      	cmp	r4, r3
 800a1f0:	d101      	bne.n	800a1f6 <__swbuf_r+0x7a>
 800a1f2:	68ac      	ldr	r4, [r5, #8]
 800a1f4:	e7cf      	b.n	800a196 <__swbuf_r+0x1a>
 800a1f6:	4b09      	ldr	r3, [pc, #36]	; (800a21c <__swbuf_r+0xa0>)
 800a1f8:	429c      	cmp	r4, r3
 800a1fa:	bf08      	it	eq
 800a1fc:	68ec      	ldreq	r4, [r5, #12]
 800a1fe:	e7ca      	b.n	800a196 <__swbuf_r+0x1a>
 800a200:	4621      	mov	r1, r4
 800a202:	4628      	mov	r0, r5
 800a204:	f000 f80c 	bl	800a220 <__swsetup_r>
 800a208:	2800      	cmp	r0, #0
 800a20a:	d0cb      	beq.n	800a1a4 <__swbuf_r+0x28>
 800a20c:	f04f 37ff 	mov.w	r7, #4294967295
 800a210:	e7ea      	b.n	800a1e8 <__swbuf_r+0x6c>
 800a212:	bf00      	nop
 800a214:	0800cc64 	.word	0x0800cc64
 800a218:	0800cc84 	.word	0x0800cc84
 800a21c:	0800cc44 	.word	0x0800cc44

0800a220 <__swsetup_r>:
 800a220:	4b32      	ldr	r3, [pc, #200]	; (800a2ec <__swsetup_r+0xcc>)
 800a222:	b570      	push	{r4, r5, r6, lr}
 800a224:	681d      	ldr	r5, [r3, #0]
 800a226:	4606      	mov	r6, r0
 800a228:	460c      	mov	r4, r1
 800a22a:	b125      	cbz	r5, 800a236 <__swsetup_r+0x16>
 800a22c:	69ab      	ldr	r3, [r5, #24]
 800a22e:	b913      	cbnz	r3, 800a236 <__swsetup_r+0x16>
 800a230:	4628      	mov	r0, r5
 800a232:	f000 f97d 	bl	800a530 <__sinit>
 800a236:	4b2e      	ldr	r3, [pc, #184]	; (800a2f0 <__swsetup_r+0xd0>)
 800a238:	429c      	cmp	r4, r3
 800a23a:	d10f      	bne.n	800a25c <__swsetup_r+0x3c>
 800a23c:	686c      	ldr	r4, [r5, #4]
 800a23e:	89a3      	ldrh	r3, [r4, #12]
 800a240:	f9b4 200c 	ldrsh.w	r2, [r4, #12]
 800a244:	0719      	lsls	r1, r3, #28
 800a246:	d42c      	bmi.n	800a2a2 <__swsetup_r+0x82>
 800a248:	06dd      	lsls	r5, r3, #27
 800a24a:	d411      	bmi.n	800a270 <__swsetup_r+0x50>
 800a24c:	2309      	movs	r3, #9
 800a24e:	6033      	str	r3, [r6, #0]
 800a250:	f042 0340 	orr.w	r3, r2, #64	; 0x40
 800a254:	81a3      	strh	r3, [r4, #12]
 800a256:	f04f 30ff 	mov.w	r0, #4294967295
 800a25a:	e03e      	b.n	800a2da <__swsetup_r+0xba>
 800a25c:	4b25      	ldr	r3, [pc, #148]	; (800a2f4 <__swsetup_r+0xd4>)
 800a25e:	429c      	cmp	r4, r3
 800a260:	d101      	bne.n	800a266 <__swsetup_r+0x46>
 800a262:	68ac      	ldr	r4, [r5, #8]
 800a264:	e7eb      	b.n	800a23e <__swsetup_r+0x1e>
 800a266:	4b24      	ldr	r3, [pc, #144]	; (800a2f8 <__swsetup_r+0xd8>)
 800a268:	429c      	cmp	r4, r3
 800a26a:	bf08      	it	eq
 800a26c:	68ec      	ldreq	r4, [r5, #12]
 800a26e:	e7e6      	b.n	800a23e <__swsetup_r+0x1e>
 800a270:	0758      	lsls	r0, r3, #29
 800a272:	d512      	bpl.n	800a29a <__swsetup_r+0x7a>
 800a274:	6b61      	ldr	r1, [r4, #52]	; 0x34
 800a276:	b141      	cbz	r1, 800a28a <__swsetup_r+0x6a>
 800a278:	f104 0344 	add.w	r3, r4, #68	; 0x44
 800a27c:	4299      	cmp	r1, r3
 800a27e:	d002      	beq.n	800a286 <__swsetup_r+0x66>
 800a280:	4630      	mov	r0, r6
 800a282:	f7ff fdf5 	bl	8009e70 <_free_r>
 800a286:	2300      	movs	r3, #0
 800a288:	6363      	str	r3, [r4, #52]	; 0x34
 800a28a:	89a3      	ldrh	r3, [r4, #12]
 800a28c:	f023 0324 	bic.w	r3, r3, #36	; 0x24
 800a290:	81a3      	strh	r3, [r4, #12]
 800a292:	2300      	movs	r3, #0
 800a294:	6063      	str	r3, [r4, #4]
 800a296:	6923      	ldr	r3, [r4, #16]
 800a298:	6023      	str	r3, [r4, #0]
 800a29a:	89a3      	ldrh	r3, [r4, #12]
 800a29c:	f043 0308 	orr.w	r3, r3, #8
 800a2a0:	81a3      	strh	r3, [r4, #12]
 800a2a2:	6923      	ldr	r3, [r4, #16]
 800a2a4:	b94b      	cbnz	r3, 800a2ba <__swsetup_r+0x9a>
 800a2a6:	89a3      	ldrh	r3, [r4, #12]
 800a2a8:	f403 7320 	and.w	r3, r3, #640	; 0x280
 800a2ac:	f5b3 7f00 	cmp.w	r3, #512	; 0x200
 800a2b0:	d003      	beq.n	800a2ba <__swsetup_r+0x9a>
 800a2b2:	4621      	mov	r1, r4
 800a2b4:	4630      	mov	r0, r6
 800a2b6:	f000 fa01 	bl	800a6bc <__smakebuf_r>
 800a2ba:	89a0      	ldrh	r0, [r4, #12]
 800a2bc:	f9b4 200c 	ldrsh.w	r2, [r4, #12]
 800a2c0:	f010 0301 	ands.w	r3, r0, #1
 800a2c4:	d00a      	beq.n	800a2dc <__swsetup_r+0xbc>
 800a2c6:	2300      	movs	r3, #0
 800a2c8:	60a3      	str	r3, [r4, #8]
 800a2ca:	6963      	ldr	r3, [r4, #20]
 800a2cc:	425b      	negs	r3, r3
 800a2ce:	61a3      	str	r3, [r4, #24]
 800a2d0:	6923      	ldr	r3, [r4, #16]
 800a2d2:	b943      	cbnz	r3, 800a2e6 <__swsetup_r+0xc6>
 800a2d4:	f010 0080 	ands.w	r0, r0, #128	; 0x80
 800a2d8:	d1ba      	bne.n	800a250 <__swsetup_r+0x30>
 800a2da:	bd70      	pop	{r4, r5, r6, pc}
 800a2dc:	0781      	lsls	r1, r0, #30
 800a2de:	bf58      	it	pl
 800a2e0:	6963      	ldrpl	r3, [r4, #20]
 800a2e2:	60a3      	str	r3, [r4, #8]
 800a2e4:	e7f4      	b.n	800a2d0 <__swsetup_r+0xb0>
 800a2e6:	2000      	movs	r0, #0
 800a2e8:	e7f7      	b.n	800a2da <__swsetup_r+0xba>
 800a2ea:	bf00      	nop
 800a2ec:	2000007c 	.word	0x2000007c
 800a2f0:	0800cc64 	.word	0x0800cc64
 800a2f4:	0800cc84 	.word	0x0800cc84
 800a2f8:	0800cc44 	.word	0x0800cc44

0800a2fc <__sflush_r>:
 800a2fc:	898a      	ldrh	r2, [r1, #12]
 800a2fe:	e92d 41f0 	stmdb	sp!, {r4, r5, r6, r7, r8, lr}
 800a302:	4605      	mov	r5, r0
 800a304:	0710      	lsls	r0, r2, #28
 800a306:	460c      	mov	r4, r1
 800a308:	d458      	bmi.n	800a3bc <__sflush_r+0xc0>
 800a30a:	684b      	ldr	r3, [r1, #4]
 800a30c:	2b00      	cmp	r3, #0
 800a30e:	dc05      	bgt.n	800a31c <__sflush_r+0x20>
 800a310:	6c0b      	ldr	r3, [r1, #64]	; 0x40
 800a312:	2b00      	cmp	r3, #0
 800a314:	dc02      	bgt.n	800a31c <__sflush_r+0x20>
 800a316:	2000      	movs	r0, #0
 800a318:	e8bd 81f0 	ldmia.w	sp!, {r4, r5, r6, r7, r8, pc}
 800a31c:	6ae6      	ldr	r6, [r4, #44]	; 0x2c
 800a31e:	2e00      	cmp	r6, #0
 800a320:	d0f9      	beq.n	800a316 <__sflush_r+0x1a>
 800a322:	2300      	movs	r3, #0
 800a324:	f412 5280 	ands.w	r2, r2, #4096	; 0x1000
 800a328:	682f      	ldr	r7, [r5, #0]
 800a32a:	602b      	str	r3, [r5, #0]
 800a32c:	d032      	beq.n	800a394 <__sflush_r+0x98>
 800a32e:	6d60      	ldr	r0, [r4, #84]	; 0x54
 800a330:	89a3      	ldrh	r3, [r4, #12]
 800a332:	075a      	lsls	r2, r3, #29
 800a334:	d505      	bpl.n	800a342 <__sflush_r+0x46>
 800a336:	6863      	ldr	r3, [r4, #4]
 800a338:	1ac0      	subs	r0, r0, r3
 800a33a:	6b63      	ldr	r3, [r4, #52]	; 0x34
 800a33c:	b10b      	cbz	r3, 800a342 <__sflush_r+0x46>
 800a33e:	6c23      	ldr	r3, [r4, #64]	; 0x40
 800a340:	1ac0      	subs	r0, r0, r3
 800a342:	2300      	movs	r3, #0
 800a344:	4602      	mov	r2, r0
 800a346:	6ae6      	ldr	r6, [r4, #44]	; 0x2c
 800a348:	6a21      	ldr	r1, [r4, #32]
 800a34a:	4628      	mov	r0, r5
 800a34c:	47b0      	blx	r6
 800a34e:	1c43      	adds	r3, r0, #1
 800a350:	89a3      	ldrh	r3, [r4, #12]
 800a352:	d106      	bne.n	800a362 <__sflush_r+0x66>
 800a354:	6829      	ldr	r1, [r5, #0]
 800a356:	291d      	cmp	r1, #29
 800a358:	d82c      	bhi.n	800a3b4 <__sflush_r+0xb8>
 800a35a:	4a2a      	ldr	r2, [pc, #168]	; (800a404 <__sflush_r+0x108>)
 800a35c:	40ca      	lsrs	r2, r1
 800a35e:	07d6      	lsls	r6, r2, #31
 800a360:	d528      	bpl.n	800a3b4 <__sflush_r+0xb8>
 800a362:	2200      	movs	r2, #0
 800a364:	6062      	str	r2, [r4, #4]
 800a366:	04d9      	lsls	r1, r3, #19
 800a368:	6922      	ldr	r2, [r4, #16]
 800a36a:	6022      	str	r2, [r4, #0]
 800a36c:	d504      	bpl.n	800a378 <__sflush_r+0x7c>
 800a36e:	1c42      	adds	r2, r0, #1
 800a370:	d101      	bne.n	800a376 <__sflush_r+0x7a>
 800a372:	682b      	ldr	r3, [r5, #0]
 800a374:	b903      	cbnz	r3, 800a378 <__sflush_r+0x7c>
 800a376:	6560      	str	r0, [r4, #84]	; 0x54
 800a378:	6b61      	ldr	r1, [r4, #52]	; 0x34
 800a37a:	602f      	str	r7, [r5, #0]
 800a37c:	2900      	cmp	r1, #0
 800a37e:	d0ca      	beq.n	800a316 <__sflush_r+0x1a>
 800a380:	f104 0344 	add.w	r3, r4, #68	; 0x44
 800a384:	4299      	cmp	r1, r3
 800a386:	d002      	beq.n	800a38e <__sflush_r+0x92>
 800a388:	4628      	mov	r0, r5
 800a38a:	f7ff fd71 	bl	8009e70 <_free_r>
 800a38e:	2000      	movs	r0, #0
 800a390:	6360      	str	r0, [r4, #52]	; 0x34
 800a392:	e7c1      	b.n	800a318 <__sflush_r+0x1c>
 800a394:	6a21      	ldr	r1, [r4, #32]
 800a396:	2301      	movs	r3, #1
 800a398:	4628      	mov	r0, r5
 800a39a:	47b0      	blx	r6
 800a39c:	1c41      	adds	r1, r0, #1
 800a39e:	d1c7      	bne.n	800a330 <__sflush_r+0x34>
 800a3a0:	682b      	ldr	r3, [r5, #0]
 800a3a2:	2b00      	cmp	r3, #0
 800a3a4:	d0c4      	beq.n	800a330 <__sflush_r+0x34>
 800a3a6:	2b1d      	cmp	r3, #29
 800a3a8:	d001      	beq.n	800a3ae <__sflush_r+0xb2>
 800a3aa:	2b16      	cmp	r3, #22
 800a3ac:	d101      	bne.n	800a3b2 <__sflush_r+0xb6>
 800a3ae:	602f      	str	r7, [r5, #0]
 800a3b0:	e7b1      	b.n	800a316 <__sflush_r+0x1a>
 800a3b2:	89a3      	ldrh	r3, [r4, #12]
 800a3b4:	f043 0340 	orr.w	r3, r3, #64	; 0x40
 800a3b8:	81a3      	strh	r3, [r4, #12]
 800a3ba:	e7ad      	b.n	800a318 <__sflush_r+0x1c>
 800a3bc:	690f      	ldr	r7, [r1, #16]
 800a3be:	2f00      	cmp	r7, #0
 800a3c0:	d0a9      	beq.n	800a316 <__sflush_r+0x1a>
 800a3c2:	0793      	lsls	r3, r2, #30
 800a3c4:	680e      	ldr	r6, [r1, #0]
 800a3c6:	bf08      	it	eq
 800a3c8:	694b      	ldreq	r3, [r1, #20]
 800a3ca:	600f      	str	r7, [r1, #0]
 800a3cc:	bf18      	it	ne
 800a3ce:	2300      	movne	r3, #0
 800a3d0:	eba6 0807 	sub.w	r8, r6, r7
 800a3d4:	608b      	str	r3, [r1, #8]
 800a3d6:	f1b8 0f00 	cmp.w	r8, #0
 800a3da:	dd9c      	ble.n	800a316 <__sflush_r+0x1a>
 800a3dc:	6a21      	ldr	r1, [r4, #32]
 800a3de:	6aa6      	ldr	r6, [r4, #40]	; 0x28
 800a3e0:	4643      	mov	r3, r8
 800a3e2:	463a      	mov	r2, r7
 800a3e4:	4628      	mov	r0, r5
 800a3e6:	47b0      	blx	r6
 800a3e8:	2800      	cmp	r0, #0
 800a3ea:	dc06      	bgt.n	800a3fa <__sflush_r+0xfe>
 800a3ec:	89a3      	ldrh	r3, [r4, #12]
 800a3ee:	f043 0340 	orr.w	r3, r3, #64	; 0x40
 800a3f2:	81a3      	strh	r3, [r4, #12]
 800a3f4:	f04f 30ff 	mov.w	r0, #4294967295
 800a3f8:	e78e      	b.n	800a318 <__sflush_r+0x1c>
 800a3fa:	4407      	add	r7, r0
 800a3fc:	eba8 0800 	sub.w	r8, r8, r0
 800a400:	e7e9      	b.n	800a3d6 <__sflush_r+0xda>
 800a402:	bf00      	nop
 800a404:	20400001 	.word	0x20400001

0800a408 <_fflush_r>:
 800a408:	b538      	push	{r3, r4, r5, lr}
 800a40a:	690b      	ldr	r3, [r1, #16]
 800a40c:	4605      	mov	r5, r0
 800a40e:	460c      	mov	r4, r1
 800a410:	b913      	cbnz	r3, 800a418 <_fflush_r+0x10>
 800a412:	2500      	movs	r5, #0
 800a414:	4628      	mov	r0, r5
 800a416:	bd38      	pop	{r3, r4, r5, pc}
 800a418:	b118      	cbz	r0, 800a422 <_fflush_r+0x1a>
 800a41a:	6983      	ldr	r3, [r0, #24]
 800a41c:	b90b      	cbnz	r3, 800a422 <_fflush_r+0x1a>
 800a41e:	f000 f887 	bl	800a530 <__sinit>
 800a422:	4b14      	ldr	r3, [pc, #80]	; (800a474 <_fflush_r+0x6c>)
 800a424:	429c      	cmp	r4, r3
 800a426:	d11b      	bne.n	800a460 <_fflush_r+0x58>
 800a428:	686c      	ldr	r4, [r5, #4]
 800a42a:	f9b4 300c 	ldrsh.w	r3, [r4, #12]
 800a42e:	2b00      	cmp	r3, #0
 800a430:	d0ef      	beq.n	800a412 <_fflush_r+0xa>
 800a432:	6e62      	ldr	r2, [r4, #100]	; 0x64
 800a434:	07d0      	lsls	r0, r2, #31
 800a436:	d404      	bmi.n	800a442 <_fflush_r+0x3a>
 800a438:	0599      	lsls	r1, r3, #22
 800a43a:	d402      	bmi.n	800a442 <_fflush_r+0x3a>
 800a43c:	6da0      	ldr	r0, [r4, #88]	; 0x58
 800a43e:	f000 f915 	bl	800a66c <__retarget_lock_acquire_recursive>
 800a442:	4628      	mov	r0, r5
 800a444:	4621      	mov	r1, r4
 800a446:	f7ff ff59 	bl	800a2fc <__sflush_r>
 800a44a:	6e63      	ldr	r3, [r4, #100]	; 0x64
 800a44c:	07da      	lsls	r2, r3, #31
 800a44e:	4605      	mov	r5, r0
 800a450:	d4e0      	bmi.n	800a414 <_fflush_r+0xc>
 800a452:	89a3      	ldrh	r3, [r4, #12]
 800a454:	059b      	lsls	r3, r3, #22
 800a456:	d4dd      	bmi.n	800a414 <_fflush_r+0xc>
 800a458:	6da0      	ldr	r0, [r4, #88]	; 0x58
 800a45a:	f000 f908 	bl	800a66e <__retarget_lock_release_recursive>
 800a45e:	e7d9      	b.n	800a414 <_fflush_r+0xc>
 800a460:	4b05      	ldr	r3, [pc, #20]	; (800a478 <_fflush_r+0x70>)
 800a462:	429c      	cmp	r4, r3
 800a464:	d101      	bne.n	800a46a <_fflush_r+0x62>
 800a466:	68ac      	ldr	r4, [r5, #8]
 800a468:	e7df      	b.n	800a42a <_fflush_r+0x22>
 800a46a:	4b04      	ldr	r3, [pc, #16]	; (800a47c <_fflush_r+0x74>)
 800a46c:	429c      	cmp	r4, r3
 800a46e:	bf08      	it	eq
 800a470:	68ec      	ldreq	r4, [r5, #12]
 800a472:	e7da      	b.n	800a42a <_fflush_r+0x22>
 800a474:	0800cc64 	.word	0x0800cc64
 800a478:	0800cc84 	.word	0x0800cc84
 800a47c:	0800cc44 	.word	0x0800cc44

0800a480 <std>:
 800a480:	2300      	movs	r3, #0
 800a482:	b510      	push	{r4, lr}
 800a484:	4604      	mov	r4, r0
 800a486:	e9c0 3300 	strd	r3, r3, [r0]
 800a48a:	e9c0 3304 	strd	r3, r3, [r0, #16]
 800a48e:	6083      	str	r3, [r0, #8]
 800a490:	8181      	strh	r1, [r0, #12]
 800a492:	6643      	str	r3, [r0, #100]	; 0x64
 800a494:	81c2      	strh	r2, [r0, #14]
 800a496:	6183      	str	r3, [r0, #24]
 800a498:	4619      	mov	r1, r3
 800a49a:	2208      	movs	r2, #8
 800a49c:	305c      	adds	r0, #92	; 0x5c
 800a49e:	f7ff fcdf 	bl	8009e60 <memset>
 800a4a2:	4b05      	ldr	r3, [pc, #20]	; (800a4b8 <std+0x38>)
 800a4a4:	6263      	str	r3, [r4, #36]	; 0x24
 800a4a6:	4b05      	ldr	r3, [pc, #20]	; (800a4bc <std+0x3c>)
 800a4a8:	62a3      	str	r3, [r4, #40]	; 0x28
 800a4aa:	4b05      	ldr	r3, [pc, #20]	; (800a4c0 <std+0x40>)
 800a4ac:	62e3      	str	r3, [r4, #44]	; 0x2c
 800a4ae:	4b05      	ldr	r3, [pc, #20]	; (800a4c4 <std+0x44>)
 800a4b0:	6224      	str	r4, [r4, #32]
 800a4b2:	6323      	str	r3, [r4, #48]	; 0x30
 800a4b4:	bd10      	pop	{r4, pc}
 800a4b6:	bf00      	nop
 800a4b8:	0800ad31 	.word	0x0800ad31
 800a4bc:	0800ad53 	.word	0x0800ad53
 800a4c0:	0800ad8b 	.word	0x0800ad8b
 800a4c4:	0800adaf 	.word	0x0800adaf

0800a4c8 <_cleanup_r>:
 800a4c8:	4901      	ldr	r1, [pc, #4]	; (800a4d0 <_cleanup_r+0x8>)
 800a4ca:	f000 b8af 	b.w	800a62c <_fwalk_reent>
 800a4ce:	bf00      	nop
 800a4d0:	0800a409 	.word	0x0800a409

0800a4d4 <__sfmoreglue>:
 800a4d4:	b570      	push	{r4, r5, r6, lr}
 800a4d6:	2268      	movs	r2, #104	; 0x68
 800a4d8:	1e4d      	subs	r5, r1, #1
 800a4da:	4355      	muls	r5, r2
 800a4dc:	460e      	mov	r6, r1
 800a4de:	f105 0174 	add.w	r1, r5, #116	; 0x74
 800a4e2:	f7ff fd31 	bl	8009f48 <_malloc_r>
 800a4e6:	4604      	mov	r4, r0
 800a4e8:	b140      	cbz	r0, 800a4fc <__sfmoreglue+0x28>
 800a4ea:	2100      	movs	r1, #0
 800a4ec:	e9c0 1600 	strd	r1, r6, [r0]
 800a4f0:	300c      	adds	r0, #12
 800a4f2:	60a0      	str	r0, [r4, #8]
 800a4f4:	f105 0268 	add.w	r2, r5, #104	; 0x68
 800a4f8:	f7ff fcb2 	bl	8009e60 <memset>
 800a4fc:	4620      	mov	r0, r4
 800a4fe:	bd70      	pop	{r4, r5, r6, pc}

0800a500 <__sfp_lock_acquire>:
 800a500:	4801      	ldr	r0, [pc, #4]	; (800a508 <__sfp_lock_acquire+0x8>)
 800a502:	f000 b8b3 	b.w	800a66c <__retarget_lock_acquire_recursive>
 800a506:	bf00      	nop
 800a508:	200059d5 	.word	0x200059d5

0800a50c <__sfp_lock_release>:
 800a50c:	4801      	ldr	r0, [pc, #4]	; (800a514 <__sfp_lock_release+0x8>)
 800a50e:	f000 b8ae 	b.w	800a66e <__retarget_lock_release_recursive>
 800a512:	bf00      	nop
 800a514:	200059d5 	.word	0x200059d5

0800a518 <__sinit_lock_acquire>:
 800a518:	4801      	ldr	r0, [pc, #4]	; (800a520 <__sinit_lock_acquire+0x8>)
 800a51a:	f000 b8a7 	b.w	800a66c <__retarget_lock_acquire_recursive>
 800a51e:	bf00      	nop
 800a520:	200059d6 	.word	0x200059d6

0800a524 <__sinit_lock_release>:
 800a524:	4801      	ldr	r0, [pc, #4]	; (800a52c <__sinit_lock_release+0x8>)
 800a526:	f000 b8a2 	b.w	800a66e <__retarget_lock_release_recursive>
 800a52a:	bf00      	nop
 800a52c:	200059d6 	.word	0x200059d6

0800a530 <__sinit>:
 800a530:	b510      	push	{r4, lr}
 800a532:	4604      	mov	r4, r0
 800a534:	f7ff fff0 	bl	800a518 <__sinit_lock_acquire>
 800a538:	69a3      	ldr	r3, [r4, #24]
 800a53a:	b11b      	cbz	r3, 800a544 <__sinit+0x14>
 800a53c:	e8bd 4010 	ldmia.w	sp!, {r4, lr}
 800a540:	f7ff bff0 	b.w	800a524 <__sinit_lock_release>
 800a544:	e9c4 3312 	strd	r3, r3, [r4, #72]	; 0x48
 800a548:	6523      	str	r3, [r4, #80]	; 0x50
 800a54a:	4b13      	ldr	r3, [pc, #76]	; (800a598 <__sinit+0x68>)
 800a54c:	4a13      	ldr	r2, [pc, #76]	; (800a59c <__sinit+0x6c>)
 800a54e:	681b      	ldr	r3, [r3, #0]
 800a550:	62a2      	str	r2, [r4, #40]	; 0x28
 800a552:	42a3      	cmp	r3, r4
 800a554:	bf04      	itt	eq
 800a556:	2301      	moveq	r3, #1
 800a558:	61a3      	streq	r3, [r4, #24]
 800a55a:	4620      	mov	r0, r4
 800a55c:	f000 f820 	bl	800a5a0 <__sfp>
 800a560:	6060      	str	r0, [r4, #4]
 800a562:	4620      	mov	r0, r4
 800a564:	f000 f81c 	bl	800a5a0 <__sfp>
 800a568:	60a0      	str	r0, [r4, #8]
 800a56a:	4620      	mov	r0, r4
 800a56c:	f000 f818 	bl	800a5a0 <__sfp>
 800a570:	2200      	movs	r2, #0
 800a572:	60e0      	str	r0, [r4, #12]
 800a574:	2104      	movs	r1, #4
 800a576:	6860      	ldr	r0, [r4, #4]
 800a578:	f7ff ff82 	bl	800a480 <std>
 800a57c:	68a0      	ldr	r0, [r4, #8]
 800a57e:	2201      	movs	r2, #1
 800a580:	2109      	movs	r1, #9
 800a582:	f7ff ff7d 	bl	800a480 <std>
 800a586:	68e0      	ldr	r0, [r4, #12]
 800a588:	2202      	movs	r2, #2
 800a58a:	2112      	movs	r1, #18
 800a58c:	f7ff ff78 	bl	800a480 <std>
 800a590:	2301      	movs	r3, #1
 800a592:	61a3      	str	r3, [r4, #24]
 800a594:	e7d2      	b.n	800a53c <__sinit+0xc>
 800a596:	bf00      	nop
 800a598:	0800cc40 	.word	0x0800cc40
 800a59c:	0800a4c9 	.word	0x0800a4c9

0800a5a0 <__sfp>:
 800a5a0:	b5f8      	push	{r3, r4, r5, r6, r7, lr}
 800a5a2:	4607      	mov	r7, r0
 800a5a4:	f7ff ffac 	bl	800a500 <__sfp_lock_acquire>
 800a5a8:	4b1e      	ldr	r3, [pc, #120]	; (800a624 <__sfp+0x84>)
 800a5aa:	681e      	ldr	r6, [r3, #0]
 800a5ac:	69b3      	ldr	r3, [r6, #24]
 800a5ae:	b913      	cbnz	r3, 800a5b6 <__sfp+0x16>
 800a5b0:	4630      	mov	r0, r6
 800a5b2:	f7ff ffbd 	bl	800a530 <__sinit>
 800a5b6:	3648      	adds	r6, #72	; 0x48
 800a5b8:	e9d6 3401 	ldrd	r3, r4, [r6, #4]
 800a5bc:	3b01      	subs	r3, #1
 800a5be:	d503      	bpl.n	800a5c8 <__sfp+0x28>
 800a5c0:	6833      	ldr	r3, [r6, #0]
 800a5c2:	b30b      	cbz	r3, 800a608 <__sfp+0x68>
 800a5c4:	6836      	ldr	r6, [r6, #0]
 800a5c6:	e7f7      	b.n	800a5b8 <__sfp+0x18>
 800a5c8:	f9b4 500c 	ldrsh.w	r5, [r4, #12]
 800a5cc:	b9d5      	cbnz	r5, 800a604 <__sfp+0x64>
 800a5ce:	4b16      	ldr	r3, [pc, #88]	; (800a628 <__sfp+0x88>)
 800a5d0:	60e3      	str	r3, [r4, #12]
 800a5d2:	f104 0058 	add.w	r0, r4, #88	; 0x58
 800a5d6:	6665      	str	r5, [r4, #100]	; 0x64
 800a5d8:	f000 f847 	bl	800a66a <__retarget_lock_init_recursive>
 800a5dc:	f7ff ff96 	bl	800a50c <__sfp_lock_release>
 800a5e0:	e9c4 5501 	strd	r5, r5, [r4, #4]
 800a5e4:	e9c4 5504 	strd	r5, r5, [r4, #16]
 800a5e8:	6025      	str	r5, [r4, #0]
 800a5ea:	61a5      	str	r5, [r4, #24]
 800a5ec:	2208      	movs	r2, #8
 800a5ee:	4629      	mov	r1, r5
 800a5f0:	f104 005c 	add.w	r0, r4, #92	; 0x5c
 800a5f4:	f7ff fc34 	bl	8009e60 <memset>
 800a5f8:	e9c4 550d 	strd	r5, r5, [r4, #52]	; 0x34
 800a5fc:	e9c4 5512 	strd	r5, r5, [r4, #72]	; 0x48
 800a600:	4620      	mov	r0, r4
 800a602:	bdf8      	pop	{r3, r4, r5, r6, r7, pc}
 800a604:	3468      	adds	r4, #104	; 0x68
 800a606:	e7d9      	b.n	800a5bc <__sfp+0x1c>
 800a608:	2104      	movs	r1, #4
 800a60a:	4638      	mov	r0, r7
 800a60c:	f7ff ff62 	bl	800a4d4 <__sfmoreglue>
 800a610:	4604      	mov	r4, r0
 800a612:	6030      	str	r0, [r6, #0]
 800a614:	2800      	cmp	r0, #0
 800a616:	d1d5      	bne.n	800a5c4 <__sfp+0x24>
 800a618:	f7ff ff78 	bl	800a50c <__sfp_lock_release>
 800a61c:	230c      	movs	r3, #12
 800a61e:	603b      	str	r3, [r7, #0]
 800a620:	e7ee      	b.n	800a600 <__sfp+0x60>
 800a622:	bf00      	nop
 800a624:	0800cc40 	.word	0x0800cc40
 800a628:	ffff0001 	.word	0xffff0001

0800a62c <_fwalk_reent>:
 800a62c:	e92d 43f8 	stmdb	sp!, {r3, r4, r5, r6, r7, r8, r9, lr}
 800a630:	4606      	mov	r6, r0
 800a632:	4688      	mov	r8, r1
 800a634:	f100 0448 	add.w	r4, r0, #72	; 0x48
 800a638:	2700      	movs	r7, #0
 800a63a:	e9d4 9501 	ldrd	r9, r5, [r4, #4]
 800a63e:	f1b9 0901 	subs.w	r9, r9, #1
 800a642:	d505      	bpl.n	800a650 <_fwalk_reent+0x24>
 800a644:	6824      	ldr	r4, [r4, #0]
 800a646:	2c00      	cmp	r4, #0
 800a648:	d1f7      	bne.n	800a63a <_fwalk_reent+0xe>
 800a64a:	4638      	mov	r0, r7
 800a64c:	e8bd 83f8 	ldmia.w	sp!, {r3, r4, r5, r6, r7, r8, r9, pc}
 800a650:	89ab      	ldrh	r3, [r5, #12]
 800a652:	2b01      	cmp	r3, #1
 800a654:	d907      	bls.n	800a666 <_fwalk_reent+0x3a>
 800a656:	f9b5 300e 	ldrsh.w	r3, [r5, #14]
 800a65a:	3301      	adds	r3, #1
 800a65c:	d003      	beq.n	800a666 <_fwalk_reent+0x3a>
 800a65e:	4629      	mov	r1, r5
 800a660:	4630      	mov	r0, r6
 800a662:	47c0      	blx	r8
 800a664:	4307      	orrs	r7, r0
 800a666:	3568      	adds	r5, #104	; 0x68
 800a668:	e7e9      	b.n	800a63e <_fwalk_reent+0x12>

0800a66a <__retarget_lock_init_recursive>:
 800a66a:	4770      	bx	lr

0800a66c <__retarget_lock_acquire_recursive>:
 800a66c:	4770      	bx	lr

0800a66e <__retarget_lock_release_recursive>:
 800a66e:	4770      	bx	lr

0800a670 <__swhatbuf_r>:
 800a670:	b570      	push	{r4, r5, r6, lr}
 800a672:	460e      	mov	r6, r1
 800a674:	f9b1 100e 	ldrsh.w	r1, [r1, #14]
 800a678:	2900      	cmp	r1, #0
 800a67a:	b096      	sub	sp, #88	; 0x58
 800a67c:	4614      	mov	r4, r2
 800a67e:	461d      	mov	r5, r3
 800a680:	da08      	bge.n	800a694 <__swhatbuf_r+0x24>
 800a682:	f9b6 300c 	ldrsh.w	r3, [r6, #12]
 800a686:	2200      	movs	r2, #0
 800a688:	602a      	str	r2, [r5, #0]
 800a68a:	061a      	lsls	r2, r3, #24
 800a68c:	d410      	bmi.n	800a6b0 <__swhatbuf_r+0x40>
 800a68e:	f44f 6380 	mov.w	r3, #1024	; 0x400
 800a692:	e00e      	b.n	800a6b2 <__swhatbuf_r+0x42>
 800a694:	466a      	mov	r2, sp
 800a696:	f000 fbb1 	bl	800adfc <_fstat_r>
 800a69a:	2800      	cmp	r0, #0
 800a69c:	dbf1      	blt.n	800a682 <__swhatbuf_r+0x12>
 800a69e:	9a01      	ldr	r2, [sp, #4]
 800a6a0:	f402 4270 	and.w	r2, r2, #61440	; 0xf000
 800a6a4:	f5a2 5300 	sub.w	r3, r2, #8192	; 0x2000
 800a6a8:	425a      	negs	r2, r3
 800a6aa:	415a      	adcs	r2, r3
 800a6ac:	602a      	str	r2, [r5, #0]
 800a6ae:	e7ee      	b.n	800a68e <__swhatbuf_r+0x1e>
 800a6b0:	2340      	movs	r3, #64	; 0x40
 800a6b2:	2000      	movs	r0, #0
 800a6b4:	6023      	str	r3, [r4, #0]
 800a6b6:	b016      	add	sp, #88	; 0x58
 800a6b8:	bd70      	pop	{r4, r5, r6, pc}
	...

0800a6bc <__smakebuf_r>:
 800a6bc:	898b      	ldrh	r3, [r1, #12]
 800a6be:	b573      	push	{r0, r1, r4, r5, r6, lr}
 800a6c0:	079d      	lsls	r5, r3, #30
 800a6c2:	4606      	mov	r6, r0
 800a6c4:	460c      	mov	r4, r1
 800a6c6:	d507      	bpl.n	800a6d8 <__smakebuf_r+0x1c>
 800a6c8:	f104 0347 	add.w	r3, r4, #71	; 0x47
 800a6cc:	6023      	str	r3, [r4, #0]
 800a6ce:	6123      	str	r3, [r4, #16]
 800a6d0:	2301      	movs	r3, #1
 800a6d2:	6163      	str	r3, [r4, #20]
 800a6d4:	b002      	add	sp, #8
 800a6d6:	bd70      	pop	{r4, r5, r6, pc}
 800a6d8:	ab01      	add	r3, sp, #4
 800a6da:	466a      	mov	r2, sp
 800a6dc:	f7ff ffc8 	bl	800a670 <__swhatbuf_r>
 800a6e0:	9900      	ldr	r1, [sp, #0]
 800a6e2:	4605      	mov	r5, r0
 800a6e4:	4630      	mov	r0, r6
 800a6e6:	f7ff fc2f 	bl	8009f48 <_malloc_r>
 800a6ea:	b948      	cbnz	r0, 800a700 <__smakebuf_r+0x44>
 800a6ec:	f9b4 300c 	ldrsh.w	r3, [r4, #12]
 800a6f0:	059a      	lsls	r2, r3, #22
 800a6f2:	d4ef      	bmi.n	800a6d4 <__smakebuf_r+0x18>
 800a6f4:	f023 0303 	bic.w	r3, r3, #3
 800a6f8:	f043 0302 	orr.w	r3, r3, #2
 800a6fc:	81a3      	strh	r3, [r4, #12]
 800a6fe:	e7e3      	b.n	800a6c8 <__smakebuf_r+0xc>
 800a700:	4b0d      	ldr	r3, [pc, #52]	; (800a738 <__smakebuf_r+0x7c>)
 800a702:	62b3      	str	r3, [r6, #40]	; 0x28
 800a704:	89a3      	ldrh	r3, [r4, #12]
 800a706:	6020      	str	r0, [r4, #0]
 800a708:	f043 0380 	orr.w	r3, r3, #128	; 0x80
 800a70c:	81a3      	strh	r3, [r4, #12]
 800a70e:	9b00      	ldr	r3, [sp, #0]
 800a710:	6163      	str	r3, [r4, #20]
 800a712:	9b01      	ldr	r3, [sp, #4]
 800a714:	6120      	str	r0, [r4, #16]
 800a716:	b15b      	cbz	r3, 800a730 <__smakebuf_r+0x74>
 800a718:	f9b4 100e 	ldrsh.w	r1, [r4, #14]
 800a71c:	4630      	mov	r0, r6
 800a71e:	f000 fb7f 	bl	800ae20 <_isatty_r>
 800a722:	b128      	cbz	r0, 800a730 <__smakebuf_r+0x74>
 800a724:	89a3      	ldrh	r3, [r4, #12]
 800a726:	f023 0303 	bic.w	r3, r3, #3
 800a72a:	f043 0301 	orr.w	r3, r3, #1
 800a72e:	81a3      	strh	r3, [r4, #12]
 800a730:	89a0      	ldrh	r0, [r4, #12]
 800a732:	4305      	orrs	r5, r0
 800a734:	81a5      	strh	r5, [r4, #12]
 800a736:	e7cd      	b.n	800a6d4 <__smakebuf_r+0x18>
 800a738:	0800a4c9 	.word	0x0800a4c9

0800a73c <__malloc_lock>:
 800a73c:	4801      	ldr	r0, [pc, #4]	; (800a744 <__malloc_lock+0x8>)
 800a73e:	f7ff bf95 	b.w	800a66c <__retarget_lock_acquire_recursive>
 800a742:	bf00      	nop
 800a744:	200059d4 	.word	0x200059d4

0800a748 <__malloc_unlock>:
 800a748:	4801      	ldr	r0, [pc, #4]	; (800a750 <__malloc_unlock+0x8>)
 800a74a:	f7ff bf90 	b.w	800a66e <__retarget_lock_release_recursive>
 800a74e:	bf00      	nop
 800a750:	200059d4 	.word	0x200059d4

0800a754 <__sfputc_r>:
 800a754:	6893      	ldr	r3, [r2, #8]
 800a756:	3b01      	subs	r3, #1
 800a758:	2b00      	cmp	r3, #0
 800a75a:	b410      	push	{r4}
 800a75c:	6093      	str	r3, [r2, #8]
 800a75e:	da08      	bge.n	800a772 <__sfputc_r+0x1e>
 800a760:	6994      	ldr	r4, [r2, #24]
 800a762:	42a3      	cmp	r3, r4
 800a764:	db01      	blt.n	800a76a <__sfputc_r+0x16>
 800a766:	290a      	cmp	r1, #10
 800a768:	d103      	bne.n	800a772 <__sfputc_r+0x1e>
 800a76a:	f85d 4b04 	ldr.w	r4, [sp], #4
 800a76e:	f7ff bd05 	b.w	800a17c <__swbuf_r>
 800a772:	6813      	ldr	r3, [r2, #0]
 800a774:	1c58      	adds	r0, r3, #1
 800a776:	6010      	str	r0, [r2, #0]
 800a778:	7019      	strb	r1, [r3, #0]
 800a77a:	4608      	mov	r0, r1
 800a77c:	f85d 4b04 	ldr.w	r4, [sp], #4
 800a780:	4770      	bx	lr

0800a782 <__sfputs_r>:
 800a782:	b5f8      	push	{r3, r4, r5, r6, r7, lr}
 800a784:	4606      	mov	r6, r0
 800a786:	460f      	mov	r7, r1
 800a788:	4614      	mov	r4, r2
 800a78a:	18d5      	adds	r5, r2, r3
 800a78c:	42ac      	cmp	r4, r5
 800a78e:	d101      	bne.n	800a794 <__sfputs_r+0x12>
 800a790:	2000      	movs	r0, #0
 800a792:	e007      	b.n	800a7a4 <__sfputs_r+0x22>
 800a794:	f814 1b01 	ldrb.w	r1, [r4], #1
 800a798:	463a      	mov	r2, r7
 800a79a:	4630      	mov	r0, r6
 800a79c:	f7ff ffda 	bl	800a754 <__sfputc_r>
 800a7a0:	1c43      	adds	r3, r0, #1
 800a7a2:	d1f3      	bne.n	800a78c <__sfputs_r+0xa>
 800a7a4:	bdf8      	pop	{r3, r4, r5, r6, r7, pc}
	...

0800a7a8 <_vfiprintf_r>:
 800a7a8:	e92d 4ff0 	stmdb	sp!, {r4, r5, r6, r7, r8, r9, sl, fp, lr}
 800a7ac:	460d      	mov	r5, r1
 800a7ae:	b09d      	sub	sp, #116	; 0x74
 800a7b0:	4614      	mov	r4, r2
 800a7b2:	4698      	mov	r8, r3
 800a7b4:	4606      	mov	r6, r0
 800a7b6:	b118      	cbz	r0, 800a7c0 <_vfiprintf_r+0x18>
 800a7b8:	6983      	ldr	r3, [r0, #24]
 800a7ba:	b90b      	cbnz	r3, 800a7c0 <_vfiprintf_r+0x18>
 800a7bc:	f7ff feb8 	bl	800a530 <__sinit>
 800a7c0:	4b89      	ldr	r3, [pc, #548]	; (800a9e8 <_vfiprintf_r+0x240>)
 800a7c2:	429d      	cmp	r5, r3
 800a7c4:	d11b      	bne.n	800a7fe <_vfiprintf_r+0x56>
 800a7c6:	6875      	ldr	r5, [r6, #4]
 800a7c8:	6e6b      	ldr	r3, [r5, #100]	; 0x64
 800a7ca:	07d9      	lsls	r1, r3, #31
 800a7cc:	d405      	bmi.n	800a7da <_vfiprintf_r+0x32>
 800a7ce:	89ab      	ldrh	r3, [r5, #12]
 800a7d0:	059a      	lsls	r2, r3, #22
 800a7d2:	d402      	bmi.n	800a7da <_vfiprintf_r+0x32>
 800a7d4:	6da8      	ldr	r0, [r5, #88]	; 0x58
 800a7d6:	f7ff ff49 	bl	800a66c <__retarget_lock_acquire_recursive>
 800a7da:	89ab      	ldrh	r3, [r5, #12]
 800a7dc:	071b      	lsls	r3, r3, #28
 800a7de:	d501      	bpl.n	800a7e4 <_vfiprintf_r+0x3c>
 800a7e0:	692b      	ldr	r3, [r5, #16]
 800a7e2:	b9eb      	cbnz	r3, 800a820 <_vfiprintf_r+0x78>
 800a7e4:	4629      	mov	r1, r5
 800a7e6:	4630      	mov	r0, r6
 800a7e8:	f7ff fd1a 	bl	800a220 <__swsetup_r>
 800a7ec:	b1c0      	cbz	r0, 800a820 <_vfiprintf_r+0x78>
 800a7ee:	6e6b      	ldr	r3, [r5, #100]	; 0x64
 800a7f0:	07dc      	lsls	r4, r3, #31
 800a7f2:	d50e      	bpl.n	800a812 <_vfiprintf_r+0x6a>
 800a7f4:	f04f 30ff 	mov.w	r0, #4294967295
 800a7f8:	b01d      	add	sp, #116	; 0x74
 800a7fa:	e8bd 8ff0 	ldmia.w	sp!, {r4, r5, r6, r7, r8, r9, sl, fp, pc}
 800a7fe:	4b7b      	ldr	r3, [pc, #492]	; (800a9ec <_vfiprintf_r+0x244>)
 800a800:	429d      	cmp	r5, r3
 800a802:	d101      	bne.n	800a808 <_vfiprintf_r+0x60>
 800a804:	68b5      	ldr	r5, [r6, #8]
 800a806:	e7df      	b.n	800a7c8 <_vfiprintf_r+0x20>
 800a808:	4b79      	ldr	r3, [pc, #484]	; (800a9f0 <_vfiprintf_r+0x248>)
 800a80a:	429d      	cmp	r5, r3
 800a80c:	bf08      	it	eq
 800a80e:	68f5      	ldreq	r5, [r6, #12]
 800a810:	e7da      	b.n	800a7c8 <_vfiprintf_r+0x20>
 800a812:	89ab      	ldrh	r3, [r5, #12]
 800a814:	0598      	lsls	r0, r3, #22
 800a816:	d4ed      	bmi.n	800a7f4 <_vfiprintf_r+0x4c>
 800a818:	6da8      	ldr	r0, [r5, #88]	; 0x58
 800a81a:	f7ff ff28 	bl	800a66e <__retarget_lock_release_recursive>
 800a81e:	e7e9      	b.n	800a7f4 <_vfiprintf_r+0x4c>
 800a820:	2300      	movs	r3, #0
 800a822:	9309      	str	r3, [sp, #36]	; 0x24
 800a824:	2320      	movs	r3, #32
 800a826:	f88d 3029 	strb.w	r3, [sp, #41]	; 0x29
 800a82a:	f8cd 800c 	str.w	r8, [sp, #12]
 800a82e:	2330      	movs	r3, #48	; 0x30
 800a830:	f8df 81c0 	ldr.w	r8, [pc, #448]	; 800a9f4 <_vfiprintf_r+0x24c>
 800a834:	f88d 302a 	strb.w	r3, [sp, #42]	; 0x2a
 800a838:	f04f 0901 	mov.w	r9, #1
 800a83c:	4623      	mov	r3, r4
 800a83e:	469a      	mov	sl, r3
 800a840:	f813 2b01 	ldrb.w	r2, [r3], #1
 800a844:	b10a      	cbz	r2, 800a84a <_vfiprintf_r+0xa2>
 800a846:	2a25      	cmp	r2, #37	; 0x25
 800a848:	d1f9      	bne.n	800a83e <_vfiprintf_r+0x96>
 800a84a:	ebba 0b04 	subs.w	fp, sl, r4
 800a84e:	d00b      	beq.n	800a868 <_vfiprintf_r+0xc0>
 800a850:	465b      	mov	r3, fp
 800a852:	4622      	mov	r2, r4
 800a854:	4629      	mov	r1, r5
 800a856:	4630      	mov	r0, r6
 800a858:	f7ff ff93 	bl	800a782 <__sfputs_r>
 800a85c:	3001      	adds	r0, #1
 800a85e:	f000 80aa 	beq.w	800a9b6 <_vfiprintf_r+0x20e>
 800a862:	9a09      	ldr	r2, [sp, #36]	; 0x24
 800a864:	445a      	add	r2, fp
 800a866:	9209      	str	r2, [sp, #36]	; 0x24
 800a868:	f89a 3000 	ldrb.w	r3, [sl]
 800a86c:	2b00      	cmp	r3, #0
 800a86e:	f000 80a2 	beq.w	800a9b6 <_vfiprintf_r+0x20e>
 800a872:	2300      	movs	r3, #0
 800a874:	f04f 32ff 	mov.w	r2, #4294967295
 800a878:	e9cd 2305 	strd	r2, r3, [sp, #20]
 800a87c:	f10a 0a01 	add.w	sl, sl, #1
 800a880:	9304      	str	r3, [sp, #16]
 800a882:	9307      	str	r3, [sp, #28]
 800a884:	f88d 3053 	strb.w	r3, [sp, #83]	; 0x53
 800a888:	931a      	str	r3, [sp, #104]	; 0x68
 800a88a:	4654      	mov	r4, sl
 800a88c:	2205      	movs	r2, #5
 800a88e:	f814 1b01 	ldrb.w	r1, [r4], #1
 800a892:	4858      	ldr	r0, [pc, #352]	; (800a9f4 <_vfiprintf_r+0x24c>)
 800a894:	f7f5 fca4 	bl	80001e0 <memchr>
 800a898:	9a04      	ldr	r2, [sp, #16]
 800a89a:	b9d8      	cbnz	r0, 800a8d4 <_vfiprintf_r+0x12c>
 800a89c:	06d1      	lsls	r1, r2, #27
 800a89e:	bf44      	itt	mi
 800a8a0:	2320      	movmi	r3, #32
 800a8a2:	f88d 3053 	strbmi.w	r3, [sp, #83]	; 0x53
 800a8a6:	0713      	lsls	r3, r2, #28
 800a8a8:	bf44      	itt	mi
 800a8aa:	232b      	movmi	r3, #43	; 0x2b
 800a8ac:	f88d 3053 	strbmi.w	r3, [sp, #83]	; 0x53
 800a8b0:	f89a 3000 	ldrb.w	r3, [sl]
 800a8b4:	2b2a      	cmp	r3, #42	; 0x2a
 800a8b6:	d015      	beq.n	800a8e4 <_vfiprintf_r+0x13c>
 800a8b8:	9a07      	ldr	r2, [sp, #28]
 800a8ba:	4654      	mov	r4, sl
 800a8bc:	2000      	movs	r0, #0
 800a8be:	f04f 0c0a 	mov.w	ip, #10
 800a8c2:	4621      	mov	r1, r4
 800a8c4:	f811 3b01 	ldrb.w	r3, [r1], #1
 800a8c8:	3b30      	subs	r3, #48	; 0x30
 800a8ca:	2b09      	cmp	r3, #9
 800a8cc:	d94e      	bls.n	800a96c <_vfiprintf_r+0x1c4>
 800a8ce:	b1b0      	cbz	r0, 800a8fe <_vfiprintf_r+0x156>
 800a8d0:	9207      	str	r2, [sp, #28]
 800a8d2:	e014      	b.n	800a8fe <_vfiprintf_r+0x156>
 800a8d4:	eba0 0308 	sub.w	r3, r0, r8
 800a8d8:	fa09 f303 	lsl.w	r3, r9, r3
 800a8dc:	4313      	orrs	r3, r2
 800a8de:	9304      	str	r3, [sp, #16]
 800a8e0:	46a2      	mov	sl, r4
 800a8e2:	e7d2      	b.n	800a88a <_vfiprintf_r+0xe2>
 800a8e4:	9b03      	ldr	r3, [sp, #12]
 800a8e6:	1d19      	adds	r1, r3, #4
 800a8e8:	681b      	ldr	r3, [r3, #0]
 800a8ea:	9103      	str	r1, [sp, #12]
 800a8ec:	2b00      	cmp	r3, #0
 800a8ee:	bfbb      	ittet	lt
 800a8f0:	425b      	neglt	r3, r3
 800a8f2:	f042 0202 	orrlt.w	r2, r2, #2
 800a8f6:	9307      	strge	r3, [sp, #28]
 800a8f8:	9307      	strlt	r3, [sp, #28]
 800a8fa:	bfb8      	it	lt
 800a8fc:	9204      	strlt	r2, [sp, #16]
 800a8fe:	7823      	ldrb	r3, [r4, #0]
 800a900:	2b2e      	cmp	r3, #46	; 0x2e
 800a902:	d10c      	bne.n	800a91e <_vfiprintf_r+0x176>
 800a904:	7863      	ldrb	r3, [r4, #1]
 800a906:	2b2a      	cmp	r3, #42	; 0x2a
 800a908:	d135      	bne.n	800a976 <_vfiprintf_r+0x1ce>
 800a90a:	9b03      	ldr	r3, [sp, #12]
 800a90c:	1d1a      	adds	r2, r3, #4
 800a90e:	681b      	ldr	r3, [r3, #0]
 800a910:	9203      	str	r2, [sp, #12]
 800a912:	2b00      	cmp	r3, #0
 800a914:	bfb8      	it	lt
 800a916:	f04f 33ff 	movlt.w	r3, #4294967295
 800a91a:	3402      	adds	r4, #2
 800a91c:	9305      	str	r3, [sp, #20]
 800a91e:	f8df a0e4 	ldr.w	sl, [pc, #228]	; 800aa04 <_vfiprintf_r+0x25c>
 800a922:	7821      	ldrb	r1, [r4, #0]
 800a924:	2203      	movs	r2, #3
 800a926:	4650      	mov	r0, sl
 800a928:	f7f5 fc5a 	bl	80001e0 <memchr>
 800a92c:	b140      	cbz	r0, 800a940 <_vfiprintf_r+0x198>
 800a92e:	2340      	movs	r3, #64	; 0x40
 800a930:	eba0 000a 	sub.w	r0, r0, sl
 800a934:	fa03 f000 	lsl.w	r0, r3, r0
 800a938:	9b04      	ldr	r3, [sp, #16]
 800a93a:	4303      	orrs	r3, r0
 800a93c:	3401      	adds	r4, #1
 800a93e:	9304      	str	r3, [sp, #16]
 800a940:	f814 1b01 	ldrb.w	r1, [r4], #1
 800a944:	482c      	ldr	r0, [pc, #176]	; (800a9f8 <_vfiprintf_r+0x250>)
 800a946:	f88d 1028 	strb.w	r1, [sp, #40]	; 0x28
 800a94a:	2206      	movs	r2, #6
 800a94c:	f7f5 fc48 	bl	80001e0 <memchr>
 800a950:	2800      	cmp	r0, #0
 800a952:	d03f      	beq.n	800a9d4 <_vfiprintf_r+0x22c>
 800a954:	4b29      	ldr	r3, [pc, #164]	; (800a9fc <_vfiprintf_r+0x254>)
 800a956:	bb1b      	cbnz	r3, 800a9a0 <_vfiprintf_r+0x1f8>
 800a958:	9b03      	ldr	r3, [sp, #12]
 800a95a:	3307      	adds	r3, #7
 800a95c:	f023 0307 	bic.w	r3, r3, #7
 800a960:	3308      	adds	r3, #8
 800a962:	9303      	str	r3, [sp, #12]
 800a964:	9b09      	ldr	r3, [sp, #36]	; 0x24
 800a966:	443b      	add	r3, r7
 800a968:	9309      	str	r3, [sp, #36]	; 0x24
 800a96a:	e767      	b.n	800a83c <_vfiprintf_r+0x94>
 800a96c:	fb0c 3202 	mla	r2, ip, r2, r3
 800a970:	460c      	mov	r4, r1
 800a972:	2001      	movs	r0, #1
 800a974:	e7a5      	b.n	800a8c2 <_vfiprintf_r+0x11a>
 800a976:	2300      	movs	r3, #0
 800a978:	3401      	adds	r4, #1
 800a97a:	9305      	str	r3, [sp, #20]
 800a97c:	4619      	mov	r1, r3
 800a97e:	f04f 0c0a 	mov.w	ip, #10
 800a982:	4620      	mov	r0, r4
 800a984:	f810 2b01 	ldrb.w	r2, [r0], #1
 800a988:	3a30      	subs	r2, #48	; 0x30
 800a98a:	2a09      	cmp	r2, #9
 800a98c:	d903      	bls.n	800a996 <_vfiprintf_r+0x1ee>
 800a98e:	2b00      	cmp	r3, #0
 800a990:	d0c5      	beq.n	800a91e <_vfiprintf_r+0x176>
 800a992:	9105      	str	r1, [sp, #20]
 800a994:	e7c3      	b.n	800a91e <_vfiprintf_r+0x176>
 800a996:	fb0c 2101 	mla	r1, ip, r1, r2
 800a99a:	4604      	mov	r4, r0
 800a99c:	2301      	movs	r3, #1
 800a99e:	e7f0      	b.n	800a982 <_vfiprintf_r+0x1da>
 800a9a0:	ab03      	add	r3, sp, #12
 800a9a2:	9300      	str	r3, [sp, #0]
 800a9a4:	462a      	mov	r2, r5
 800a9a6:	4b16      	ldr	r3, [pc, #88]	; (800aa00 <_vfiprintf_r+0x258>)
 800a9a8:	a904      	add	r1, sp, #16
 800a9aa:	4630      	mov	r0, r6
 800a9ac:	f3af 8000 	nop.w
 800a9b0:	4607      	mov	r7, r0
 800a9b2:	1c78      	adds	r0, r7, #1
 800a9b4:	d1d6      	bne.n	800a964 <_vfiprintf_r+0x1bc>
 800a9b6:	6e6b      	ldr	r3, [r5, #100]	; 0x64
 800a9b8:	07d9      	lsls	r1, r3, #31
 800a9ba:	d405      	bmi.n	800a9c8 <_vfiprintf_r+0x220>
 800a9bc:	89ab      	ldrh	r3, [r5, #12]
 800a9be:	059a      	lsls	r2, r3, #22
 800a9c0:	d402      	bmi.n	800a9c8 <_vfiprintf_r+0x220>
 800a9c2:	6da8      	ldr	r0, [r5, #88]	; 0x58
 800a9c4:	f7ff fe53 	bl	800a66e <__retarget_lock_release_recursive>
 800a9c8:	89ab      	ldrh	r3, [r5, #12]
 800a9ca:	065b      	lsls	r3, r3, #25
 800a9cc:	f53f af12 	bmi.w	800a7f4 <_vfiprintf_r+0x4c>
 800a9d0:	9809      	ldr	r0, [sp, #36]	; 0x24
 800a9d2:	e711      	b.n	800a7f8 <_vfiprintf_r+0x50>
 800a9d4:	ab03      	add	r3, sp, #12
 800a9d6:	9300      	str	r3, [sp, #0]
 800a9d8:	462a      	mov	r2, r5
 800a9da:	4b09      	ldr	r3, [pc, #36]	; (800aa00 <_vfiprintf_r+0x258>)
 800a9dc:	a904      	add	r1, sp, #16
 800a9de:	4630      	mov	r0, r6
 800a9e0:	f000 f880 	bl	800aae4 <_printf_i>
 800a9e4:	e7e4      	b.n	800a9b0 <_vfiprintf_r+0x208>
 800a9e6:	bf00      	nop
 800a9e8:	0800cc64 	.word	0x0800cc64
 800a9ec:	0800cc84 	.word	0x0800cc84
 800a9f0:	0800cc44 	.word	0x0800cc44
 800a9f4:	0800cca4 	.word	0x0800cca4
 800a9f8:	0800ccae 	.word	0x0800ccae
 800a9fc:	00000000 	.word	0x00000000
 800aa00:	0800a783 	.word	0x0800a783
 800aa04:	0800ccaa 	.word	0x0800ccaa

0800aa08 <_printf_common>:
 800aa08:	e92d 47f0 	stmdb	sp!, {r4, r5, r6, r7, r8, r9, sl, lr}
 800aa0c:	4616      	mov	r6, r2
 800aa0e:	4699      	mov	r9, r3
 800aa10:	688a      	ldr	r2, [r1, #8]
 800aa12:	690b      	ldr	r3, [r1, #16]
 800aa14:	f8dd 8020 	ldr.w	r8, [sp, #32]
 800aa18:	4293      	cmp	r3, r2
 800aa1a:	bfb8      	it	lt
 800aa1c:	4613      	movlt	r3, r2
 800aa1e:	6033      	str	r3, [r6, #0]
 800aa20:	f891 2043 	ldrb.w	r2, [r1, #67]	; 0x43
 800aa24:	4607      	mov	r7, r0
 800aa26:	460c      	mov	r4, r1
 800aa28:	b10a      	cbz	r2, 800aa2e <_printf_common+0x26>
 800aa2a:	3301      	adds	r3, #1
 800aa2c:	6033      	str	r3, [r6, #0]
 800aa2e:	6823      	ldr	r3, [r4, #0]
 800aa30:	0699      	lsls	r1, r3, #26
 800aa32:	bf42      	ittt	mi
 800aa34:	6833      	ldrmi	r3, [r6, #0]
 800aa36:	3302      	addmi	r3, #2
 800aa38:	6033      	strmi	r3, [r6, #0]
 800aa3a:	6825      	ldr	r5, [r4, #0]
 800aa3c:	f015 0506 	ands.w	r5, r5, #6
 800aa40:	d106      	bne.n	800aa50 <_printf_common+0x48>
 800aa42:	f104 0a19 	add.w	sl, r4, #25
 800aa46:	68e3      	ldr	r3, [r4, #12]
 800aa48:	6832      	ldr	r2, [r6, #0]
 800aa4a:	1a9b      	subs	r3, r3, r2
 800aa4c:	42ab      	cmp	r3, r5
 800aa4e:	dc26      	bgt.n	800aa9e <_printf_common+0x96>
 800aa50:	f894 2043 	ldrb.w	r2, [r4, #67]	; 0x43
 800aa54:	1e13      	subs	r3, r2, #0
 800aa56:	6822      	ldr	r2, [r4, #0]
 800aa58:	bf18      	it	ne
 800aa5a:	2301      	movne	r3, #1
 800aa5c:	0692      	lsls	r2, r2, #26
 800aa5e:	d42b      	bmi.n	800aab8 <_printf_common+0xb0>
 800aa60:	f104 0243 	add.w	r2, r4, #67	; 0x43
 800aa64:	4649      	mov	r1, r9
 800aa66:	4638      	mov	r0, r7
 800aa68:	47c0      	blx	r8
 800aa6a:	3001      	adds	r0, #1
 800aa6c:	d01e      	beq.n	800aaac <_printf_common+0xa4>
 800aa6e:	6823      	ldr	r3, [r4, #0]
 800aa70:	68e5      	ldr	r5, [r4, #12]
 800aa72:	6832      	ldr	r2, [r6, #0]
 800aa74:	f003 0306 	and.w	r3, r3, #6
 800aa78:	2b04      	cmp	r3, #4
 800aa7a:	bf08      	it	eq
 800aa7c:	1aad      	subeq	r5, r5, r2
 800aa7e:	68a3      	ldr	r3, [r4, #8]
 800aa80:	6922      	ldr	r2, [r4, #16]
 800aa82:	bf0c      	ite	eq
 800aa84:	ea25 75e5 	biceq.w	r5, r5, r5, asr #31
 800aa88:	2500      	movne	r5, #0
 800aa8a:	4293      	cmp	r3, r2
 800aa8c:	bfc4      	itt	gt
 800aa8e:	1a9b      	subgt	r3, r3, r2
 800aa90:	18ed      	addgt	r5, r5, r3
 800aa92:	2600      	movs	r6, #0
 800aa94:	341a      	adds	r4, #26
 800aa96:	42b5      	cmp	r5, r6
 800aa98:	d11a      	bne.n	800aad0 <_printf_common+0xc8>
 800aa9a:	2000      	movs	r0, #0
 800aa9c:	e008      	b.n	800aab0 <_printf_common+0xa8>
 800aa9e:	2301      	movs	r3, #1
 800aaa0:	4652      	mov	r2, sl
 800aaa2:	4649      	mov	r1, r9
 800aaa4:	4638      	mov	r0, r7
 800aaa6:	47c0      	blx	r8
 800aaa8:	3001      	adds	r0, #1
 800aaaa:	d103      	bne.n	800aab4 <_printf_common+0xac>
 800aaac:	f04f 30ff 	mov.w	r0, #4294967295
 800aab0:	e8bd 87f0 	ldmia.w	sp!, {r4, r5, r6, r7, r8, r9, sl, pc}
 800aab4:	3501      	adds	r5, #1
 800aab6:	e7c6      	b.n	800aa46 <_printf_common+0x3e>
 800aab8:	18e1      	adds	r1, r4, r3
 800aaba:	1c5a      	adds	r2, r3, #1
 800aabc:	2030      	movs	r0, #48	; 0x30
 800aabe:	f881 0043 	strb.w	r0, [r1, #67]	; 0x43
 800aac2:	4422      	add	r2, r4
 800aac4:	f894 1045 	ldrb.w	r1, [r4, #69]	; 0x45
 800aac8:	f882 1043 	strb.w	r1, [r2, #67]	; 0x43
 800aacc:	3302      	adds	r3, #2
 800aace:	e7c7      	b.n	800aa60 <_printf_common+0x58>
 800aad0:	2301      	movs	r3, #1
 800aad2:	4622      	mov	r2, r4
 800aad4:	4649      	mov	r1, r9
 800aad6:	4638      	mov	r0, r7
 800aad8:	47c0      	blx	r8
 800aada:	3001      	adds	r0, #1
 800aadc:	d0e6      	beq.n	800aaac <_printf_common+0xa4>
 800aade:	3601      	adds	r6, #1
 800aae0:	e7d9      	b.n	800aa96 <_printf_common+0x8e>
	...

0800aae4 <_printf_i>:
 800aae4:	e92d 47ff 	stmdb	sp!, {r0, r1, r2, r3, r4, r5, r6, r7, r8, r9, sl, lr}
 800aae8:	7e0f      	ldrb	r7, [r1, #24]
 800aaea:	9d0c      	ldr	r5, [sp, #48]	; 0x30
 800aaec:	2f78      	cmp	r7, #120	; 0x78
 800aaee:	4691      	mov	r9, r2
 800aaf0:	4680      	mov	r8, r0
 800aaf2:	460c      	mov	r4, r1
 800aaf4:	469a      	mov	sl, r3
 800aaf6:	f101 0243 	add.w	r2, r1, #67	; 0x43
 800aafa:	d807      	bhi.n	800ab0c <_printf_i+0x28>
 800aafc:	2f62      	cmp	r7, #98	; 0x62
 800aafe:	d80a      	bhi.n	800ab16 <_printf_i+0x32>
 800ab00:	2f00      	cmp	r7, #0
 800ab02:	f000 80d8 	beq.w	800acb6 <_printf_i+0x1d2>
 800ab06:	2f58      	cmp	r7, #88	; 0x58
 800ab08:	f000 80a3 	beq.w	800ac52 <_printf_i+0x16e>
 800ab0c:	f104 0542 	add.w	r5, r4, #66	; 0x42
 800ab10:	f884 7042 	strb.w	r7, [r4, #66]	; 0x42
 800ab14:	e03a      	b.n	800ab8c <_printf_i+0xa8>
 800ab16:	f1a7 0363 	sub.w	r3, r7, #99	; 0x63
 800ab1a:	2b15      	cmp	r3, #21
 800ab1c:	d8f6      	bhi.n	800ab0c <_printf_i+0x28>
 800ab1e:	a101      	add	r1, pc, #4	; (adr r1, 800ab24 <_printf_i+0x40>)
 800ab20:	f851 f023 	ldr.w	pc, [r1, r3, lsl #2]
 800ab24:	0800ab7d 	.word	0x0800ab7d
 800ab28:	0800ab91 	.word	0x0800ab91
 800ab2c:	0800ab0d 	.word	0x0800ab0d
 800ab30:	0800ab0d 	.word	0x0800ab0d
 800ab34:	0800ab0d 	.word	0x0800ab0d
 800ab38:	0800ab0d 	.word	0x0800ab0d
 800ab3c:	0800ab91 	.word	0x0800ab91
 800ab40:	0800ab0d 	.word	0x0800ab0d
 800ab44:	0800ab0d 	.word	0x0800ab0d
 800ab48:	0800ab0d 	.word	0x0800ab0d
 800ab4c:	0800ab0d 	.word	0x0800ab0d
 800ab50:	0800ac9d 	.word	0x0800ac9d
 800ab54:	0800abc1 	.word	0x0800abc1
 800ab58:	0800ac7f 	.word	0x0800ac7f
 800ab5c:	0800ab0d 	.word	0x0800ab0d
 800ab60:	0800ab0d 	.word	0x0800ab0d
 800ab64:	0800acbf 	.word	0x0800acbf
 800ab68:	0800ab0d 	.word	0x0800ab0d
 800ab6c:	0800abc1 	.word	0x0800abc1
 800ab70:	0800ab0d 	.word	0x0800ab0d
 800ab74:	0800ab0d 	.word	0x0800ab0d
 800ab78:	0800ac87 	.word	0x0800ac87
 800ab7c:	682b      	ldr	r3, [r5, #0]
 800ab7e:	1d1a      	adds	r2, r3, #4
 800ab80:	681b      	ldr	r3, [r3, #0]
 800ab82:	602a      	str	r2, [r5, #0]
 800ab84:	f104 0542 	add.w	r5, r4, #66	; 0x42
 800ab88:	f884 3042 	strb.w	r3, [r4, #66]	; 0x42
 800ab8c:	2301      	movs	r3, #1
 800ab8e:	e0a3      	b.n	800acd8 <_printf_i+0x1f4>
 800ab90:	6820      	ldr	r0, [r4, #0]
 800ab92:	6829      	ldr	r1, [r5, #0]
 800ab94:	0606      	lsls	r6, r0, #24
 800ab96:	f101 0304 	add.w	r3, r1, #4
 800ab9a:	d50a      	bpl.n	800abb2 <_printf_i+0xce>
 800ab9c:	680e      	ldr	r6, [r1, #0]
 800ab9e:	602b      	str	r3, [r5, #0]
 800aba0:	2e00      	cmp	r6, #0
 800aba2:	da03      	bge.n	800abac <_printf_i+0xc8>
 800aba4:	232d      	movs	r3, #45	; 0x2d
 800aba6:	4276      	negs	r6, r6
 800aba8:	f884 3043 	strb.w	r3, [r4, #67]	; 0x43
 800abac:	485e      	ldr	r0, [pc, #376]	; (800ad28 <_printf_i+0x244>)
 800abae:	230a      	movs	r3, #10
 800abb0:	e019      	b.n	800abe6 <_printf_i+0x102>
 800abb2:	680e      	ldr	r6, [r1, #0]
 800abb4:	602b      	str	r3, [r5, #0]
 800abb6:	f010 0f40 	tst.w	r0, #64	; 0x40
 800abba:	bf18      	it	ne
 800abbc:	b236      	sxthne	r6, r6
 800abbe:	e7ef      	b.n	800aba0 <_printf_i+0xbc>
 800abc0:	682b      	ldr	r3, [r5, #0]
 800abc2:	6820      	ldr	r0, [r4, #0]
 800abc4:	1d19      	adds	r1, r3, #4
 800abc6:	6029      	str	r1, [r5, #0]
 800abc8:	0601      	lsls	r1, r0, #24
 800abca:	d501      	bpl.n	800abd0 <_printf_i+0xec>
 800abcc:	681e      	ldr	r6, [r3, #0]
 800abce:	e002      	b.n	800abd6 <_printf_i+0xf2>
 800abd0:	0646      	lsls	r6, r0, #25
 800abd2:	d5fb      	bpl.n	800abcc <_printf_i+0xe8>
 800abd4:	881e      	ldrh	r6, [r3, #0]
 800abd6:	4854      	ldr	r0, [pc, #336]	; (800ad28 <_printf_i+0x244>)
 800abd8:	2f6f      	cmp	r7, #111	; 0x6f
 800abda:	bf0c      	ite	eq
 800abdc:	2308      	moveq	r3, #8
 800abde:	230a      	movne	r3, #10
 800abe0:	2100      	movs	r1, #0
 800abe2:	f884 1043 	strb.w	r1, [r4, #67]	; 0x43
 800abe6:	6865      	ldr	r5, [r4, #4]
 800abe8:	60a5      	str	r5, [r4, #8]
 800abea:	2d00      	cmp	r5, #0
 800abec:	bfa2      	ittt	ge
 800abee:	6821      	ldrge	r1, [r4, #0]
 800abf0:	f021 0104 	bicge.w	r1, r1, #4
 800abf4:	6021      	strge	r1, [r4, #0]
 800abf6:	b90e      	cbnz	r6, 800abfc <_printf_i+0x118>
 800abf8:	2d00      	cmp	r5, #0
 800abfa:	d04d      	beq.n	800ac98 <_printf_i+0x1b4>
 800abfc:	4615      	mov	r5, r2
 800abfe:	fbb6 f1f3 	udiv	r1, r6, r3
 800ac02:	fb03 6711 	mls	r7, r3, r1, r6
 800ac06:	5dc7      	ldrb	r7, [r0, r7]
 800ac08:	f805 7d01 	strb.w	r7, [r5, #-1]!
 800ac0c:	4637      	mov	r7, r6
 800ac0e:	42bb      	cmp	r3, r7
 800ac10:	460e      	mov	r6, r1
 800ac12:	d9f4      	bls.n	800abfe <_printf_i+0x11a>
 800ac14:	2b08      	cmp	r3, #8
 800ac16:	d10b      	bne.n	800ac30 <_printf_i+0x14c>
 800ac18:	6823      	ldr	r3, [r4, #0]
 800ac1a:	07de      	lsls	r6, r3, #31
 800ac1c:	d508      	bpl.n	800ac30 <_printf_i+0x14c>
 800ac1e:	6923      	ldr	r3, [r4, #16]
 800ac20:	6861      	ldr	r1, [r4, #4]
 800ac22:	4299      	cmp	r1, r3
 800ac24:	bfde      	ittt	le
 800ac26:	2330      	movle	r3, #48	; 0x30
 800ac28:	f805 3c01 	strble.w	r3, [r5, #-1]
 800ac2c:	f105 35ff 	addle.w	r5, r5, #4294967295
 800ac30:	1b52      	subs	r2, r2, r5
 800ac32:	6122      	str	r2, [r4, #16]
 800ac34:	f8cd a000 	str.w	sl, [sp]
 800ac38:	464b      	mov	r3, r9
 800ac3a:	aa03      	add	r2, sp, #12
 800ac3c:	4621      	mov	r1, r4
 800ac3e:	4640      	mov	r0, r8
 800ac40:	f7ff fee2 	bl	800aa08 <_printf_common>
 800ac44:	3001      	adds	r0, #1
 800ac46:	d14c      	bne.n	800ace2 <_printf_i+0x1fe>
 800ac48:	f04f 30ff 	mov.w	r0, #4294967295
 800ac4c:	b004      	add	sp, #16
 800ac4e:	e8bd 87f0 	ldmia.w	sp!, {r4, r5, r6, r7, r8, r9, sl, pc}
 800ac52:	4835      	ldr	r0, [pc, #212]	; (800ad28 <_printf_i+0x244>)
 800ac54:	f881 7045 	strb.w	r7, [r1, #69]	; 0x45
 800ac58:	6829      	ldr	r1, [r5, #0]
 800ac5a:	6823      	ldr	r3, [r4, #0]
 800ac5c:	f851 6b04 	ldr.w	r6, [r1], #4
 800ac60:	6029      	str	r1, [r5, #0]
 800ac62:	061d      	lsls	r5, r3, #24
 800ac64:	d514      	bpl.n	800ac90 <_printf_i+0x1ac>
 800ac66:	07df      	lsls	r7, r3, #31
 800ac68:	bf44      	itt	mi
 800ac6a:	f043 0320 	orrmi.w	r3, r3, #32
 800ac6e:	6023      	strmi	r3, [r4, #0]
 800ac70:	b91e      	cbnz	r6, 800ac7a <_printf_i+0x196>
 800ac72:	6823      	ldr	r3, [r4, #0]
 800ac74:	f023 0320 	bic.w	r3, r3, #32
 800ac78:	6023      	str	r3, [r4, #0]
 800ac7a:	2310      	movs	r3, #16
 800ac7c:	e7b0      	b.n	800abe0 <_printf_i+0xfc>
 800ac7e:	6823      	ldr	r3, [r4, #0]
 800ac80:	f043 0320 	orr.w	r3, r3, #32
 800ac84:	6023      	str	r3, [r4, #0]
 800ac86:	2378      	movs	r3, #120	; 0x78
 800ac88:	4828      	ldr	r0, [pc, #160]	; (800ad2c <_printf_i+0x248>)
 800ac8a:	f884 3045 	strb.w	r3, [r4, #69]	; 0x45
 800ac8e:	e7e3      	b.n	800ac58 <_printf_i+0x174>
 800ac90:	0659      	lsls	r1, r3, #25
 800ac92:	bf48      	it	mi
 800ac94:	b2b6      	uxthmi	r6, r6
 800ac96:	e7e6      	b.n	800ac66 <_printf_i+0x182>
 800ac98:	4615      	mov	r5, r2
 800ac9a:	e7bb      	b.n	800ac14 <_printf_i+0x130>
 800ac9c:	682b      	ldr	r3, [r5, #0]
 800ac9e:	6826      	ldr	r6, [r4, #0]
 800aca0:	6961      	ldr	r1, [r4, #20]
 800aca2:	1d18      	adds	r0, r3, #4
 800aca4:	6028      	str	r0, [r5, #0]
 800aca6:	0635      	lsls	r5, r6, #24
 800aca8:	681b      	ldr	r3, [r3, #0]
 800acaa:	d501      	bpl.n	800acb0 <_printf_i+0x1cc>
 800acac:	6019      	str	r1, [r3, #0]
 800acae:	e002      	b.n	800acb6 <_printf_i+0x1d2>
 800acb0:	0670      	lsls	r0, r6, #25
 800acb2:	d5fb      	bpl.n	800acac <_printf_i+0x1c8>
 800acb4:	8019      	strh	r1, [r3, #0]
 800acb6:	2300      	movs	r3, #0
 800acb8:	6123      	str	r3, [r4, #16]
 800acba:	4615      	mov	r5, r2
 800acbc:	e7ba      	b.n	800ac34 <_printf_i+0x150>
 800acbe:	682b      	ldr	r3, [r5, #0]
 800acc0:	1d1a      	adds	r2, r3, #4
 800acc2:	602a      	str	r2, [r5, #0]
 800acc4:	681d      	ldr	r5, [r3, #0]
 800acc6:	6862      	ldr	r2, [r4, #4]
 800acc8:	2100      	movs	r1, #0
 800acca:	4628      	mov	r0, r5
 800accc:	f7f5 fa88 	bl	80001e0 <memchr>
 800acd0:	b108      	cbz	r0, 800acd6 <_printf_i+0x1f2>
 800acd2:	1b40      	subs	r0, r0, r5
 800acd4:	6060      	str	r0, [r4, #4]
 800acd6:	6863      	ldr	r3, [r4, #4]
 800acd8:	6123      	str	r3, [r4, #16]
 800acda:	2300      	movs	r3, #0
 800acdc:	f884 3043 	strb.w	r3, [r4, #67]	; 0x43
 800ace0:	e7a8      	b.n	800ac34 <_printf_i+0x150>
 800ace2:	6923      	ldr	r3, [r4, #16]
 800ace4:	462a      	mov	r2, r5
 800ace6:	4649      	mov	r1, r9
 800ace8:	4640      	mov	r0, r8
 800acea:	47d0      	blx	sl
 800acec:	3001      	adds	r0, #1
 800acee:	d0ab      	beq.n	800ac48 <_printf_i+0x164>
 800acf0:	6823      	ldr	r3, [r4, #0]
 800acf2:	079b      	lsls	r3, r3, #30
 800acf4:	d413      	bmi.n	800ad1e <_printf_i+0x23a>
 800acf6:	68e0      	ldr	r0, [r4, #12]
 800acf8:	9b03      	ldr	r3, [sp, #12]
 800acfa:	4298      	cmp	r0, r3
 800acfc:	bfb8      	it	lt
 800acfe:	4618      	movlt	r0, r3
 800ad00:	e7a4      	b.n	800ac4c <_printf_i+0x168>
 800ad02:	2301      	movs	r3, #1
 800ad04:	4632      	mov	r2, r6
 800ad06:	4649      	mov	r1, r9
 800ad08:	4640      	mov	r0, r8
 800ad0a:	47d0      	blx	sl
 800ad0c:	3001      	adds	r0, #1
 800ad0e:	d09b      	beq.n	800ac48 <_printf_i+0x164>
 800ad10:	3501      	adds	r5, #1
 800ad12:	68e3      	ldr	r3, [r4, #12]
 800ad14:	9903      	ldr	r1, [sp, #12]
 800ad16:	1a5b      	subs	r3, r3, r1
 800ad18:	42ab      	cmp	r3, r5
 800ad1a:	dcf2      	bgt.n	800ad02 <_printf_i+0x21e>
 800ad1c:	e7eb      	b.n	800acf6 <_printf_i+0x212>
 800ad1e:	2500      	movs	r5, #0
 800ad20:	f104 0619 	add.w	r6, r4, #25
 800ad24:	e7f5      	b.n	800ad12 <_printf_i+0x22e>
 800ad26:	bf00      	nop
 800ad28:	0800ccb5 	.word	0x0800ccb5
 800ad2c:	0800ccc6 	.word	0x0800ccc6

0800ad30 <__sread>:
 800ad30:	b510      	push	{r4, lr}
 800ad32:	460c      	mov	r4, r1
 800ad34:	f9b1 100e 	ldrsh.w	r1, [r1, #14]
 800ad38:	f000 f894 	bl	800ae64 <_read_r>
 800ad3c:	2800      	cmp	r0, #0
 800ad3e:	bfab      	itete	ge
 800ad40:	6d63      	ldrge	r3, [r4, #84]	; 0x54
 800ad42:	89a3      	ldrhlt	r3, [r4, #12]
 800ad44:	181b      	addge	r3, r3, r0
 800ad46:	f423 5380 	biclt.w	r3, r3, #4096	; 0x1000
 800ad4a:	bfac      	ite	ge
 800ad4c:	6563      	strge	r3, [r4, #84]	; 0x54
 800ad4e:	81a3      	strhlt	r3, [r4, #12]
 800ad50:	bd10      	pop	{r4, pc}

0800ad52 <__swrite>:
 800ad52:	e92d 41f0 	stmdb	sp!, {r4, r5, r6, r7, r8, lr}
 800ad56:	461f      	mov	r7, r3
 800ad58:	898b      	ldrh	r3, [r1, #12]
 800ad5a:	05db      	lsls	r3, r3, #23
 800ad5c:	4605      	mov	r5, r0
 800ad5e:	460c      	mov	r4, r1
 800ad60:	4616      	mov	r6, r2
 800ad62:	d505      	bpl.n	800ad70 <__swrite+0x1e>
 800ad64:	f9b1 100e 	ldrsh.w	r1, [r1, #14]
 800ad68:	2302      	movs	r3, #2
 800ad6a:	2200      	movs	r2, #0
 800ad6c:	f000 f868 	bl	800ae40 <_lseek_r>
 800ad70:	89a3      	ldrh	r3, [r4, #12]
 800ad72:	f9b4 100e 	ldrsh.w	r1, [r4, #14]
 800ad76:	f423 5380 	bic.w	r3, r3, #4096	; 0x1000
 800ad7a:	81a3      	strh	r3, [r4, #12]
 800ad7c:	4632      	mov	r2, r6
 800ad7e:	463b      	mov	r3, r7
 800ad80:	4628      	mov	r0, r5
 800ad82:	e8bd 41f0 	ldmia.w	sp!, {r4, r5, r6, r7, r8, lr}
 800ad86:	f000 b817 	b.w	800adb8 <_write_r>

0800ad8a <__sseek>:
 800ad8a:	b510      	push	{r4, lr}
 800ad8c:	460c      	mov	r4, r1
 800ad8e:	f9b1 100e 	ldrsh.w	r1, [r1, #14]
 800ad92:	f000 f855 	bl	800ae40 <_lseek_r>
 800ad96:	1c43      	adds	r3, r0, #1
 800ad98:	89a3      	ldrh	r3, [r4, #12]
 800ad9a:	bf15      	itete	ne
 800ad9c:	6560      	strne	r0, [r4, #84]	; 0x54
 800ad9e:	f423 5380 	biceq.w	r3, r3, #4096	; 0x1000
 800ada2:	f443 5380 	orrne.w	r3, r3, #4096	; 0x1000
 800ada6:	81a3      	strheq	r3, [r4, #12]
 800ada8:	bf18      	it	ne
 800adaa:	81a3      	strhne	r3, [r4, #12]
 800adac:	bd10      	pop	{r4, pc}

0800adae <__sclose>:
 800adae:	f9b1 100e 	ldrsh.w	r1, [r1, #14]
 800adb2:	f000 b813 	b.w	800addc <_close_r>
	...

0800adb8 <_write_r>:
 800adb8:	b538      	push	{r3, r4, r5, lr}
 800adba:	4d07      	ldr	r5, [pc, #28]	; (800add8 <_write_r+0x20>)
 800adbc:	4604      	mov	r4, r0
 800adbe:	4608      	mov	r0, r1
 800adc0:	4611      	mov	r1, r2
 800adc2:	2200      	movs	r2, #0
 800adc4:	602a      	str	r2, [r5, #0]
 800adc6:	461a      	mov	r2, r3
 800adc8:	f7f6 fea6 	bl	8001b18 <_write>
 800adcc:	1c43      	adds	r3, r0, #1
 800adce:	d102      	bne.n	800add6 <_write_r+0x1e>
 800add0:	682b      	ldr	r3, [r5, #0]
 800add2:	b103      	cbz	r3, 800add6 <_write_r+0x1e>
 800add4:	6023      	str	r3, [r4, #0]
 800add6:	bd38      	pop	{r3, r4, r5, pc}
 800add8:	200059d8 	.word	0x200059d8

0800addc <_close_r>:
 800addc:	b538      	push	{r3, r4, r5, lr}
 800adde:	4d06      	ldr	r5, [pc, #24]	; (800adf8 <_close_r+0x1c>)
 800ade0:	2300      	movs	r3, #0
 800ade2:	4604      	mov	r4, r0
 800ade4:	4608      	mov	r0, r1
 800ade6:	602b      	str	r3, [r5, #0]
 800ade8:	f7f6 fea4 	bl	8001b34 <_close>
 800adec:	1c43      	adds	r3, r0, #1
 800adee:	d102      	bne.n	800adf6 <_close_r+0x1a>
 800adf0:	682b      	ldr	r3, [r5, #0]
 800adf2:	b103      	cbz	r3, 800adf6 <_close_r+0x1a>
 800adf4:	6023      	str	r3, [r4, #0]
 800adf6:	bd38      	pop	{r3, r4, r5, pc}
 800adf8:	200059d8 	.word	0x200059d8

0800adfc <_fstat_r>:
 800adfc:	b538      	push	{r3, r4, r5, lr}
 800adfe:	4d07      	ldr	r5, [pc, #28]	; (800ae1c <_fstat_r+0x20>)
 800ae00:	2300      	movs	r3, #0
 800ae02:	4604      	mov	r4, r0
 800ae04:	4608      	mov	r0, r1
 800ae06:	4611      	mov	r1, r2
 800ae08:	602b      	str	r3, [r5, #0]
 800ae0a:	f7f6 fe96 	bl	8001b3a <_fstat>
 800ae0e:	1c43      	adds	r3, r0, #1
 800ae10:	d102      	bne.n	800ae18 <_fstat_r+0x1c>
 800ae12:	682b      	ldr	r3, [r5, #0]
 800ae14:	b103      	cbz	r3, 800ae18 <_fstat_r+0x1c>
 800ae16:	6023      	str	r3, [r4, #0]
 800ae18:	bd38      	pop	{r3, r4, r5, pc}
 800ae1a:	bf00      	nop
 800ae1c:	200059d8 	.word	0x200059d8

0800ae20 <_isatty_r>:
 800ae20:	b538      	push	{r3, r4, r5, lr}
 800ae22:	4d06      	ldr	r5, [pc, #24]	; (800ae3c <_isatty_r+0x1c>)
 800ae24:	2300      	movs	r3, #0
 800ae26:	4604      	mov	r4, r0
 800ae28:	4608      	mov	r0, r1
 800ae2a:	602b      	str	r3, [r5, #0]
 800ae2c:	f7f6 fe8a 	bl	8001b44 <_isatty>
 800ae30:	1c43      	adds	r3, r0, #1
 800ae32:	d102      	bne.n	800ae3a <_isatty_r+0x1a>
 800ae34:	682b      	ldr	r3, [r5, #0]
 800ae36:	b103      	cbz	r3, 800ae3a <_isatty_r+0x1a>
 800ae38:	6023      	str	r3, [r4, #0]
 800ae3a:	bd38      	pop	{r3, r4, r5, pc}
 800ae3c:	200059d8 	.word	0x200059d8

0800ae40 <_lseek_r>:
 800ae40:	b538      	push	{r3, r4, r5, lr}
 800ae42:	4d07      	ldr	r5, [pc, #28]	; (800ae60 <_lseek_r+0x20>)
 800ae44:	4604      	mov	r4, r0
 800ae46:	4608      	mov	r0, r1
 800ae48:	4611      	mov	r1, r2
 800ae4a:	2200      	movs	r2, #0
 800ae4c:	602a      	str	r2, [r5, #0]
 800ae4e:	461a      	mov	r2, r3
 800ae50:	f7f6 fe7a 	bl	8001b48 <_lseek>
 800ae54:	1c43      	adds	r3, r0, #1
 800ae56:	d102      	bne.n	800ae5e <_lseek_r+0x1e>
 800ae58:	682b      	ldr	r3, [r5, #0]
 800ae5a:	b103      	cbz	r3, 800ae5e <_lseek_r+0x1e>
 800ae5c:	6023      	str	r3, [r4, #0]
 800ae5e:	bd38      	pop	{r3, r4, r5, pc}
 800ae60:	200059d8 	.word	0x200059d8

0800ae64 <_read_r>:
 800ae64:	b538      	push	{r3, r4, r5, lr}
 800ae66:	4d07      	ldr	r5, [pc, #28]	; (800ae84 <_read_r+0x20>)
 800ae68:	4604      	mov	r4, r0
 800ae6a:	4608      	mov	r0, r1
 800ae6c:	4611      	mov	r1, r2
 800ae6e:	2200      	movs	r2, #0
 800ae70:	602a      	str	r2, [r5, #0]
 800ae72:	461a      	mov	r2, r3
 800ae74:	f7f6 fe42 	bl	8001afc <_read>
 800ae78:	1c43      	adds	r3, r0, #1
 800ae7a:	d102      	bne.n	800ae82 <_read_r+0x1e>
 800ae7c:	682b      	ldr	r3, [r5, #0]
 800ae7e:	b103      	cbz	r3, 800ae82 <_read_r+0x1e>
 800ae80:	6023      	str	r3, [r4, #0]
 800ae82:	bd38      	pop	{r3, r4, r5, pc}
 800ae84:	200059d8 	.word	0x200059d8

0800ae88 <_init>:
 800ae88:	b5f8      	push	{r3, r4, r5, r6, r7, lr}
 800ae8a:	bf00      	nop
 800ae8c:	bcf8      	pop	{r3, r4, r5, r6, r7}
 800ae8e:	bc08      	pop	{r3}
 800ae90:	469e      	mov	lr, r3
 800ae92:	4770      	bx	lr

0800ae94 <_fini>:
 800ae94:	b5f8      	push	{r3, r4, r5, r6, r7, lr}
 800ae96:	bf00      	nop
 800ae98:	bcf8      	pop	{r3, r4, r5, r6, r7}
 800ae9a:	bc08      	pop	{r3}
 800ae9c:	469e      	mov	lr, r3
 800ae9e:	4770      	bx	lr
